
WIFI-simpleGet-EXT1.elf:     file format elf32-littlearm

Sections:
Idx Name          Size      VMA       LMA       File off  Algn
  0 .text         0000e56c  00400000  00400000  00010000  2**6
                  CONTENTS, ALLOC, LOAD, READONLY, CODE
  1 .ARM.exidx    00000008  0040e56c  0040e56c  0001e56c  2**2
                  CONTENTS, ALLOC, LOAD, READONLY, DATA
  2 .relocate     000009d8  20400000  0040e574  00020000  2**3
                  CONTENTS, ALLOC, LOAD, CODE
  3 .bss          0000c600  204009d8  0040ef4c  000209d8  2**2
                  ALLOC
  4 .stack        00002000  2040cfd8  0041b54c  000209d8  2**0
                  ALLOC
  5 .heap         00000200  2040efd8  0041d54c  000209d8  2**0
                  ALLOC
  6 .ARM.attributes 0000002e  00000000  00000000  000209d8  2**0
                  CONTENTS, READONLY
  7 .comment      00000059  00000000  00000000  00020a06  2**0
                  CONTENTS, READONLY
  8 .debug_info   0003b38c  00000000  00000000  00020a5f  2**0
                  CONTENTS, READONLY, DEBUGGING
  9 .debug_abbrev 00007534  00000000  00000000  0005bdeb  2**0
                  CONTENTS, READONLY, DEBUGGING
 10 .debug_aranges 000017a8  00000000  00000000  0006331f  2**0
                  CONTENTS, READONLY, DEBUGGING
 11 .debug_macro  000295dd  00000000  00000000  00064ac7  2**0
                  CONTENTS, READONLY, DEBUGGING
 12 .debug_line   0001e313  00000000  00000000  0008e0a4  2**0
                  CONTENTS, READONLY, DEBUGGING
 13 .debug_str    0009bd30  00000000  00000000  000ac3b7  2**0
                  CONTENTS, READONLY, DEBUGGING
 14 .debug_loc    00014375  00000000  00000000  001480e7  2**0
                  CONTENTS, READONLY, DEBUGGING
 15 .debug_ranges 00001b48  00000000  00000000  0015c45c  2**0
                  CONTENTS, READONLY, DEBUGGING
 16 .debug_frame  00005220  00000000  00000000  0015dfa4  2**2
                  CONTENTS, READONLY, DEBUGGING

Disassembly of section .text:

00400000 <exception_table>:
  400000:	d8 ef 40 20 b9 5a 40 00 b7 5a 40 00 b7 5a 40 00     ..@ .Z@..Z@..Z@.
  400010:	b7 5a 40 00 b7 5a 40 00 b7 5a 40 00 00 00 00 00     .Z@..Z@..Z@.....
	...
  40002c:	09 08 40 00 b7 5a 40 00 00 00 00 00 a9 08 40 00     ..@..Z@.......@.
  40003c:	11 09 40 00 b7 5a 40 00 b7 5a 40 00 85 63 40 00     ..@..Z@..Z@..c@.
  40004c:	b7 5a 40 00 b7 5a 40 00 b7 5a 40 00 b7 5a 40 00     .Z@..Z@..Z@..Z@.
  40005c:	b7 5a 40 00 b7 5a 40 00 00 00 00 00 91 55 40 00     .Z@..Z@......U@.
  40006c:	a5 55 40 00 b9 55 40 00 b7 5a 40 00 b7 5a 40 00     .U@..U@..Z@..Z@.
  40007c:	b7 5a 40 00 cd 55 40 00 e1 55 40 00 b7 5a 40 00     .Z@..U@..U@..Z@.
  40008c:	b7 5a 40 00 b7 5a 40 00 b7 5a 40 00 b7 5a 40 00     .Z@..Z@..Z@..Z@.
  40009c:	5d 63 40 00 b7 5a 40 00 b7 5a 40 00 b7 5a 40 00     ]c@..Z@..Z@..Z@.
  4000ac:	b7 5a 40 00 b7 5a 40 00 21 04 40 00 b7 5a 40 00     .Z@..Z@.!.@..Z@.
  4000bc:	b7 5a 40 00 b7 5a 40 00 b7 5a 40 00 b7 5a 40 00     .Z@..Z@..Z@..Z@.
  4000cc:	b7 5a 40 00 00 00 00 00 b7 5a 40 00 00 00 00 00     .Z@......Z@.....
  4000dc:	b7 5a 40 00 35 04 40 00 b7 5a 40 00 b7 5a 40 00     .Z@.5.@..Z@..Z@.
  4000ec:	b7 5a 40 00 b7 5a 40 00 b7 5a 40 00 b7 5a 40 00     .Z@..Z@..Z@..Z@.
  4000fc:	b7 5a 40 00 b7 5a 40 00 b7 5a 40 00 b7 5a 40 00     .Z@..Z@..Z@..Z@.
  40010c:	b7 5a 40 00 b7 5a 40 00 00 00 00 00 00 00 00 00     .Z@..Z@.........
  40011c:	00 00 00 00 b7 5a 40 00 b7 5a 40 00 b7 5a 40 00     .....Z@..Z@..Z@.
  40012c:	b7 5a 40 00 b7 5a 40 00 00 00 00 00 b7 5a 40 00     .Z@..Z@......Z@.
  40013c:	b7 5a 40 00                                         .Z@.

00400140 <__do_global_dtors_aux>:
  400140:	b510      	push	{r4, lr}
  400142:	4c05      	ldr	r4, [pc, #20]	; (400158 <__do_global_dtors_aux+0x18>)
  400144:	7823      	ldrb	r3, [r4, #0]
  400146:	b933      	cbnz	r3, 400156 <__do_global_dtors_aux+0x16>
  400148:	4b04      	ldr	r3, [pc, #16]	; (40015c <__do_global_dtors_aux+0x1c>)
  40014a:	b113      	cbz	r3, 400152 <__do_global_dtors_aux+0x12>
  40014c:	4804      	ldr	r0, [pc, #16]	; (400160 <__do_global_dtors_aux+0x20>)
  40014e:	f3af 8000 	nop.w
  400152:	2301      	movs	r3, #1
  400154:	7023      	strb	r3, [r4, #0]
  400156:	bd10      	pop	{r4, pc}
  400158:	204009d8 	.word	0x204009d8
  40015c:	00000000 	.word	0x00000000
  400160:	0040e574 	.word	0x0040e574

00400164 <frame_dummy>:
  400164:	4b0c      	ldr	r3, [pc, #48]	; (400198 <frame_dummy+0x34>)
  400166:	b143      	cbz	r3, 40017a <frame_dummy+0x16>
  400168:	480c      	ldr	r0, [pc, #48]	; (40019c <frame_dummy+0x38>)
  40016a:	490d      	ldr	r1, [pc, #52]	; (4001a0 <frame_dummy+0x3c>)
  40016c:	b510      	push	{r4, lr}
  40016e:	f3af 8000 	nop.w
  400172:	480c      	ldr	r0, [pc, #48]	; (4001a4 <frame_dummy+0x40>)
  400174:	6803      	ldr	r3, [r0, #0]
  400176:	b923      	cbnz	r3, 400182 <frame_dummy+0x1e>
  400178:	bd10      	pop	{r4, pc}
  40017a:	480a      	ldr	r0, [pc, #40]	; (4001a4 <frame_dummy+0x40>)
  40017c:	6803      	ldr	r3, [r0, #0]
  40017e:	b933      	cbnz	r3, 40018e <frame_dummy+0x2a>
  400180:	4770      	bx	lr
  400182:	4b09      	ldr	r3, [pc, #36]	; (4001a8 <frame_dummy+0x44>)
  400184:	2b00      	cmp	r3, #0
  400186:	d0f7      	beq.n	400178 <frame_dummy+0x14>
  400188:	e8bd 4010 	ldmia.w	sp!, {r4, lr}
  40018c:	4718      	bx	r3
  40018e:	4b06      	ldr	r3, [pc, #24]	; (4001a8 <frame_dummy+0x44>)
  400190:	2b00      	cmp	r3, #0
  400192:	d0f5      	beq.n	400180 <frame_dummy+0x1c>
  400194:	4718      	bx	r3
  400196:	bf00      	nop
  400198:	00000000 	.word	0x00000000
  40019c:	0040e574 	.word	0x0040e574
  4001a0:	204009dc 	.word	0x204009dc
  4001a4:	0040e574 	.word	0x0040e574
  4001a8:	00000000 	.word	0x00000000

004001ac <afec_process_callback>:
  4001ac:	b570      	push	{r4, r5, r6, lr}
  4001ae:	b082      	sub	sp, #8
  4001b0:	6b02      	ldr	r2, [r0, #48]	; 0x30
  4001b2:	6ac3      	ldr	r3, [r0, #44]	; 0x2c
  4001b4:	4013      	ands	r3, r2
  4001b6:	9301      	str	r3, [sp, #4]
  4001b8:	2400      	movs	r4, #0
  4001ba:	4e1c      	ldr	r6, [pc, #112]	; (40022c <afec_process_callback+0x80>)
  4001bc:	4d1c      	ldr	r5, [pc, #112]	; (400230 <afec_process_callback+0x84>)
  4001be:	42a8      	cmp	r0, r5
  4001c0:	bf14      	ite	ne
  4001c2:	2000      	movne	r0, #0
  4001c4:	2001      	moveq	r0, #1
  4001c6:	0105      	lsls	r5, r0, #4
  4001c8:	e00b      	b.n	4001e2 <afec_process_callback+0x36>
  4001ca:	2c0e      	cmp	r4, #14
  4001cc:	d81e      	bhi.n	40020c <afec_process_callback+0x60>
  4001ce:	9a01      	ldr	r2, [sp, #4]
  4001d0:	f104 010c 	add.w	r1, r4, #12
  4001d4:	2301      	movs	r3, #1
  4001d6:	408b      	lsls	r3, r1
  4001d8:	4213      	tst	r3, r2
  4001da:	d110      	bne.n	4001fe <afec_process_callback+0x52>
  4001dc:	3401      	adds	r4, #1
  4001de:	2c10      	cmp	r4, #16
  4001e0:	d022      	beq.n	400228 <afec_process_callback+0x7c>
  4001e2:	2c0b      	cmp	r4, #11
  4001e4:	d8f1      	bhi.n	4001ca <afec_process_callback+0x1e>
  4001e6:	9a01      	ldr	r2, [sp, #4]
  4001e8:	2301      	movs	r3, #1
  4001ea:	40a3      	lsls	r3, r4
  4001ec:	4213      	tst	r3, r2
  4001ee:	d0f5      	beq.n	4001dc <afec_process_callback+0x30>
  4001f0:	192b      	adds	r3, r5, r4
  4001f2:	f856 3023 	ldr.w	r3, [r6, r3, lsl #2]
  4001f6:	2b00      	cmp	r3, #0
  4001f8:	d0f0      	beq.n	4001dc <afec_process_callback+0x30>
  4001fa:	4798      	blx	r3
  4001fc:	e7ee      	b.n	4001dc <afec_process_callback+0x30>
  4001fe:	192b      	adds	r3, r5, r4
  400200:	f856 3023 	ldr.w	r3, [r6, r3, lsl #2]
  400204:	2b00      	cmp	r3, #0
  400206:	d0e9      	beq.n	4001dc <afec_process_callback+0x30>
  400208:	4798      	blx	r3
  40020a:	e7e7      	b.n	4001dc <afec_process_callback+0x30>
  40020c:	9a01      	ldr	r2, [sp, #4]
  40020e:	f104 010f 	add.w	r1, r4, #15
  400212:	2301      	movs	r3, #1
  400214:	408b      	lsls	r3, r1
  400216:	4213      	tst	r3, r2
  400218:	d0e0      	beq.n	4001dc <afec_process_callback+0x30>
  40021a:	192b      	adds	r3, r5, r4
  40021c:	f856 3023 	ldr.w	r3, [r6, r3, lsl #2]
  400220:	2b00      	cmp	r3, #0
  400222:	d0db      	beq.n	4001dc <afec_process_callback+0x30>
  400224:	4798      	blx	r3
  400226:	e7d9      	b.n	4001dc <afec_process_callback+0x30>
  400228:	b002      	add	sp, #8
  40022a:	bd70      	pop	{r4, r5, r6, pc}
  40022c:	2040cd98 	.word	0x2040cd98
  400230:	40064000 	.word	0x40064000

00400234 <afec_ch_set_config>:
  400234:	b430      	push	{r4, r5}
  400236:	6e04      	ldr	r4, [r0, #96]	; 0x60
  400238:	2301      	movs	r3, #1
  40023a:	408b      	lsls	r3, r1
  40023c:	ea24 0403 	bic.w	r4, r4, r3
  400240:	7815      	ldrb	r5, [r2, #0]
  400242:	2d00      	cmp	r5, #0
  400244:	bf08      	it	eq
  400246:	2300      	moveq	r3, #0
  400248:	4323      	orrs	r3, r4
  40024a:	6603      	str	r3, [r0, #96]	; 0x60
  40024c:	6d44      	ldr	r4, [r0, #84]	; 0x54
  40024e:	004b      	lsls	r3, r1, #1
  400250:	2103      	movs	r1, #3
  400252:	4099      	lsls	r1, r3
  400254:	ea24 0401 	bic.w	r4, r4, r1
  400258:	7851      	ldrb	r1, [r2, #1]
  40025a:	4099      	lsls	r1, r3
  40025c:	4321      	orrs	r1, r4
  40025e:	6541      	str	r1, [r0, #84]	; 0x54
  400260:	bc30      	pop	{r4, r5}
  400262:	4770      	bx	lr

00400264 <afec_temp_sensor_set_config>:
  400264:	784b      	ldrb	r3, [r1, #1]
  400266:	780a      	ldrb	r2, [r1, #0]
  400268:	4313      	orrs	r3, r2
  40026a:	6703      	str	r3, [r0, #112]	; 0x70
  40026c:	888a      	ldrh	r2, [r1, #4]
  40026e:	884b      	ldrh	r3, [r1, #2]
  400270:	ea43 4302 	orr.w	r3, r3, r2, lsl #16
  400274:	6743      	str	r3, [r0, #116]	; 0x74
  400276:	4770      	bx	lr

00400278 <afec_get_config_defaults>:
  400278:	2200      	movs	r2, #0
  40027a:	6002      	str	r2, [r0, #0]
  40027c:	4b08      	ldr	r3, [pc, #32]	; (4002a0 <afec_get_config_defaults+0x28>)
  40027e:	6043      	str	r3, [r0, #4]
  400280:	4b08      	ldr	r3, [pc, #32]	; (4002a4 <afec_get_config_defaults+0x2c>)
  400282:	6083      	str	r3, [r0, #8]
  400284:	f44f 2380 	mov.w	r3, #262144	; 0x40000
  400288:	60c3      	str	r3, [r0, #12]
  40028a:	2302      	movs	r3, #2
  40028c:	7403      	strb	r3, [r0, #16]
  40028e:	2301      	movs	r3, #1
  400290:	7443      	strb	r3, [r0, #17]
  400292:	7483      	strb	r3, [r0, #18]
  400294:	74c2      	strb	r2, [r0, #19]
  400296:	7503      	strb	r3, [r0, #20]
  400298:	7543      	strb	r3, [r0, #21]
  40029a:	7583      	strb	r3, [r0, #22]
  40029c:	4770      	bx	lr
  40029e:	bf00      	nop
  4002a0:	11e1a300 	.word	0x11e1a300
  4002a4:	005b8d80 	.word	0x005b8d80

004002a8 <afec_ch_get_config_defaults>:
  4002a8:	2300      	movs	r3, #0
  4002aa:	7003      	strb	r3, [r0, #0]
  4002ac:	2301      	movs	r3, #1
  4002ae:	7043      	strb	r3, [r0, #1]
  4002b0:	4770      	bx	lr

004002b2 <afec_temp_sensor_get_config_defaults>:
  4002b2:	2300      	movs	r3, #0
  4002b4:	7003      	strb	r3, [r0, #0]
  4002b6:	2320      	movs	r3, #32
  4002b8:	7043      	strb	r3, [r0, #1]
  4002ba:	23ff      	movs	r3, #255	; 0xff
  4002bc:	8043      	strh	r3, [r0, #2]
  4002be:	f640 73ff 	movw	r3, #4095	; 0xfff
  4002c2:	8083      	strh	r3, [r0, #4]
  4002c4:	4770      	bx	lr
	...

004002c8 <afec_init>:
  4002c8:	6b02      	ldr	r2, [r0, #48]	; 0x30
  4002ca:	f012 7280 	ands.w	r2, r2, #16777216	; 0x1000000
  4002ce:	d001      	beq.n	4002d4 <afec_init+0xc>
  4002d0:	2019      	movs	r0, #25
  4002d2:	4770      	bx	lr
  4002d4:	b410      	push	{r4}
  4002d6:	2301      	movs	r3, #1
  4002d8:	6003      	str	r3, [r0, #0]
  4002da:	7ccb      	ldrb	r3, [r1, #19]
  4002dc:	2b00      	cmp	r3, #0
  4002de:	bf18      	it	ne
  4002e0:	f04f 4200 	movne.w	r2, #2147483648	; 0x80000000
  4002e4:	684b      	ldr	r3, [r1, #4]
  4002e6:	688c      	ldr	r4, [r1, #8]
  4002e8:	fbb3 f3f4 	udiv	r3, r3, r4
  4002ec:	3b01      	subs	r3, #1
  4002ee:	021b      	lsls	r3, r3, #8
  4002f0:	b29b      	uxth	r3, r3
  4002f2:	68cc      	ldr	r4, [r1, #12]
  4002f4:	f444 0400 	orr.w	r4, r4, #8388608	; 0x800000
  4002f8:	4323      	orrs	r3, r4
  4002fa:	7c0c      	ldrb	r4, [r1, #16]
  4002fc:	0624      	lsls	r4, r4, #24
  4002fe:	f004 6470 	and.w	r4, r4, #251658240	; 0xf000000
  400302:	4323      	orrs	r3, r4
  400304:	7c4c      	ldrb	r4, [r1, #17]
  400306:	0724      	lsls	r4, r4, #28
  400308:	f004 5440 	and.w	r4, r4, #805306368	; 0x30000000
  40030c:	4323      	orrs	r3, r4
  40030e:	4313      	orrs	r3, r2
  400310:	6043      	str	r3, [r0, #4]
  400312:	7d0b      	ldrb	r3, [r1, #20]
  400314:	2b00      	cmp	r3, #0
  400316:	bf14      	ite	ne
  400318:	f04f 7380 	movne.w	r3, #16777216	; 0x1000000
  40031c:	2300      	moveq	r3, #0
  40031e:	680a      	ldr	r2, [r1, #0]
  400320:	4313      	orrs	r3, r2
  400322:	7d4a      	ldrb	r2, [r1, #21]
  400324:	2a00      	cmp	r2, #0
  400326:	bf14      	ite	ne
  400328:	f04f 7200 	movne.w	r2, #33554432	; 0x2000000
  40032c:	2200      	moveq	r2, #0
  40032e:	4313      	orrs	r3, r2
  400330:	6083      	str	r3, [r0, #8]
  400332:	7d8b      	ldrb	r3, [r1, #22]
  400334:	021b      	lsls	r3, r3, #8
  400336:	f403 7340 	and.w	r3, r3, #768	; 0x300
  40033a:	f043 030c 	orr.w	r3, r3, #12
  40033e:	f8c0 3094 	str.w	r3, [r0, #148]	; 0x94
  400342:	4b0f      	ldr	r3, [pc, #60]	; (400380 <afec_init+0xb8>)
  400344:	4298      	cmp	r0, r3
  400346:	d006      	beq.n	400356 <afec_init+0x8e>
  400348:	4b0e      	ldr	r3, [pc, #56]	; (400384 <afec_init+0xbc>)
  40034a:	4298      	cmp	r0, r3
  40034c:	d00d      	beq.n	40036a <afec_init+0xa2>
  40034e:	2000      	movs	r0, #0
  400350:	f85d 4b04 	ldr.w	r4, [sp], #4
  400354:	4770      	bx	lr
  400356:	4b0c      	ldr	r3, [pc, #48]	; (400388 <afec_init+0xc0>)
  400358:	f103 0140 	add.w	r1, r3, #64	; 0x40
  40035c:	2200      	movs	r2, #0
  40035e:	f843 2f04 	str.w	r2, [r3, #4]!
  400362:	428b      	cmp	r3, r1
  400364:	d1fb      	bne.n	40035e <afec_init+0x96>
  400366:	2000      	movs	r0, #0
  400368:	e7f2      	b.n	400350 <afec_init+0x88>
  40036a:	4b08      	ldr	r3, [pc, #32]	; (40038c <afec_init+0xc4>)
  40036c:	f103 0140 	add.w	r1, r3, #64	; 0x40
  400370:	2200      	movs	r2, #0
  400372:	f843 2b04 	str.w	r2, [r3], #4
  400376:	428b      	cmp	r3, r1
  400378:	d1fb      	bne.n	400372 <afec_init+0xaa>
  40037a:	2000      	movs	r0, #0
  40037c:	e7e8      	b.n	400350 <afec_init+0x88>
  40037e:	bf00      	nop
  400380:	4003c000 	.word	0x4003c000
  400384:	40064000 	.word	0x40064000
  400388:	2040cd94 	.word	0x2040cd94
  40038c:	2040cdd8 	.word	0x2040cdd8

00400390 <afec_enable_interrupt>:
  400390:	4b0c      	ldr	r3, [pc, #48]	; (4003c4 <afec_enable_interrupt+0x34>)
  400392:	4299      	cmp	r1, r3
  400394:	d007      	beq.n	4003a6 <afec_enable_interrupt+0x16>
  400396:	290b      	cmp	r1, #11
  400398:	d80b      	bhi.n	4003b2 <afec_enable_interrupt+0x22>
  40039a:	d006      	beq.n	4003aa <afec_enable_interrupt+0x1a>
  40039c:	2301      	movs	r3, #1
  40039e:	fa03 f101 	lsl.w	r1, r3, r1
  4003a2:	6241      	str	r1, [r0, #36]	; 0x24
  4003a4:	4770      	bx	lr
  4003a6:	6243      	str	r3, [r0, #36]	; 0x24
  4003a8:	4770      	bx	lr
  4003aa:	f44f 6300 	mov.w	r3, #2048	; 0x800
  4003ae:	6243      	str	r3, [r0, #36]	; 0x24
  4003b0:	4770      	bx	lr
  4003b2:	290e      	cmp	r1, #14
  4003b4:	bf94      	ite	ls
  4003b6:	310c      	addls	r1, #12
  4003b8:	310f      	addhi	r1, #15
  4003ba:	2301      	movs	r3, #1
  4003bc:	fa03 f101 	lsl.w	r1, r3, r1
  4003c0:	6241      	str	r1, [r0, #36]	; 0x24
  4003c2:	4770      	bx	lr
  4003c4:	47000fff 	.word	0x47000fff

004003c8 <afec_set_callback>:
  4003c8:	b538      	push	{r3, r4, r5, lr}
  4003ca:	4c11      	ldr	r4, [pc, #68]	; (400410 <afec_set_callback+0x48>)
  4003cc:	42a0      	cmp	r0, r4
  4003ce:	bf0c      	ite	eq
  4003d0:	2410      	moveq	r4, #16
  4003d2:	2400      	movne	r4, #0
  4003d4:	440c      	add	r4, r1
  4003d6:	4d0f      	ldr	r5, [pc, #60]	; (400414 <afec_set_callback+0x4c>)
  4003d8:	f845 2024 	str.w	r2, [r5, r4, lsl #2]
  4003dc:	d10a      	bne.n	4003f4 <afec_set_callback+0x2c>
  4003de:	4a0e      	ldr	r2, [pc, #56]	; (400418 <afec_set_callback+0x50>)
  4003e0:	f44f 7480 	mov.w	r4, #256	; 0x100
  4003e4:	f8c2 4184 	str.w	r4, [r2, #388]	; 0x184
  4003e8:	015b      	lsls	r3, r3, #5
  4003ea:	b2db      	uxtb	r3, r3
  4003ec:	f882 3328 	strb.w	r3, [r2, #808]	; 0x328
  4003f0:	6054      	str	r4, [r2, #4]
  4003f2:	e009      	b.n	400408 <afec_set_callback+0x40>
  4003f4:	4a08      	ldr	r2, [pc, #32]	; (400418 <afec_set_callback+0x50>)
  4003f6:	f04f 5400 	mov.w	r4, #536870912	; 0x20000000
  4003fa:	f8c2 4180 	str.w	r4, [r2, #384]	; 0x180
  4003fe:	015b      	lsls	r3, r3, #5
  400400:	b2db      	uxtb	r3, r3
  400402:	f882 331d 	strb.w	r3, [r2, #797]	; 0x31d
  400406:	6014      	str	r4, [r2, #0]
  400408:	4b04      	ldr	r3, [pc, #16]	; (40041c <afec_set_callback+0x54>)
  40040a:	4798      	blx	r3
  40040c:	bd38      	pop	{r3, r4, r5, pc}
  40040e:	bf00      	nop
  400410:	40064000 	.word	0x40064000
  400414:	2040cd98 	.word	0x2040cd98
  400418:	e000e100 	.word	0xe000e100
  40041c:	00400391 	.word	0x00400391

00400420 <AFEC0_Handler>:
  400420:	b508      	push	{r3, lr}
  400422:	4802      	ldr	r0, [pc, #8]	; (40042c <AFEC0_Handler+0xc>)
  400424:	4b02      	ldr	r3, [pc, #8]	; (400430 <AFEC0_Handler+0x10>)
  400426:	4798      	blx	r3
  400428:	bd08      	pop	{r3, pc}
  40042a:	bf00      	nop
  40042c:	4003c000 	.word	0x4003c000
  400430:	004001ad 	.word	0x004001ad

00400434 <AFEC1_Handler>:
  400434:	b508      	push	{r3, lr}
  400436:	4802      	ldr	r0, [pc, #8]	; (400440 <AFEC1_Handler+0xc>)
  400438:	4b02      	ldr	r3, [pc, #8]	; (400444 <AFEC1_Handler+0x10>)
  40043a:	4798      	blx	r3
  40043c:	bd08      	pop	{r3, pc}
  40043e:	bf00      	nop
  400440:	40064000 	.word	0x40064000
  400444:	004001ad 	.word	0x004001ad

00400448 <afec_enable>:
  400448:	b500      	push	{lr}
  40044a:	b083      	sub	sp, #12
  40044c:	4b13      	ldr	r3, [pc, #76]	; (40049c <afec_enable+0x54>)
  40044e:	4298      	cmp	r0, r3
  400450:	bf0c      	ite	eq
  400452:	2028      	moveq	r0, #40	; 0x28
  400454:	201d      	movne	r0, #29
  400456:	4b12      	ldr	r3, [pc, #72]	; (4004a0 <afec_enable+0x58>)
  400458:	4798      	blx	r3
  40045a:	4b12      	ldr	r3, [pc, #72]	; (4004a4 <afec_enable+0x5c>)
  40045c:	789b      	ldrb	r3, [r3, #2]
  40045e:	2bff      	cmp	r3, #255	; 0xff
  400460:	d01a      	beq.n	400498 <afec_enable+0x50>
  400462:	f3ef 8310 	mrs	r3, PRIMASK
  400466:	fab3 f383 	clz	r3, r3
  40046a:	095b      	lsrs	r3, r3, #5
  40046c:	9301      	str	r3, [sp, #4]
  40046e:	b672      	cpsid	i
  400470:	f3bf 8f5f 	dmb	sy
  400474:	2200      	movs	r2, #0
  400476:	4b0c      	ldr	r3, [pc, #48]	; (4004a8 <afec_enable+0x60>)
  400478:	701a      	strb	r2, [r3, #0]
  40047a:	9901      	ldr	r1, [sp, #4]
  40047c:	4a09      	ldr	r2, [pc, #36]	; (4004a4 <afec_enable+0x5c>)
  40047e:	7893      	ldrb	r3, [r2, #2]
  400480:	3301      	adds	r3, #1
  400482:	7093      	strb	r3, [r2, #2]
  400484:	b129      	cbz	r1, 400492 <afec_enable+0x4a>
  400486:	2201      	movs	r2, #1
  400488:	4b07      	ldr	r3, [pc, #28]	; (4004a8 <afec_enable+0x60>)
  40048a:	701a      	strb	r2, [r3, #0]
  40048c:	f3bf 8f5f 	dmb	sy
  400490:	b662      	cpsie	i
  400492:	b003      	add	sp, #12
  400494:	f85d fb04 	ldr.w	pc, [sp], #4
  400498:	e7fe      	b.n	400498 <afec_enable+0x50>
  40049a:	bf00      	nop
  40049c:	40064000 	.word	0x40064000
  4004a0:	00405799 	.word	0x00405799
  4004a4:	2040cd90 	.word	0x2040cd90
  4004a8:	20400018 	.word	0x20400018

004004ac <rtc_set_hour_mode>:
  4004ac:	b921      	cbnz	r1, 4004b8 <rtc_set_hour_mode+0xc>
  4004ae:	6843      	ldr	r3, [r0, #4]
  4004b0:	f023 0301 	bic.w	r3, r3, #1
  4004b4:	6043      	str	r3, [r0, #4]
  4004b6:	4770      	bx	lr
  4004b8:	6843      	ldr	r3, [r0, #4]
  4004ba:	f043 0301 	orr.w	r3, r3, #1
  4004be:	6043      	str	r3, [r0, #4]
  4004c0:	4770      	bx	lr

004004c2 <rtc_get_time>:
  4004c2:	b430      	push	{r4, r5}
  4004c4:	6885      	ldr	r5, [r0, #8]
  4004c6:	6884      	ldr	r4, [r0, #8]
  4004c8:	42a5      	cmp	r5, r4
  4004ca:	d003      	beq.n	4004d4 <rtc_get_time+0x12>
  4004cc:	6885      	ldr	r5, [r0, #8]
  4004ce:	6884      	ldr	r4, [r0, #8]
  4004d0:	42ac      	cmp	r4, r5
  4004d2:	d1fb      	bne.n	4004cc <rtc_get_time+0xa>
  4004d4:	b161      	cbz	r1, 4004f0 <rtc_get_time+0x2e>
  4004d6:	f3c4 5001 	ubfx	r0, r4, #20, #2
  4004da:	eb00 0580 	add.w	r5, r0, r0, lsl #2
  4004de:	f3c4 4003 	ubfx	r0, r4, #16, #4
  4004e2:	eb00 0045 	add.w	r0, r0, r5, lsl #1
  4004e6:	f414 0f80 	tst.w	r4, #4194304	; 0x400000
  4004ea:	bf18      	it	ne
  4004ec:	300c      	addne	r0, #12
  4004ee:	6008      	str	r0, [r1, #0]
  4004f0:	b142      	cbz	r2, 400504 <rtc_get_time+0x42>
  4004f2:	f3c4 3102 	ubfx	r1, r4, #12, #3
  4004f6:	eb01 0181 	add.w	r1, r1, r1, lsl #2
  4004fa:	f3c4 2003 	ubfx	r0, r4, #8, #4
  4004fe:	eb00 0141 	add.w	r1, r0, r1, lsl #1
  400502:	6011      	str	r1, [r2, #0]
  400504:	b143      	cbz	r3, 400518 <rtc_get_time+0x56>
  400506:	f3c4 1202 	ubfx	r2, r4, #4, #3
  40050a:	eb02 0282 	add.w	r2, r2, r2, lsl #2
  40050e:	f004 040f 	and.w	r4, r4, #15
  400512:	eb04 0442 	add.w	r4, r4, r2, lsl #1
  400516:	601c      	str	r4, [r3, #0]
  400518:	bc30      	pop	{r4, r5}
  40051a:	4770      	bx	lr

0040051c <rtc_set_time>:
  40051c:	b4f0      	push	{r4, r5, r6, r7}
  40051e:	6844      	ldr	r4, [r0, #4]
  400520:	f014 0f01 	tst.w	r4, #1
  400524:	d005      	beq.n	400532 <rtc_set_time+0x16>
  400526:	290c      	cmp	r1, #12
  400528:	d903      	bls.n	400532 <rtc_set_time+0x16>
  40052a:	390c      	subs	r1, #12
  40052c:	f44f 0780 	mov.w	r7, #4194304	; 0x400000
  400530:	e000      	b.n	400534 <rtc_set_time+0x18>
  400532:	2700      	movs	r7, #0
  400534:	4c1c      	ldr	r4, [pc, #112]	; (4005a8 <rtc_set_time+0x8c>)
  400536:	fba4 5603 	umull	r5, r6, r4, r3
  40053a:	08f6      	lsrs	r6, r6, #3
  40053c:	eb06 0586 	add.w	r5, r6, r6, lsl #2
  400540:	eba3 0345 	sub.w	r3, r3, r5, lsl #1
  400544:	ea43 1306 	orr.w	r3, r3, r6, lsl #4
  400548:	fba4 6502 	umull	r6, r5, r4, r2
  40054c:	08ed      	lsrs	r5, r5, #3
  40054e:	ea43 3305 	orr.w	r3, r3, r5, lsl #12
  400552:	eb05 0585 	add.w	r5, r5, r5, lsl #2
  400556:	eba2 0545 	sub.w	r5, r2, r5, lsl #1
  40055a:	ea43 2305 	orr.w	r3, r3, r5, lsl #8
  40055e:	433b      	orrs	r3, r7
  400560:	fba4 4201 	umull	r4, r2, r4, r1
  400564:	08d2      	lsrs	r2, r2, #3
  400566:	ea43 5302 	orr.w	r3, r3, r2, lsl #20
  40056a:	eb02 0282 	add.w	r2, r2, r2, lsl #2
  40056e:	eba1 0142 	sub.w	r1, r1, r2, lsl #1
  400572:	ea43 4101 	orr.w	r1, r3, r1, lsl #16
  400576:	6983      	ldr	r3, [r0, #24]
  400578:	f013 0f04 	tst.w	r3, #4
  40057c:	d0fb      	beq.n	400576 <rtc_set_time+0x5a>
  40057e:	6803      	ldr	r3, [r0, #0]
  400580:	f043 0301 	orr.w	r3, r3, #1
  400584:	6003      	str	r3, [r0, #0]
  400586:	6983      	ldr	r3, [r0, #24]
  400588:	f013 0f01 	tst.w	r3, #1
  40058c:	d0fb      	beq.n	400586 <rtc_set_time+0x6a>
  40058e:	2301      	movs	r3, #1
  400590:	61c3      	str	r3, [r0, #28]
  400592:	6081      	str	r1, [r0, #8]
  400594:	6803      	ldr	r3, [r0, #0]
  400596:	f023 0301 	bic.w	r3, r3, #1
  40059a:	6003      	str	r3, [r0, #0]
  40059c:	6ac0      	ldr	r0, [r0, #44]	; 0x2c
  40059e:	f000 0001 	and.w	r0, r0, #1
  4005a2:	bcf0      	pop	{r4, r5, r6, r7}
  4005a4:	4770      	bx	lr
  4005a6:	bf00      	nop
  4005a8:	cccccccd 	.word	0xcccccccd

004005ac <rtc_get_date>:
  4005ac:	b4f0      	push	{r4, r5, r6, r7}
  4005ae:	9e04      	ldr	r6, [sp, #16]
  4005b0:	68c5      	ldr	r5, [r0, #12]
  4005b2:	68c4      	ldr	r4, [r0, #12]
  4005b4:	42a5      	cmp	r5, r4
  4005b6:	d003      	beq.n	4005c0 <rtc_get_date+0x14>
  4005b8:	68c5      	ldr	r5, [r0, #12]
  4005ba:	68c4      	ldr	r4, [r0, #12]
  4005bc:	42ac      	cmp	r4, r5
  4005be:	d1fb      	bne.n	4005b8 <rtc_get_date+0xc>
  4005c0:	b199      	cbz	r1, 4005ea <rtc_get_date+0x3e>
  4005c2:	f3c4 3003 	ubfx	r0, r4, #12, #4
  4005c6:	eb00 0080 	add.w	r0, r0, r0, lsl #2
  4005ca:	f3c4 2703 	ubfx	r7, r4, #8, #4
  4005ce:	eb07 0740 	add.w	r7, r7, r0, lsl #1
  4005d2:	f3c4 1002 	ubfx	r0, r4, #4, #3
  4005d6:	eb00 0580 	add.w	r5, r0, r0, lsl #2
  4005da:	f004 000f 	and.w	r0, r4, #15
  4005de:	eb00 0045 	add.w	r0, r0, r5, lsl #1
  4005e2:	2564      	movs	r5, #100	; 0x64
  4005e4:	fb05 7000 	mla	r0, r5, r0, r7
  4005e8:	6008      	str	r0, [r1, #0]
  4005ea:	b142      	cbz	r2, 4005fe <rtc_get_date+0x52>
  4005ec:	f3c4 5000 	ubfx	r0, r4, #20, #1
  4005f0:	0081      	lsls	r1, r0, #2
  4005f2:	4408      	add	r0, r1
  4005f4:	f3c4 4103 	ubfx	r1, r4, #16, #4
  4005f8:	eb01 0140 	add.w	r1, r1, r0, lsl #1
  4005fc:	6011      	str	r1, [r2, #0]
  4005fe:	b143      	cbz	r3, 400612 <rtc_get_date+0x66>
  400600:	f3c4 7201 	ubfx	r2, r4, #28, #2
  400604:	eb02 0282 	add.w	r2, r2, r2, lsl #2
  400608:	f3c4 6103 	ubfx	r1, r4, #24, #4
  40060c:	eb01 0242 	add.w	r2, r1, r2, lsl #1
  400610:	601a      	str	r2, [r3, #0]
  400612:	b116      	cbz	r6, 40061a <rtc_get_date+0x6e>
  400614:	f3c4 5442 	ubfx	r4, r4, #21, #3
  400618:	6034      	str	r4, [r6, #0]
  40061a:	bcf0      	pop	{r4, r5, r6, r7}
  40061c:	4770      	bx	lr
	...

00400620 <rtc_set_date>:
  400620:	b470      	push	{r4, r5, r6}
  400622:	4d2a      	ldr	r5, [pc, #168]	; (4006cc <rtc_set_date+0xac>)
  400624:	fba5 4603 	umull	r4, r6, r5, r3
  400628:	08f6      	lsrs	r6, r6, #3
  40062a:	9c03      	ldr	r4, [sp, #12]
  40062c:	0564      	lsls	r4, r4, #21
  40062e:	ea44 7406 	orr.w	r4, r4, r6, lsl #28
  400632:	eb06 0686 	add.w	r6, r6, r6, lsl #2
  400636:	eba3 0346 	sub.w	r3, r3, r6, lsl #1
  40063a:	ea44 6303 	orr.w	r3, r4, r3, lsl #24
  40063e:	fba5 6402 	umull	r6, r4, r5, r2
  400642:	08e4      	lsrs	r4, r4, #3
  400644:	ea43 5304 	orr.w	r3, r3, r4, lsl #20
  400648:	eb04 0484 	add.w	r4, r4, r4, lsl #2
  40064c:	eba2 0244 	sub.w	r2, r2, r4, lsl #1
  400650:	ea43 4202 	orr.w	r2, r3, r2, lsl #16
  400654:	4b1e      	ldr	r3, [pc, #120]	; (4006d0 <rtc_set_date+0xb0>)
  400656:	fba3 4301 	umull	r4, r3, r3, r1
  40065a:	099b      	lsrs	r3, r3, #6
  40065c:	ea42 1203 	orr.w	r2, r2, r3, lsl #4
  400660:	4b1c      	ldr	r3, [pc, #112]	; (4006d4 <rtc_set_date+0xb4>)
  400662:	fba3 4301 	umull	r4, r3, r3, r1
  400666:	095b      	lsrs	r3, r3, #5
  400668:	fba5 6403 	umull	r6, r4, r5, r3
  40066c:	08e4      	lsrs	r4, r4, #3
  40066e:	eb04 0484 	add.w	r4, r4, r4, lsl #2
  400672:	eba3 0344 	sub.w	r3, r3, r4, lsl #1
  400676:	431a      	orrs	r2, r3
  400678:	fba5 4301 	umull	r4, r3, r5, r1
  40067c:	08db      	lsrs	r3, r3, #3
  40067e:	eb03 0483 	add.w	r4, r3, r3, lsl #2
  400682:	eba1 0144 	sub.w	r1, r1, r4, lsl #1
  400686:	ea42 2201 	orr.w	r2, r2, r1, lsl #8
  40068a:	fba5 1503 	umull	r1, r5, r5, r3
  40068e:	08ed      	lsrs	r5, r5, #3
  400690:	eb05 0585 	add.w	r5, r5, r5, lsl #2
  400694:	eba3 0545 	sub.w	r5, r3, r5, lsl #1
  400698:	ea42 3205 	orr.w	r2, r2, r5, lsl #12
  40069c:	6983      	ldr	r3, [r0, #24]
  40069e:	f013 0f04 	tst.w	r3, #4
  4006a2:	d0fb      	beq.n	40069c <rtc_set_date+0x7c>
  4006a4:	6803      	ldr	r3, [r0, #0]
  4006a6:	f043 0302 	orr.w	r3, r3, #2
  4006aa:	6003      	str	r3, [r0, #0]
  4006ac:	6983      	ldr	r3, [r0, #24]
  4006ae:	f013 0f01 	tst.w	r3, #1
  4006b2:	d0fb      	beq.n	4006ac <rtc_set_date+0x8c>
  4006b4:	2301      	movs	r3, #1
  4006b6:	61c3      	str	r3, [r0, #28]
  4006b8:	60c2      	str	r2, [r0, #12]
  4006ba:	6803      	ldr	r3, [r0, #0]
  4006bc:	f023 0302 	bic.w	r3, r3, #2
  4006c0:	6003      	str	r3, [r0, #0]
  4006c2:	6ac0      	ldr	r0, [r0, #44]	; 0x2c
  4006c4:	f000 0002 	and.w	r0, r0, #2
  4006c8:	bc70      	pop	{r4, r5, r6}
  4006ca:	4770      	bx	lr
  4006cc:	cccccccd 	.word	0xcccccccd
  4006d0:	10624dd3 	.word	0x10624dd3
  4006d4:	51eb851f 	.word	0x51eb851f

004006d8 <rtc_get_status>:
  4006d8:	6980      	ldr	r0, [r0, #24]
  4006da:	4770      	bx	lr

004006dc <rtc_clear_status>:
  4006dc:	61c1      	str	r1, [r0, #28]
  4006de:	4770      	bx	lr

004006e0 <vListInitialise>:
  4006e0:	f100 0308 	add.w	r3, r0, #8
  4006e4:	6043      	str	r3, [r0, #4]
  4006e6:	f04f 32ff 	mov.w	r2, #4294967295
  4006ea:	6082      	str	r2, [r0, #8]
  4006ec:	60c3      	str	r3, [r0, #12]
  4006ee:	6103      	str	r3, [r0, #16]
  4006f0:	2300      	movs	r3, #0
  4006f2:	6003      	str	r3, [r0, #0]
  4006f4:	4770      	bx	lr

004006f6 <vListInitialiseItem>:
  4006f6:	2300      	movs	r3, #0
  4006f8:	6103      	str	r3, [r0, #16]
  4006fa:	4770      	bx	lr

004006fc <vListInsertEnd>:
  4006fc:	6843      	ldr	r3, [r0, #4]
  4006fe:	604b      	str	r3, [r1, #4]
  400700:	689a      	ldr	r2, [r3, #8]
  400702:	608a      	str	r2, [r1, #8]
  400704:	689a      	ldr	r2, [r3, #8]
  400706:	6051      	str	r1, [r2, #4]
  400708:	6099      	str	r1, [r3, #8]
  40070a:	6108      	str	r0, [r1, #16]
  40070c:	6803      	ldr	r3, [r0, #0]
  40070e:	3301      	adds	r3, #1
  400710:	6003      	str	r3, [r0, #0]
  400712:	4770      	bx	lr

00400714 <vListInsert>:
  400714:	b430      	push	{r4, r5}
  400716:	680d      	ldr	r5, [r1, #0]
  400718:	f1b5 3fff 	cmp.w	r5, #4294967295
  40071c:	d002      	beq.n	400724 <vListInsert+0x10>
  40071e:	f100 0208 	add.w	r2, r0, #8
  400722:	e002      	b.n	40072a <vListInsert+0x16>
  400724:	6902      	ldr	r2, [r0, #16]
  400726:	e004      	b.n	400732 <vListInsert+0x1e>
  400728:	461a      	mov	r2, r3
  40072a:	6853      	ldr	r3, [r2, #4]
  40072c:	681c      	ldr	r4, [r3, #0]
  40072e:	42a5      	cmp	r5, r4
  400730:	d2fa      	bcs.n	400728 <vListInsert+0x14>
  400732:	6853      	ldr	r3, [r2, #4]
  400734:	604b      	str	r3, [r1, #4]
  400736:	6099      	str	r1, [r3, #8]
  400738:	608a      	str	r2, [r1, #8]
  40073a:	6051      	str	r1, [r2, #4]
  40073c:	6108      	str	r0, [r1, #16]
  40073e:	6803      	ldr	r3, [r0, #0]
  400740:	3301      	adds	r3, #1
  400742:	6003      	str	r3, [r0, #0]
  400744:	bc30      	pop	{r4, r5}
  400746:	4770      	bx	lr

00400748 <uxListRemove>:
  400748:	6903      	ldr	r3, [r0, #16]
  40074a:	6842      	ldr	r2, [r0, #4]
  40074c:	6881      	ldr	r1, [r0, #8]
  40074e:	6091      	str	r1, [r2, #8]
  400750:	6882      	ldr	r2, [r0, #8]
  400752:	6841      	ldr	r1, [r0, #4]
  400754:	6051      	str	r1, [r2, #4]
  400756:	685a      	ldr	r2, [r3, #4]
  400758:	4290      	cmp	r0, r2
  40075a:	d005      	beq.n	400768 <uxListRemove+0x20>
  40075c:	2200      	movs	r2, #0
  40075e:	6102      	str	r2, [r0, #16]
  400760:	6818      	ldr	r0, [r3, #0]
  400762:	3801      	subs	r0, #1
  400764:	6018      	str	r0, [r3, #0]
  400766:	4770      	bx	lr
  400768:	6882      	ldr	r2, [r0, #8]
  40076a:	605a      	str	r2, [r3, #4]
  40076c:	e7f6      	b.n	40075c <uxListRemove+0x14>
	...

00400770 <prvTaskExitError>:
  400770:	4b0d      	ldr	r3, [pc, #52]	; (4007a8 <prvTaskExitError+0x38>)
  400772:	681b      	ldr	r3, [r3, #0]
  400774:	f1b3 3fff 	cmp.w	r3, #4294967295
  400778:	d00a      	beq.n	400790 <prvTaskExitError+0x20>
  40077a:	f04f 0380 	mov.w	r3, #128	; 0x80
  40077e:	b672      	cpsid	i
  400780:	f383 8811 	msr	BASEPRI, r3
  400784:	f3bf 8f6f 	isb	sy
  400788:	f3bf 8f4f 	dsb	sy
  40078c:	b662      	cpsie	i
  40078e:	e7fe      	b.n	40078e <prvTaskExitError+0x1e>
  400790:	f04f 0380 	mov.w	r3, #128	; 0x80
  400794:	b672      	cpsid	i
  400796:	f383 8811 	msr	BASEPRI, r3
  40079a:	f3bf 8f6f 	isb	sy
  40079e:	f3bf 8f4f 	dsb	sy
  4007a2:	b662      	cpsie	i
  4007a4:	e7fe      	b.n	4007a4 <prvTaskExitError+0x34>
  4007a6:	bf00      	nop
  4007a8:	2040000c 	.word	0x2040000c

004007ac <prvPortStartFirstTask>:
  4007ac:	4806      	ldr	r0, [pc, #24]	; (4007c8 <prvPortStartFirstTask+0x1c>)
  4007ae:	6800      	ldr	r0, [r0, #0]
  4007b0:	6800      	ldr	r0, [r0, #0]
  4007b2:	f380 8808 	msr	MSP, r0
  4007b6:	b662      	cpsie	i
  4007b8:	b661      	cpsie	f
  4007ba:	f3bf 8f4f 	dsb	sy
  4007be:	f3bf 8f6f 	isb	sy
  4007c2:	df00      	svc	0
  4007c4:	bf00      	nop
  4007c6:	0000      	.short	0x0000
  4007c8:	e000ed08 	.word	0xe000ed08

004007cc <vPortEnableVFP>:
  4007cc:	f8df 000c 	ldr.w	r0, [pc, #12]	; 4007dc <vPortEnableVFP+0x10>
  4007d0:	6801      	ldr	r1, [r0, #0]
  4007d2:	f441 0170 	orr.w	r1, r1, #15728640	; 0xf00000
  4007d6:	6001      	str	r1, [r0, #0]
  4007d8:	4770      	bx	lr
  4007da:	0000      	.short	0x0000
  4007dc:	e000ed88 	.word	0xe000ed88

004007e0 <pxPortInitialiseStack>:
  4007e0:	f04f 7380 	mov.w	r3, #16777216	; 0x1000000
  4007e4:	f840 3c04 	str.w	r3, [r0, #-4]
  4007e8:	f840 1c08 	str.w	r1, [r0, #-8]
  4007ec:	4b05      	ldr	r3, [pc, #20]	; (400804 <pxPortInitialiseStack+0x24>)
  4007ee:	f840 3c0c 	str.w	r3, [r0, #-12]
  4007f2:	f840 2c20 	str.w	r2, [r0, #-32]
  4007f6:	f06f 0302 	mvn.w	r3, #2
  4007fa:	f840 3c24 	str.w	r3, [r0, #-36]
  4007fe:	3844      	subs	r0, #68	; 0x44
  400800:	4770      	bx	lr
  400802:	bf00      	nop
  400804:	00400771 	.word	0x00400771

00400808 <SVC_Handler>:
  400808:	4b06      	ldr	r3, [pc, #24]	; (400824 <pxCurrentTCBConst2>)
  40080a:	6819      	ldr	r1, [r3, #0]
  40080c:	6808      	ldr	r0, [r1, #0]
  40080e:	e8b0 4ff0 	ldmia.w	r0!, {r4, r5, r6, r7, r8, r9, sl, fp, lr}
  400812:	f380 8809 	msr	PSP, r0
  400816:	f3bf 8f6f 	isb	sy
  40081a:	f04f 0000 	mov.w	r0, #0
  40081e:	f380 8811 	msr	BASEPRI, r0
  400822:	4770      	bx	lr

00400824 <pxCurrentTCBConst2>:
  400824:	2040c204 	.word	0x2040c204
  400828:	4770      	bx	lr
  40082a:	bf00      	nop

0040082c <vPortEnterCritical>:
  40082c:	f04f 0380 	mov.w	r3, #128	; 0x80
  400830:	b672      	cpsid	i
  400832:	f383 8811 	msr	BASEPRI, r3
  400836:	f3bf 8f6f 	isb	sy
  40083a:	f3bf 8f4f 	dsb	sy
  40083e:	b662      	cpsie	i
  400840:	4a0b      	ldr	r2, [pc, #44]	; (400870 <vPortEnterCritical+0x44>)
  400842:	6813      	ldr	r3, [r2, #0]
  400844:	3301      	adds	r3, #1
  400846:	6013      	str	r3, [r2, #0]
  400848:	2b01      	cmp	r3, #1
  40084a:	d10f      	bne.n	40086c <vPortEnterCritical+0x40>
  40084c:	4b09      	ldr	r3, [pc, #36]	; (400874 <vPortEnterCritical+0x48>)
  40084e:	681b      	ldr	r3, [r3, #0]
  400850:	f013 0fff 	tst.w	r3, #255	; 0xff
  400854:	d00a      	beq.n	40086c <vPortEnterCritical+0x40>
  400856:	f04f 0380 	mov.w	r3, #128	; 0x80
  40085a:	b672      	cpsid	i
  40085c:	f383 8811 	msr	BASEPRI, r3
  400860:	f3bf 8f6f 	isb	sy
  400864:	f3bf 8f4f 	dsb	sy
  400868:	b662      	cpsie	i
  40086a:	e7fe      	b.n	40086a <vPortEnterCritical+0x3e>
  40086c:	4770      	bx	lr
  40086e:	bf00      	nop
  400870:	2040000c 	.word	0x2040000c
  400874:	e000ed04 	.word	0xe000ed04

00400878 <vPortExitCritical>:
  400878:	4b0a      	ldr	r3, [pc, #40]	; (4008a4 <vPortExitCritical+0x2c>)
  40087a:	681b      	ldr	r3, [r3, #0]
  40087c:	b953      	cbnz	r3, 400894 <vPortExitCritical+0x1c>
  40087e:	f04f 0380 	mov.w	r3, #128	; 0x80
  400882:	b672      	cpsid	i
  400884:	f383 8811 	msr	BASEPRI, r3
  400888:	f3bf 8f6f 	isb	sy
  40088c:	f3bf 8f4f 	dsb	sy
  400890:	b662      	cpsie	i
  400892:	e7fe      	b.n	400892 <vPortExitCritical+0x1a>
  400894:	3b01      	subs	r3, #1
  400896:	4a03      	ldr	r2, [pc, #12]	; (4008a4 <vPortExitCritical+0x2c>)
  400898:	6013      	str	r3, [r2, #0]
  40089a:	b90b      	cbnz	r3, 4008a0 <vPortExitCritical+0x28>
  40089c:	f383 8811 	msr	BASEPRI, r3
  4008a0:	4770      	bx	lr
  4008a2:	bf00      	nop
  4008a4:	2040000c 	.word	0x2040000c

004008a8 <PendSV_Handler>:
  4008a8:	f3ef 8009 	mrs	r0, PSP
  4008ac:	f3bf 8f6f 	isb	sy
  4008b0:	4b15      	ldr	r3, [pc, #84]	; (400908 <pxCurrentTCBConst>)
  4008b2:	681a      	ldr	r2, [r3, #0]
  4008b4:	f01e 0f10 	tst.w	lr, #16
  4008b8:	bf08      	it	eq
  4008ba:	ed20 8a10 	vstmdbeq	r0!, {s16-s31}
  4008be:	e920 4ff0 	stmdb	r0!, {r4, r5, r6, r7, r8, r9, sl, fp, lr}
  4008c2:	6010      	str	r0, [r2, #0]
  4008c4:	f84d 3d04 	str.w	r3, [sp, #-4]!
  4008c8:	f04f 0080 	mov.w	r0, #128	; 0x80
  4008cc:	b672      	cpsid	i
  4008ce:	f380 8811 	msr	BASEPRI, r0
  4008d2:	f3bf 8f4f 	dsb	sy
  4008d6:	f3bf 8f6f 	isb	sy
  4008da:	b662      	cpsie	i
  4008dc:	f001 f91a 	bl	401b14 <vTaskSwitchContext>
  4008e0:	f04f 0000 	mov.w	r0, #0
  4008e4:	f380 8811 	msr	BASEPRI, r0
  4008e8:	bc08      	pop	{r3}
  4008ea:	6819      	ldr	r1, [r3, #0]
  4008ec:	6808      	ldr	r0, [r1, #0]
  4008ee:	e8b0 4ff0 	ldmia.w	r0!, {r4, r5, r6, r7, r8, r9, sl, fp, lr}
  4008f2:	f01e 0f10 	tst.w	lr, #16
  4008f6:	bf08      	it	eq
  4008f8:	ecb0 8a10 	vldmiaeq	r0!, {s16-s31}
  4008fc:	f380 8809 	msr	PSP, r0
  400900:	f3bf 8f6f 	isb	sy
  400904:	4770      	bx	lr
  400906:	bf00      	nop

00400908 <pxCurrentTCBConst>:
  400908:	2040c204 	.word	0x2040c204
  40090c:	4770      	bx	lr
  40090e:	bf00      	nop

00400910 <SysTick_Handler>:
  400910:	b508      	push	{r3, lr}
  400912:	f3ef 8311 	mrs	r3, BASEPRI
  400916:	f04f 0280 	mov.w	r2, #128	; 0x80
  40091a:	b672      	cpsid	i
  40091c:	f382 8811 	msr	BASEPRI, r2
  400920:	f3bf 8f6f 	isb	sy
  400924:	f3bf 8f4f 	dsb	sy
  400928:	b662      	cpsie	i
  40092a:	4b05      	ldr	r3, [pc, #20]	; (400940 <SysTick_Handler+0x30>)
  40092c:	4798      	blx	r3
  40092e:	b118      	cbz	r0, 400938 <SysTick_Handler+0x28>
  400930:	f04f 5280 	mov.w	r2, #268435456	; 0x10000000
  400934:	4b03      	ldr	r3, [pc, #12]	; (400944 <SysTick_Handler+0x34>)
  400936:	601a      	str	r2, [r3, #0]
  400938:	2300      	movs	r3, #0
  40093a:	f383 8811 	msr	BASEPRI, r3
  40093e:	bd08      	pop	{r3, pc}
  400940:	00401781 	.word	0x00401781
  400944:	e000ed04 	.word	0xe000ed04

00400948 <vPortSetupTimerInterrupt>:
  400948:	4a03      	ldr	r2, [pc, #12]	; (400958 <vPortSetupTimerInterrupt+0x10>)
  40094a:	4b04      	ldr	r3, [pc, #16]	; (40095c <vPortSetupTimerInterrupt+0x14>)
  40094c:	601a      	str	r2, [r3, #0]
  40094e:	2207      	movs	r2, #7
  400950:	3b04      	subs	r3, #4
  400952:	601a      	str	r2, [r3, #0]
  400954:	4770      	bx	lr
  400956:	bf00      	nop
  400958:	000927bf 	.word	0x000927bf
  40095c:	e000e014 	.word	0xe000e014

00400960 <xPortStartScheduler>:
  400960:	b500      	push	{lr}
  400962:	b083      	sub	sp, #12
  400964:	4b25      	ldr	r3, [pc, #148]	; (4009fc <xPortStartScheduler+0x9c>)
  400966:	781a      	ldrb	r2, [r3, #0]
  400968:	b2d2      	uxtb	r2, r2
  40096a:	9201      	str	r2, [sp, #4]
  40096c:	22ff      	movs	r2, #255	; 0xff
  40096e:	701a      	strb	r2, [r3, #0]
  400970:	781b      	ldrb	r3, [r3, #0]
  400972:	b2db      	uxtb	r3, r3
  400974:	f88d 3003 	strb.w	r3, [sp, #3]
  400978:	f89d 3003 	ldrb.w	r3, [sp, #3]
  40097c:	f003 0380 	and.w	r3, r3, #128	; 0x80
  400980:	4a1f      	ldr	r2, [pc, #124]	; (400a00 <xPortStartScheduler+0xa0>)
  400982:	7013      	strb	r3, [r2, #0]
  400984:	2207      	movs	r2, #7
  400986:	4b1f      	ldr	r3, [pc, #124]	; (400a04 <xPortStartScheduler+0xa4>)
  400988:	601a      	str	r2, [r3, #0]
  40098a:	f89d 3003 	ldrb.w	r3, [sp, #3]
  40098e:	f013 0f80 	tst.w	r3, #128	; 0x80
  400992:	d010      	beq.n	4009b6 <xPortStartScheduler+0x56>
  400994:	2206      	movs	r2, #6
  400996:	e000      	b.n	40099a <xPortStartScheduler+0x3a>
  400998:	460a      	mov	r2, r1
  40099a:	f89d 3003 	ldrb.w	r3, [sp, #3]
  40099e:	005b      	lsls	r3, r3, #1
  4009a0:	b2db      	uxtb	r3, r3
  4009a2:	f88d 3003 	strb.w	r3, [sp, #3]
  4009a6:	f89d 3003 	ldrb.w	r3, [sp, #3]
  4009aa:	1e51      	subs	r1, r2, #1
  4009ac:	f013 0f80 	tst.w	r3, #128	; 0x80
  4009b0:	d1f2      	bne.n	400998 <xPortStartScheduler+0x38>
  4009b2:	4b14      	ldr	r3, [pc, #80]	; (400a04 <xPortStartScheduler+0xa4>)
  4009b4:	601a      	str	r2, [r3, #0]
  4009b6:	4a13      	ldr	r2, [pc, #76]	; (400a04 <xPortStartScheduler+0xa4>)
  4009b8:	6813      	ldr	r3, [r2, #0]
  4009ba:	021b      	lsls	r3, r3, #8
  4009bc:	f403 63e0 	and.w	r3, r3, #1792	; 0x700
  4009c0:	6013      	str	r3, [r2, #0]
  4009c2:	9b01      	ldr	r3, [sp, #4]
  4009c4:	b2db      	uxtb	r3, r3
  4009c6:	4a0d      	ldr	r2, [pc, #52]	; (4009fc <xPortStartScheduler+0x9c>)
  4009c8:	7013      	strb	r3, [r2, #0]
  4009ca:	4b0f      	ldr	r3, [pc, #60]	; (400a08 <xPortStartScheduler+0xa8>)
  4009cc:	681a      	ldr	r2, [r3, #0]
  4009ce:	f442 0260 	orr.w	r2, r2, #14680064	; 0xe00000
  4009d2:	601a      	str	r2, [r3, #0]
  4009d4:	681a      	ldr	r2, [r3, #0]
  4009d6:	f042 4260 	orr.w	r2, r2, #3758096384	; 0xe0000000
  4009da:	601a      	str	r2, [r3, #0]
  4009dc:	4b0b      	ldr	r3, [pc, #44]	; (400a0c <xPortStartScheduler+0xac>)
  4009de:	4798      	blx	r3
  4009e0:	2200      	movs	r2, #0
  4009e2:	4b0b      	ldr	r3, [pc, #44]	; (400a10 <xPortStartScheduler+0xb0>)
  4009e4:	601a      	str	r2, [r3, #0]
  4009e6:	4b0b      	ldr	r3, [pc, #44]	; (400a14 <xPortStartScheduler+0xb4>)
  4009e8:	4798      	blx	r3
  4009ea:	4a0b      	ldr	r2, [pc, #44]	; (400a18 <xPortStartScheduler+0xb8>)
  4009ec:	6813      	ldr	r3, [r2, #0]
  4009ee:	f043 4340 	orr.w	r3, r3, #3221225472	; 0xc0000000
  4009f2:	6013      	str	r3, [r2, #0]
  4009f4:	4b09      	ldr	r3, [pc, #36]	; (400a1c <xPortStartScheduler+0xbc>)
  4009f6:	4798      	blx	r3
  4009f8:	4b09      	ldr	r3, [pc, #36]	; (400a20 <xPortStartScheduler+0xc0>)
  4009fa:	4798      	blx	r3
  4009fc:	e000e400 	.word	0xe000e400
  400a00:	204009f4 	.word	0x204009f4
  400a04:	204009f8 	.word	0x204009f8
  400a08:	e000ed20 	.word	0xe000ed20
  400a0c:	00400949 	.word	0x00400949
  400a10:	2040000c 	.word	0x2040000c
  400a14:	004007cd 	.word	0x004007cd
  400a18:	e000ef34 	.word	0xe000ef34
  400a1c:	004007ad 	.word	0x004007ad
  400a20:	00400771 	.word	0x00400771

00400a24 <vPortValidateInterruptPriority>:
  400a24:	f3ef 8305 	mrs	r3, IPSR
  400a28:	2b0f      	cmp	r3, #15
  400a2a:	d911      	bls.n	400a50 <vPortValidateInterruptPriority+0x2c>
  400a2c:	4a12      	ldr	r2, [pc, #72]	; (400a78 <vPortValidateInterruptPriority+0x54>)
  400a2e:	5c9b      	ldrb	r3, [r3, r2]
  400a30:	b2db      	uxtb	r3, r3
  400a32:	4a12      	ldr	r2, [pc, #72]	; (400a7c <vPortValidateInterruptPriority+0x58>)
  400a34:	7812      	ldrb	r2, [r2, #0]
  400a36:	429a      	cmp	r2, r3
  400a38:	d90a      	bls.n	400a50 <vPortValidateInterruptPriority+0x2c>
  400a3a:	f04f 0380 	mov.w	r3, #128	; 0x80
  400a3e:	b672      	cpsid	i
  400a40:	f383 8811 	msr	BASEPRI, r3
  400a44:	f3bf 8f6f 	isb	sy
  400a48:	f3bf 8f4f 	dsb	sy
  400a4c:	b662      	cpsie	i
  400a4e:	e7fe      	b.n	400a4e <vPortValidateInterruptPriority+0x2a>
  400a50:	4b0b      	ldr	r3, [pc, #44]	; (400a80 <vPortValidateInterruptPriority+0x5c>)
  400a52:	681b      	ldr	r3, [r3, #0]
  400a54:	f403 63e0 	and.w	r3, r3, #1792	; 0x700
  400a58:	4a0a      	ldr	r2, [pc, #40]	; (400a84 <vPortValidateInterruptPriority+0x60>)
  400a5a:	6812      	ldr	r2, [r2, #0]
  400a5c:	4293      	cmp	r3, r2
  400a5e:	d90a      	bls.n	400a76 <vPortValidateInterruptPriority+0x52>
  400a60:	f04f 0380 	mov.w	r3, #128	; 0x80
  400a64:	b672      	cpsid	i
  400a66:	f383 8811 	msr	BASEPRI, r3
  400a6a:	f3bf 8f6f 	isb	sy
  400a6e:	f3bf 8f4f 	dsb	sy
  400a72:	b662      	cpsie	i
  400a74:	e7fe      	b.n	400a74 <vPortValidateInterruptPriority+0x50>
  400a76:	4770      	bx	lr
  400a78:	e000e3f0 	.word	0xe000e3f0
  400a7c:	204009f4 	.word	0x204009f4
  400a80:	e000ed0c 	.word	0xe000ed0c
  400a84:	204009f8 	.word	0x204009f8

00400a88 <pvPortMalloc>:
  400a88:	b538      	push	{r3, r4, r5, lr}
  400a8a:	4604      	mov	r4, r0
  400a8c:	f010 0f07 	tst.w	r0, #7
  400a90:	d002      	beq.n	400a98 <pvPortMalloc+0x10>
  400a92:	f020 0407 	bic.w	r4, r0, #7
  400a96:	3408      	adds	r4, #8
  400a98:	4b11      	ldr	r3, [pc, #68]	; (400ae0 <pvPortMalloc+0x58>)
  400a9a:	4798      	blx	r3
  400a9c:	4b11      	ldr	r3, [pc, #68]	; (400ae4 <pvPortMalloc+0x5c>)
  400a9e:	681b      	ldr	r3, [r3, #0]
  400aa0:	b193      	cbz	r3, 400ac8 <pvPortMalloc+0x40>
  400aa2:	4b11      	ldr	r3, [pc, #68]	; (400ae8 <pvPortMalloc+0x60>)
  400aa4:	681b      	ldr	r3, [r3, #0]
  400aa6:	441c      	add	r4, r3
  400aa8:	42a3      	cmp	r3, r4
  400aaa:	d213      	bcs.n	400ad4 <pvPortMalloc+0x4c>
  400aac:	f24b 72f7 	movw	r2, #47095	; 0xb7f7
  400ab0:	4294      	cmp	r4, r2
  400ab2:	d80f      	bhi.n	400ad4 <pvPortMalloc+0x4c>
  400ab4:	4a0b      	ldr	r2, [pc, #44]	; (400ae4 <pvPortMalloc+0x5c>)
  400ab6:	6815      	ldr	r5, [r2, #0]
  400ab8:	441d      	add	r5, r3
  400aba:	4b0b      	ldr	r3, [pc, #44]	; (400ae8 <pvPortMalloc+0x60>)
  400abc:	601c      	str	r4, [r3, #0]
  400abe:	4b0b      	ldr	r3, [pc, #44]	; (400aec <pvPortMalloc+0x64>)
  400ac0:	4798      	blx	r3
  400ac2:	b14d      	cbz	r5, 400ad8 <pvPortMalloc+0x50>
  400ac4:	4628      	mov	r0, r5
  400ac6:	bd38      	pop	{r3, r4, r5, pc}
  400ac8:	4b09      	ldr	r3, [pc, #36]	; (400af0 <pvPortMalloc+0x68>)
  400aca:	f023 0307 	bic.w	r3, r3, #7
  400ace:	4a05      	ldr	r2, [pc, #20]	; (400ae4 <pvPortMalloc+0x5c>)
  400ad0:	6013      	str	r3, [r2, #0]
  400ad2:	e7e6      	b.n	400aa2 <pvPortMalloc+0x1a>
  400ad4:	4b05      	ldr	r3, [pc, #20]	; (400aec <pvPortMalloc+0x64>)
  400ad6:	4798      	blx	r3
  400ad8:	4b06      	ldr	r3, [pc, #24]	; (400af4 <pvPortMalloc+0x6c>)
  400ada:	4798      	blx	r3
  400adc:	2500      	movs	r5, #0
  400ade:	e7f1      	b.n	400ac4 <pvPortMalloc+0x3c>
  400ae0:	00401765 	.word	0x00401765
  400ae4:	204009fc 	.word	0x204009fc
  400ae8:	2040c200 	.word	0x2040c200
  400aec:	004018cd 	.word	0x004018cd
  400af0:	20400a08 	.word	0x20400a08
  400af4:	00406347 	.word	0x00406347

00400af8 <vPortFree>:
  400af8:	b150      	cbz	r0, 400b10 <vPortFree+0x18>
  400afa:	f04f 0380 	mov.w	r3, #128	; 0x80
  400afe:	b672      	cpsid	i
  400b00:	f383 8811 	msr	BASEPRI, r3
  400b04:	f3bf 8f6f 	isb	sy
  400b08:	f3bf 8f4f 	dsb	sy
  400b0c:	b662      	cpsie	i
  400b0e:	e7fe      	b.n	400b0e <vPortFree+0x16>
  400b10:	4770      	bx	lr
	...

00400b14 <prvCopyDataToQueue>:
  400b14:	b538      	push	{r3, r4, r5, lr}
  400b16:	4604      	mov	r4, r0
  400b18:	4615      	mov	r5, r2
  400b1a:	6c02      	ldr	r2, [r0, #64]	; 0x40
  400b1c:	b95a      	cbnz	r2, 400b36 <prvCopyDataToQueue+0x22>
  400b1e:	6803      	ldr	r3, [r0, #0]
  400b20:	2b00      	cmp	r3, #0
  400b22:	d12e      	bne.n	400b82 <prvCopyDataToQueue+0x6e>
  400b24:	6840      	ldr	r0, [r0, #4]
  400b26:	4b1b      	ldr	r3, [pc, #108]	; (400b94 <prvCopyDataToQueue+0x80>)
  400b28:	4798      	blx	r3
  400b2a:	2300      	movs	r3, #0
  400b2c:	6063      	str	r3, [r4, #4]
  400b2e:	6ba3      	ldr	r3, [r4, #56]	; 0x38
  400b30:	3301      	adds	r3, #1
  400b32:	63a3      	str	r3, [r4, #56]	; 0x38
  400b34:	bd38      	pop	{r3, r4, r5, pc}
  400b36:	b96d      	cbnz	r5, 400b54 <prvCopyDataToQueue+0x40>
  400b38:	6880      	ldr	r0, [r0, #8]
  400b3a:	4b17      	ldr	r3, [pc, #92]	; (400b98 <prvCopyDataToQueue+0x84>)
  400b3c:	4798      	blx	r3
  400b3e:	68a3      	ldr	r3, [r4, #8]
  400b40:	6c22      	ldr	r2, [r4, #64]	; 0x40
  400b42:	4413      	add	r3, r2
  400b44:	60a3      	str	r3, [r4, #8]
  400b46:	6862      	ldr	r2, [r4, #4]
  400b48:	4293      	cmp	r3, r2
  400b4a:	d31c      	bcc.n	400b86 <prvCopyDataToQueue+0x72>
  400b4c:	6823      	ldr	r3, [r4, #0]
  400b4e:	60a3      	str	r3, [r4, #8]
  400b50:	2000      	movs	r0, #0
  400b52:	e7ec      	b.n	400b2e <prvCopyDataToQueue+0x1a>
  400b54:	68c0      	ldr	r0, [r0, #12]
  400b56:	4b10      	ldr	r3, [pc, #64]	; (400b98 <prvCopyDataToQueue+0x84>)
  400b58:	4798      	blx	r3
  400b5a:	6c23      	ldr	r3, [r4, #64]	; 0x40
  400b5c:	425b      	negs	r3, r3
  400b5e:	68e2      	ldr	r2, [r4, #12]
  400b60:	441a      	add	r2, r3
  400b62:	60e2      	str	r2, [r4, #12]
  400b64:	6821      	ldr	r1, [r4, #0]
  400b66:	428a      	cmp	r2, r1
  400b68:	d202      	bcs.n	400b70 <prvCopyDataToQueue+0x5c>
  400b6a:	6862      	ldr	r2, [r4, #4]
  400b6c:	4413      	add	r3, r2
  400b6e:	60e3      	str	r3, [r4, #12]
  400b70:	2d02      	cmp	r5, #2
  400b72:	d10a      	bne.n	400b8a <prvCopyDataToQueue+0x76>
  400b74:	6ba3      	ldr	r3, [r4, #56]	; 0x38
  400b76:	b153      	cbz	r3, 400b8e <prvCopyDataToQueue+0x7a>
  400b78:	6ba3      	ldr	r3, [r4, #56]	; 0x38
  400b7a:	3b01      	subs	r3, #1
  400b7c:	63a3      	str	r3, [r4, #56]	; 0x38
  400b7e:	2000      	movs	r0, #0
  400b80:	e7d5      	b.n	400b2e <prvCopyDataToQueue+0x1a>
  400b82:	2000      	movs	r0, #0
  400b84:	e7d3      	b.n	400b2e <prvCopyDataToQueue+0x1a>
  400b86:	2000      	movs	r0, #0
  400b88:	e7d1      	b.n	400b2e <prvCopyDataToQueue+0x1a>
  400b8a:	2000      	movs	r0, #0
  400b8c:	e7cf      	b.n	400b2e <prvCopyDataToQueue+0x1a>
  400b8e:	2000      	movs	r0, #0
  400b90:	e7cd      	b.n	400b2e <prvCopyDataToQueue+0x1a>
  400b92:	bf00      	nop
  400b94:	00401f15 	.word	0x00401f15
  400b98:	004075dd 	.word	0x004075dd

00400b9c <prvNotifyQueueSetContainer>:
  400b9c:	b530      	push	{r4, r5, lr}
  400b9e:	b083      	sub	sp, #12
  400ba0:	9001      	str	r0, [sp, #4]
  400ba2:	6d44      	ldr	r4, [r0, #84]	; 0x54
  400ba4:	b174      	cbz	r4, 400bc4 <prvNotifyQueueSetContainer+0x28>
  400ba6:	6ba2      	ldr	r2, [r4, #56]	; 0x38
  400ba8:	6be3      	ldr	r3, [r4, #60]	; 0x3c
  400baa:	429a      	cmp	r2, r3
  400bac:	d315      	bcc.n	400bda <prvNotifyQueueSetContainer+0x3e>
  400bae:	f04f 0380 	mov.w	r3, #128	; 0x80
  400bb2:	b672      	cpsid	i
  400bb4:	f383 8811 	msr	BASEPRI, r3
  400bb8:	f3bf 8f6f 	isb	sy
  400bbc:	f3bf 8f4f 	dsb	sy
  400bc0:	b662      	cpsie	i
  400bc2:	e7fe      	b.n	400bc2 <prvNotifyQueueSetContainer+0x26>
  400bc4:	f04f 0380 	mov.w	r3, #128	; 0x80
  400bc8:	b672      	cpsid	i
  400bca:	f383 8811 	msr	BASEPRI, r3
  400bce:	f3bf 8f6f 	isb	sy
  400bd2:	f3bf 8f4f 	dsb	sy
  400bd6:	b662      	cpsie	i
  400bd8:	e7fe      	b.n	400bd8 <prvNotifyQueueSetContainer+0x3c>
  400bda:	6ba2      	ldr	r2, [r4, #56]	; 0x38
  400bdc:	4293      	cmp	r3, r2
  400bde:	d803      	bhi.n	400be8 <prvNotifyQueueSetContainer+0x4c>
  400be0:	2500      	movs	r5, #0
  400be2:	4628      	mov	r0, r5
  400be4:	b003      	add	sp, #12
  400be6:	bd30      	pop	{r4, r5, pc}
  400be8:	460a      	mov	r2, r1
  400bea:	a901      	add	r1, sp, #4
  400bec:	4620      	mov	r0, r4
  400bee:	4b0b      	ldr	r3, [pc, #44]	; (400c1c <prvNotifyQueueSetContainer+0x80>)
  400bf0:	4798      	blx	r3
  400bf2:	4605      	mov	r5, r0
  400bf4:	6ca3      	ldr	r3, [r4, #72]	; 0x48
  400bf6:	f1b3 3fff 	cmp.w	r3, #4294967295
  400bfa:	d10a      	bne.n	400c12 <prvNotifyQueueSetContainer+0x76>
  400bfc:	6a63      	ldr	r3, [r4, #36]	; 0x24
  400bfe:	2b00      	cmp	r3, #0
  400c00:	d0ef      	beq.n	400be2 <prvNotifyQueueSetContainer+0x46>
  400c02:	f104 0024 	add.w	r0, r4, #36	; 0x24
  400c06:	4b06      	ldr	r3, [pc, #24]	; (400c20 <prvNotifyQueueSetContainer+0x84>)
  400c08:	4798      	blx	r3
  400c0a:	2800      	cmp	r0, #0
  400c0c:	bf18      	it	ne
  400c0e:	2501      	movne	r5, #1
  400c10:	e7e7      	b.n	400be2 <prvNotifyQueueSetContainer+0x46>
  400c12:	6ca3      	ldr	r3, [r4, #72]	; 0x48
  400c14:	3301      	adds	r3, #1
  400c16:	64a3      	str	r3, [r4, #72]	; 0x48
  400c18:	e7e3      	b.n	400be2 <prvNotifyQueueSetContainer+0x46>
  400c1a:	bf00      	nop
  400c1c:	00400b15 	.word	0x00400b15
  400c20:	00401ce9 	.word	0x00401ce9

00400c24 <prvCopyDataFromQueue>:
  400c24:	6c02      	ldr	r2, [r0, #64]	; 0x40
  400c26:	b172      	cbz	r2, 400c46 <prvCopyDataFromQueue+0x22>
  400c28:	b510      	push	{r4, lr}
  400c2a:	4603      	mov	r3, r0
  400c2c:	68c4      	ldr	r4, [r0, #12]
  400c2e:	4414      	add	r4, r2
  400c30:	60c4      	str	r4, [r0, #12]
  400c32:	6840      	ldr	r0, [r0, #4]
  400c34:	4284      	cmp	r4, r0
  400c36:	d301      	bcc.n	400c3c <prvCopyDataFromQueue+0x18>
  400c38:	6818      	ldr	r0, [r3, #0]
  400c3a:	60d8      	str	r0, [r3, #12]
  400c3c:	4608      	mov	r0, r1
  400c3e:	68d9      	ldr	r1, [r3, #12]
  400c40:	4b01      	ldr	r3, [pc, #4]	; (400c48 <prvCopyDataFromQueue+0x24>)
  400c42:	4798      	blx	r3
  400c44:	bd10      	pop	{r4, pc}
  400c46:	4770      	bx	lr
  400c48:	004075dd 	.word	0x004075dd

00400c4c <prvUnlockQueue>:
  400c4c:	b5f8      	push	{r3, r4, r5, r6, r7, lr}
  400c4e:	4604      	mov	r4, r0
  400c50:	4b22      	ldr	r3, [pc, #136]	; (400cdc <prvUnlockQueue+0x90>)
  400c52:	4798      	blx	r3
  400c54:	6ca3      	ldr	r3, [r4, #72]	; 0x48
  400c56:	2b00      	cmp	r3, #0
  400c58:	dd1b      	ble.n	400c92 <prvUnlockQueue+0x46>
  400c5a:	4d21      	ldr	r5, [pc, #132]	; (400ce0 <prvUnlockQueue+0x94>)
  400c5c:	4f21      	ldr	r7, [pc, #132]	; (400ce4 <prvUnlockQueue+0x98>)
  400c5e:	4e22      	ldr	r6, [pc, #136]	; (400ce8 <prvUnlockQueue+0x9c>)
  400c60:	e00b      	b.n	400c7a <prvUnlockQueue+0x2e>
  400c62:	6a63      	ldr	r3, [r4, #36]	; 0x24
  400c64:	b1ab      	cbz	r3, 400c92 <prvUnlockQueue+0x46>
  400c66:	f104 0024 	add.w	r0, r4, #36	; 0x24
  400c6a:	47b0      	blx	r6
  400c6c:	b978      	cbnz	r0, 400c8e <prvUnlockQueue+0x42>
  400c6e:	6ca3      	ldr	r3, [r4, #72]	; 0x48
  400c70:	3b01      	subs	r3, #1
  400c72:	64a3      	str	r3, [r4, #72]	; 0x48
  400c74:	6ca3      	ldr	r3, [r4, #72]	; 0x48
  400c76:	2b00      	cmp	r3, #0
  400c78:	dd0b      	ble.n	400c92 <prvUnlockQueue+0x46>
  400c7a:	6d63      	ldr	r3, [r4, #84]	; 0x54
  400c7c:	2b00      	cmp	r3, #0
  400c7e:	d0f0      	beq.n	400c62 <prvUnlockQueue+0x16>
  400c80:	2100      	movs	r1, #0
  400c82:	4620      	mov	r0, r4
  400c84:	47a8      	blx	r5
  400c86:	2801      	cmp	r0, #1
  400c88:	d1f1      	bne.n	400c6e <prvUnlockQueue+0x22>
  400c8a:	47b8      	blx	r7
  400c8c:	e7ef      	b.n	400c6e <prvUnlockQueue+0x22>
  400c8e:	47b8      	blx	r7
  400c90:	e7ed      	b.n	400c6e <prvUnlockQueue+0x22>
  400c92:	f04f 33ff 	mov.w	r3, #4294967295
  400c96:	64a3      	str	r3, [r4, #72]	; 0x48
  400c98:	4b14      	ldr	r3, [pc, #80]	; (400cec <prvUnlockQueue+0xa0>)
  400c9a:	4798      	blx	r3
  400c9c:	4b0f      	ldr	r3, [pc, #60]	; (400cdc <prvUnlockQueue+0x90>)
  400c9e:	4798      	blx	r3
  400ca0:	6c63      	ldr	r3, [r4, #68]	; 0x44
  400ca2:	2b00      	cmp	r3, #0
  400ca4:	dd14      	ble.n	400cd0 <prvUnlockQueue+0x84>
  400ca6:	6923      	ldr	r3, [r4, #16]
  400ca8:	b193      	cbz	r3, 400cd0 <prvUnlockQueue+0x84>
  400caa:	f104 0610 	add.w	r6, r4, #16
  400cae:	4d0e      	ldr	r5, [pc, #56]	; (400ce8 <prvUnlockQueue+0x9c>)
  400cb0:	4f0c      	ldr	r7, [pc, #48]	; (400ce4 <prvUnlockQueue+0x98>)
  400cb2:	e007      	b.n	400cc4 <prvUnlockQueue+0x78>
  400cb4:	6c63      	ldr	r3, [r4, #68]	; 0x44
  400cb6:	3b01      	subs	r3, #1
  400cb8:	6463      	str	r3, [r4, #68]	; 0x44
  400cba:	6c63      	ldr	r3, [r4, #68]	; 0x44
  400cbc:	2b00      	cmp	r3, #0
  400cbe:	dd07      	ble.n	400cd0 <prvUnlockQueue+0x84>
  400cc0:	6923      	ldr	r3, [r4, #16]
  400cc2:	b12b      	cbz	r3, 400cd0 <prvUnlockQueue+0x84>
  400cc4:	4630      	mov	r0, r6
  400cc6:	47a8      	blx	r5
  400cc8:	2800      	cmp	r0, #0
  400cca:	d0f3      	beq.n	400cb4 <prvUnlockQueue+0x68>
  400ccc:	47b8      	blx	r7
  400cce:	e7f1      	b.n	400cb4 <prvUnlockQueue+0x68>
  400cd0:	f04f 33ff 	mov.w	r3, #4294967295
  400cd4:	6463      	str	r3, [r4, #68]	; 0x44
  400cd6:	4b05      	ldr	r3, [pc, #20]	; (400cec <prvUnlockQueue+0xa0>)
  400cd8:	4798      	blx	r3
  400cda:	bdf8      	pop	{r3, r4, r5, r6, r7, pc}
  400cdc:	0040082d 	.word	0x0040082d
  400ce0:	00400b9d 	.word	0x00400b9d
  400ce4:	00401e45 	.word	0x00401e45
  400ce8:	00401ce9 	.word	0x00401ce9
  400cec:	00400879 	.word	0x00400879

00400cf0 <xQueueGenericReset>:
  400cf0:	b538      	push	{r3, r4, r5, lr}
  400cf2:	b308      	cbz	r0, 400d38 <xQueueGenericReset+0x48>
  400cf4:	4604      	mov	r4, r0
  400cf6:	460d      	mov	r5, r1
  400cf8:	4b1d      	ldr	r3, [pc, #116]	; (400d70 <xQueueGenericReset+0x80>)
  400cfa:	4798      	blx	r3
  400cfc:	6822      	ldr	r2, [r4, #0]
  400cfe:	6c21      	ldr	r1, [r4, #64]	; 0x40
  400d00:	6be3      	ldr	r3, [r4, #60]	; 0x3c
  400d02:	fb03 f301 	mul.w	r3, r3, r1
  400d06:	18d0      	adds	r0, r2, r3
  400d08:	6060      	str	r0, [r4, #4]
  400d0a:	2000      	movs	r0, #0
  400d0c:	63a0      	str	r0, [r4, #56]	; 0x38
  400d0e:	60a2      	str	r2, [r4, #8]
  400d10:	1a5b      	subs	r3, r3, r1
  400d12:	4413      	add	r3, r2
  400d14:	60e3      	str	r3, [r4, #12]
  400d16:	f04f 33ff 	mov.w	r3, #4294967295
  400d1a:	6463      	str	r3, [r4, #68]	; 0x44
  400d1c:	64a3      	str	r3, [r4, #72]	; 0x48
  400d1e:	b9fd      	cbnz	r5, 400d60 <xQueueGenericReset+0x70>
  400d20:	6923      	ldr	r3, [r4, #16]
  400d22:	b12b      	cbz	r3, 400d30 <xQueueGenericReset+0x40>
  400d24:	f104 0010 	add.w	r0, r4, #16
  400d28:	4b12      	ldr	r3, [pc, #72]	; (400d74 <xQueueGenericReset+0x84>)
  400d2a:	4798      	blx	r3
  400d2c:	2801      	cmp	r0, #1
  400d2e:	d00e      	beq.n	400d4e <xQueueGenericReset+0x5e>
  400d30:	4b11      	ldr	r3, [pc, #68]	; (400d78 <xQueueGenericReset+0x88>)
  400d32:	4798      	blx	r3
  400d34:	2001      	movs	r0, #1
  400d36:	bd38      	pop	{r3, r4, r5, pc}
  400d38:	f04f 0380 	mov.w	r3, #128	; 0x80
  400d3c:	b672      	cpsid	i
  400d3e:	f383 8811 	msr	BASEPRI, r3
  400d42:	f3bf 8f6f 	isb	sy
  400d46:	f3bf 8f4f 	dsb	sy
  400d4a:	b662      	cpsie	i
  400d4c:	e7fe      	b.n	400d4c <xQueueGenericReset+0x5c>
  400d4e:	f04f 5280 	mov.w	r2, #268435456	; 0x10000000
  400d52:	4b0a      	ldr	r3, [pc, #40]	; (400d7c <xQueueGenericReset+0x8c>)
  400d54:	601a      	str	r2, [r3, #0]
  400d56:	f3bf 8f4f 	dsb	sy
  400d5a:	f3bf 8f6f 	isb	sy
  400d5e:	e7e7      	b.n	400d30 <xQueueGenericReset+0x40>
  400d60:	f104 0010 	add.w	r0, r4, #16
  400d64:	4d06      	ldr	r5, [pc, #24]	; (400d80 <xQueueGenericReset+0x90>)
  400d66:	47a8      	blx	r5
  400d68:	f104 0024 	add.w	r0, r4, #36	; 0x24
  400d6c:	47a8      	blx	r5
  400d6e:	e7df      	b.n	400d30 <xQueueGenericReset+0x40>
  400d70:	0040082d 	.word	0x0040082d
  400d74:	00401ce9 	.word	0x00401ce9
  400d78:	00400879 	.word	0x00400879
  400d7c:	e000ed04 	.word	0xe000ed04
  400d80:	004006e1 	.word	0x004006e1

00400d84 <xQueueGenericCreate>:
  400d84:	b5f8      	push	{r3, r4, r5, r6, r7, lr}
  400d86:	b950      	cbnz	r0, 400d9e <xQueueGenericCreate+0x1a>
  400d88:	f04f 0380 	mov.w	r3, #128	; 0x80
  400d8c:	b672      	cpsid	i
  400d8e:	f383 8811 	msr	BASEPRI, r3
  400d92:	f3bf 8f6f 	isb	sy
  400d96:	f3bf 8f4f 	dsb	sy
  400d9a:	b662      	cpsie	i
  400d9c:	e7fe      	b.n	400d9c <xQueueGenericCreate+0x18>
  400d9e:	4606      	mov	r6, r0
  400da0:	4617      	mov	r7, r2
  400da2:	460d      	mov	r5, r1
  400da4:	b189      	cbz	r1, 400dca <xQueueGenericCreate+0x46>
  400da6:	fb01 f000 	mul.w	r0, r1, r0
  400daa:	3059      	adds	r0, #89	; 0x59
  400dac:	4b12      	ldr	r3, [pc, #72]	; (400df8 <xQueueGenericCreate+0x74>)
  400dae:	4798      	blx	r3
  400db0:	4604      	mov	r4, r0
  400db2:	b9e8      	cbnz	r0, 400df0 <xQueueGenericCreate+0x6c>
  400db4:	f04f 0380 	mov.w	r3, #128	; 0x80
  400db8:	b672      	cpsid	i
  400dba:	f383 8811 	msr	BASEPRI, r3
  400dbe:	f3bf 8f6f 	isb	sy
  400dc2:	f3bf 8f4f 	dsb	sy
  400dc6:	b662      	cpsie	i
  400dc8:	e7fe      	b.n	400dc8 <xQueueGenericCreate+0x44>
  400dca:	2058      	movs	r0, #88	; 0x58
  400dcc:	4b0a      	ldr	r3, [pc, #40]	; (400df8 <xQueueGenericCreate+0x74>)
  400dce:	4798      	blx	r3
  400dd0:	4604      	mov	r4, r0
  400dd2:	2800      	cmp	r0, #0
  400dd4:	d0ee      	beq.n	400db4 <xQueueGenericCreate+0x30>
  400dd6:	6020      	str	r0, [r4, #0]
  400dd8:	63e6      	str	r6, [r4, #60]	; 0x3c
  400dda:	6425      	str	r5, [r4, #64]	; 0x40
  400ddc:	2101      	movs	r1, #1
  400dde:	4620      	mov	r0, r4
  400de0:	4b06      	ldr	r3, [pc, #24]	; (400dfc <xQueueGenericCreate+0x78>)
  400de2:	4798      	blx	r3
  400de4:	f884 7050 	strb.w	r7, [r4, #80]	; 0x50
  400de8:	2300      	movs	r3, #0
  400dea:	6563      	str	r3, [r4, #84]	; 0x54
  400dec:	4620      	mov	r0, r4
  400dee:	bdf8      	pop	{r3, r4, r5, r6, r7, pc}
  400df0:	f100 0358 	add.w	r3, r0, #88	; 0x58
  400df4:	6003      	str	r3, [r0, #0]
  400df6:	e7ef      	b.n	400dd8 <xQueueGenericCreate+0x54>
  400df8:	00400a89 	.word	0x00400a89
  400dfc:	00400cf1 	.word	0x00400cf1

00400e00 <xQueueGenericSend>:
  400e00:	e92d 4ff0 	stmdb	sp!, {r4, r5, r6, r7, r8, r9, sl, fp, lr}
  400e04:	b085      	sub	sp, #20
  400e06:	9201      	str	r2, [sp, #4]
  400e08:	b1b8      	cbz	r0, 400e3a <xQueueGenericSend+0x3a>
  400e0a:	4604      	mov	r4, r0
  400e0c:	b301      	cbz	r1, 400e50 <xQueueGenericSend+0x50>
  400e0e:	2b02      	cmp	r3, #2
  400e10:	d02c      	beq.n	400e6c <xQueueGenericSend+0x6c>
  400e12:	461d      	mov	r5, r3
  400e14:	4688      	mov	r8, r1
  400e16:	4b66      	ldr	r3, [pc, #408]	; (400fb0 <xQueueGenericSend+0x1b0>)
  400e18:	4798      	blx	r3
  400e1a:	2800      	cmp	r0, #0
  400e1c:	d134      	bne.n	400e88 <xQueueGenericSend+0x88>
  400e1e:	9b01      	ldr	r3, [sp, #4]
  400e20:	2b00      	cmp	r3, #0
  400e22:	d038      	beq.n	400e96 <xQueueGenericSend+0x96>
  400e24:	f04f 0380 	mov.w	r3, #128	; 0x80
  400e28:	b672      	cpsid	i
  400e2a:	f383 8811 	msr	BASEPRI, r3
  400e2e:	f3bf 8f6f 	isb	sy
  400e32:	f3bf 8f4f 	dsb	sy
  400e36:	b662      	cpsie	i
  400e38:	e7fe      	b.n	400e38 <xQueueGenericSend+0x38>
  400e3a:	f04f 0380 	mov.w	r3, #128	; 0x80
  400e3e:	b672      	cpsid	i
  400e40:	f383 8811 	msr	BASEPRI, r3
  400e44:	f3bf 8f6f 	isb	sy
  400e48:	f3bf 8f4f 	dsb	sy
  400e4c:	b662      	cpsie	i
  400e4e:	e7fe      	b.n	400e4e <xQueueGenericSend+0x4e>
  400e50:	6c02      	ldr	r2, [r0, #64]	; 0x40
  400e52:	2a00      	cmp	r2, #0
  400e54:	d0db      	beq.n	400e0e <xQueueGenericSend+0xe>
  400e56:	f04f 0380 	mov.w	r3, #128	; 0x80
  400e5a:	b672      	cpsid	i
  400e5c:	f383 8811 	msr	BASEPRI, r3
  400e60:	f3bf 8f6f 	isb	sy
  400e64:	f3bf 8f4f 	dsb	sy
  400e68:	b662      	cpsie	i
  400e6a:	e7fe      	b.n	400e6a <xQueueGenericSend+0x6a>
  400e6c:	6be2      	ldr	r2, [r4, #60]	; 0x3c
  400e6e:	2a01      	cmp	r2, #1
  400e70:	d0cf      	beq.n	400e12 <xQueueGenericSend+0x12>
  400e72:	f04f 0380 	mov.w	r3, #128	; 0x80
  400e76:	b672      	cpsid	i
  400e78:	f383 8811 	msr	BASEPRI, r3
  400e7c:	f3bf 8f6f 	isb	sy
  400e80:	f3bf 8f4f 	dsb	sy
  400e84:	b662      	cpsie	i
  400e86:	e7fe      	b.n	400e86 <xQueueGenericSend+0x86>
  400e88:	2700      	movs	r7, #0
  400e8a:	4e4a      	ldr	r6, [pc, #296]	; (400fb4 <xQueueGenericSend+0x1b4>)
  400e8c:	f8df a150 	ldr.w	sl, [pc, #336]	; 400fe0 <xQueueGenericSend+0x1e0>
  400e90:	f8df 912c 	ldr.w	r9, [pc, #300]	; 400fc0 <xQueueGenericSend+0x1c0>
  400e94:	e042      	b.n	400f1c <xQueueGenericSend+0x11c>
  400e96:	2700      	movs	r7, #0
  400e98:	e7f7      	b.n	400e8a <xQueueGenericSend+0x8a>
  400e9a:	462a      	mov	r2, r5
  400e9c:	4641      	mov	r1, r8
  400e9e:	4620      	mov	r0, r4
  400ea0:	4b45      	ldr	r3, [pc, #276]	; (400fb8 <xQueueGenericSend+0x1b8>)
  400ea2:	4798      	blx	r3
  400ea4:	6d63      	ldr	r3, [r4, #84]	; 0x54
  400ea6:	b19b      	cbz	r3, 400ed0 <xQueueGenericSend+0xd0>
  400ea8:	4629      	mov	r1, r5
  400eaa:	4620      	mov	r0, r4
  400eac:	4b43      	ldr	r3, [pc, #268]	; (400fbc <xQueueGenericSend+0x1bc>)
  400eae:	4798      	blx	r3
  400eb0:	2801      	cmp	r0, #1
  400eb2:	d107      	bne.n	400ec4 <xQueueGenericSend+0xc4>
  400eb4:	f04f 5280 	mov.w	r2, #268435456	; 0x10000000
  400eb8:	4b41      	ldr	r3, [pc, #260]	; (400fc0 <xQueueGenericSend+0x1c0>)
  400eba:	601a      	str	r2, [r3, #0]
  400ebc:	f3bf 8f4f 	dsb	sy
  400ec0:	f3bf 8f6f 	isb	sy
  400ec4:	4b3f      	ldr	r3, [pc, #252]	; (400fc4 <xQueueGenericSend+0x1c4>)
  400ec6:	4798      	blx	r3
  400ec8:	2001      	movs	r0, #1
  400eca:	b005      	add	sp, #20
  400ecc:	e8bd 8ff0 	ldmia.w	sp!, {r4, r5, r6, r7, r8, r9, sl, fp, pc}
  400ed0:	6a63      	ldr	r3, [r4, #36]	; 0x24
  400ed2:	b173      	cbz	r3, 400ef2 <xQueueGenericSend+0xf2>
  400ed4:	f104 0024 	add.w	r0, r4, #36	; 0x24
  400ed8:	4b3b      	ldr	r3, [pc, #236]	; (400fc8 <xQueueGenericSend+0x1c8>)
  400eda:	4798      	blx	r3
  400edc:	2801      	cmp	r0, #1
  400ede:	d1f1      	bne.n	400ec4 <xQueueGenericSend+0xc4>
  400ee0:	f04f 5280 	mov.w	r2, #268435456	; 0x10000000
  400ee4:	4b36      	ldr	r3, [pc, #216]	; (400fc0 <xQueueGenericSend+0x1c0>)
  400ee6:	601a      	str	r2, [r3, #0]
  400ee8:	f3bf 8f4f 	dsb	sy
  400eec:	f3bf 8f6f 	isb	sy
  400ef0:	e7e8      	b.n	400ec4 <xQueueGenericSend+0xc4>
  400ef2:	2800      	cmp	r0, #0
  400ef4:	d0e6      	beq.n	400ec4 <xQueueGenericSend+0xc4>
  400ef6:	f04f 5280 	mov.w	r2, #268435456	; 0x10000000
  400efa:	4b31      	ldr	r3, [pc, #196]	; (400fc0 <xQueueGenericSend+0x1c0>)
  400efc:	601a      	str	r2, [r3, #0]
  400efe:	f3bf 8f4f 	dsb	sy
  400f02:	f3bf 8f6f 	isb	sy
  400f06:	e7dd      	b.n	400ec4 <xQueueGenericSend+0xc4>
  400f08:	4b2e      	ldr	r3, [pc, #184]	; (400fc4 <xQueueGenericSend+0x1c4>)
  400f0a:	4798      	blx	r3
  400f0c:	2000      	movs	r0, #0
  400f0e:	e7dc      	b.n	400eca <xQueueGenericSend+0xca>
  400f10:	4620      	mov	r0, r4
  400f12:	4b2e      	ldr	r3, [pc, #184]	; (400fcc <xQueueGenericSend+0x1cc>)
  400f14:	4798      	blx	r3
  400f16:	4b2e      	ldr	r3, [pc, #184]	; (400fd0 <xQueueGenericSend+0x1d0>)
  400f18:	4798      	blx	r3
  400f1a:	2701      	movs	r7, #1
  400f1c:	47b0      	blx	r6
  400f1e:	6ba2      	ldr	r2, [r4, #56]	; 0x38
  400f20:	6be3      	ldr	r3, [r4, #60]	; 0x3c
  400f22:	429a      	cmp	r2, r3
  400f24:	d3b9      	bcc.n	400e9a <xQueueGenericSend+0x9a>
  400f26:	2d02      	cmp	r5, #2
  400f28:	d0b7      	beq.n	400e9a <xQueueGenericSend+0x9a>
  400f2a:	9b01      	ldr	r3, [sp, #4]
  400f2c:	2b00      	cmp	r3, #0
  400f2e:	d0eb      	beq.n	400f08 <xQueueGenericSend+0x108>
  400f30:	b90f      	cbnz	r7, 400f36 <xQueueGenericSend+0x136>
  400f32:	a802      	add	r0, sp, #8
  400f34:	47d0      	blx	sl
  400f36:	4b23      	ldr	r3, [pc, #140]	; (400fc4 <xQueueGenericSend+0x1c4>)
  400f38:	4798      	blx	r3
  400f3a:	4b26      	ldr	r3, [pc, #152]	; (400fd4 <xQueueGenericSend+0x1d4>)
  400f3c:	4798      	blx	r3
  400f3e:	47b0      	blx	r6
  400f40:	6c63      	ldr	r3, [r4, #68]	; 0x44
  400f42:	f1b3 3fff 	cmp.w	r3, #4294967295
  400f46:	d101      	bne.n	400f4c <xQueueGenericSend+0x14c>
  400f48:	2300      	movs	r3, #0
  400f4a:	6463      	str	r3, [r4, #68]	; 0x44
  400f4c:	6ca3      	ldr	r3, [r4, #72]	; 0x48
  400f4e:	f1b3 3fff 	cmp.w	r3, #4294967295
  400f52:	d101      	bne.n	400f58 <xQueueGenericSend+0x158>
  400f54:	2300      	movs	r3, #0
  400f56:	64a3      	str	r3, [r4, #72]	; 0x48
  400f58:	4b1a      	ldr	r3, [pc, #104]	; (400fc4 <xQueueGenericSend+0x1c4>)
  400f5a:	4798      	blx	r3
  400f5c:	a901      	add	r1, sp, #4
  400f5e:	a802      	add	r0, sp, #8
  400f60:	4b1d      	ldr	r3, [pc, #116]	; (400fd8 <xQueueGenericSend+0x1d8>)
  400f62:	4798      	blx	r3
  400f64:	b9e0      	cbnz	r0, 400fa0 <xQueueGenericSend+0x1a0>
  400f66:	47b0      	blx	r6
  400f68:	f8d4 b038 	ldr.w	fp, [r4, #56]	; 0x38
  400f6c:	6be7      	ldr	r7, [r4, #60]	; 0x3c
  400f6e:	4b15      	ldr	r3, [pc, #84]	; (400fc4 <xQueueGenericSend+0x1c4>)
  400f70:	4798      	blx	r3
  400f72:	45bb      	cmp	fp, r7
  400f74:	d1cc      	bne.n	400f10 <xQueueGenericSend+0x110>
  400f76:	9901      	ldr	r1, [sp, #4]
  400f78:	f104 0010 	add.w	r0, r4, #16
  400f7c:	4b17      	ldr	r3, [pc, #92]	; (400fdc <xQueueGenericSend+0x1dc>)
  400f7e:	4798      	blx	r3
  400f80:	4620      	mov	r0, r4
  400f82:	4b12      	ldr	r3, [pc, #72]	; (400fcc <xQueueGenericSend+0x1cc>)
  400f84:	4798      	blx	r3
  400f86:	4b12      	ldr	r3, [pc, #72]	; (400fd0 <xQueueGenericSend+0x1d0>)
  400f88:	4798      	blx	r3
  400f8a:	2800      	cmp	r0, #0
  400f8c:	d1c5      	bne.n	400f1a <xQueueGenericSend+0x11a>
  400f8e:	f04f 5380 	mov.w	r3, #268435456	; 0x10000000
  400f92:	f8c9 3000 	str.w	r3, [r9]
  400f96:	f3bf 8f4f 	dsb	sy
  400f9a:	f3bf 8f6f 	isb	sy
  400f9e:	e7bc      	b.n	400f1a <xQueueGenericSend+0x11a>
  400fa0:	4620      	mov	r0, r4
  400fa2:	4b0a      	ldr	r3, [pc, #40]	; (400fcc <xQueueGenericSend+0x1cc>)
  400fa4:	4798      	blx	r3
  400fa6:	4b0a      	ldr	r3, [pc, #40]	; (400fd0 <xQueueGenericSend+0x1d0>)
  400fa8:	4798      	blx	r3
  400faa:	2000      	movs	r0, #0
  400fac:	e78d      	b.n	400eca <xQueueGenericSend+0xca>
  400fae:	bf00      	nop
  400fb0:	00401e51 	.word	0x00401e51
  400fb4:	0040082d 	.word	0x0040082d
  400fb8:	00400b15 	.word	0x00400b15
  400fbc:	00400b9d 	.word	0x00400b9d
  400fc0:	e000ed04 	.word	0xe000ed04
  400fc4:	00400879 	.word	0x00400879
  400fc8:	00401ce9 	.word	0x00401ce9
  400fcc:	00400c4d 	.word	0x00400c4d
  400fd0:	004018cd 	.word	0x004018cd
  400fd4:	00401765 	.word	0x00401765
  400fd8:	00401db1 	.word	0x00401db1
  400fdc:	00401be5 	.word	0x00401be5
  400fe0:	00401d81 	.word	0x00401d81

00400fe4 <xQueueGenericSendFromISR>:
  400fe4:	2800      	cmp	r0, #0
  400fe6:	d036      	beq.n	401056 <xQueueGenericSendFromISR+0x72>
  400fe8:	e92d 41f0 	stmdb	sp!, {r4, r5, r6, r7, r8, lr}
  400fec:	4604      	mov	r4, r0
  400fee:	2900      	cmp	r1, #0
  400ff0:	d03c      	beq.n	40106c <xQueueGenericSendFromISR+0x88>
  400ff2:	2b02      	cmp	r3, #2
  400ff4:	d048      	beq.n	401088 <xQueueGenericSendFromISR+0xa4>
  400ff6:	461e      	mov	r6, r3
  400ff8:	4615      	mov	r5, r2
  400ffa:	4688      	mov	r8, r1
  400ffc:	4b35      	ldr	r3, [pc, #212]	; (4010d4 <xQueueGenericSendFromISR+0xf0>)
  400ffe:	4798      	blx	r3
  401000:	f3ef 8711 	mrs	r7, BASEPRI
  401004:	f04f 0380 	mov.w	r3, #128	; 0x80
  401008:	b672      	cpsid	i
  40100a:	f383 8811 	msr	BASEPRI, r3
  40100e:	f3bf 8f6f 	isb	sy
  401012:	f3bf 8f4f 	dsb	sy
  401016:	b662      	cpsie	i
  401018:	6ba2      	ldr	r2, [r4, #56]	; 0x38
  40101a:	6be3      	ldr	r3, [r4, #60]	; 0x3c
  40101c:	429a      	cmp	r2, r3
  40101e:	d301      	bcc.n	401024 <xQueueGenericSendFromISR+0x40>
  401020:	2e02      	cmp	r6, #2
  401022:	d14f      	bne.n	4010c4 <xQueueGenericSendFromISR+0xe0>
  401024:	4632      	mov	r2, r6
  401026:	4641      	mov	r1, r8
  401028:	4620      	mov	r0, r4
  40102a:	4b2b      	ldr	r3, [pc, #172]	; (4010d8 <xQueueGenericSendFromISR+0xf4>)
  40102c:	4798      	blx	r3
  40102e:	6ca3      	ldr	r3, [r4, #72]	; 0x48
  401030:	f1b3 3fff 	cmp.w	r3, #4294967295
  401034:	d141      	bne.n	4010ba <xQueueGenericSendFromISR+0xd6>
  401036:	6d63      	ldr	r3, [r4, #84]	; 0x54
  401038:	2b00      	cmp	r3, #0
  40103a:	d033      	beq.n	4010a4 <xQueueGenericSendFromISR+0xc0>
  40103c:	4631      	mov	r1, r6
  40103e:	4620      	mov	r0, r4
  401040:	4b26      	ldr	r3, [pc, #152]	; (4010dc <xQueueGenericSendFromISR+0xf8>)
  401042:	4798      	blx	r3
  401044:	2d00      	cmp	r5, #0
  401046:	d03f      	beq.n	4010c8 <xQueueGenericSendFromISR+0xe4>
  401048:	2801      	cmp	r0, #1
  40104a:	d13d      	bne.n	4010c8 <xQueueGenericSendFromISR+0xe4>
  40104c:	6028      	str	r0, [r5, #0]
  40104e:	f387 8811 	msr	BASEPRI, r7
  401052:	e8bd 81f0 	ldmia.w	sp!, {r4, r5, r6, r7, r8, pc}
  401056:	f04f 0380 	mov.w	r3, #128	; 0x80
  40105a:	b672      	cpsid	i
  40105c:	f383 8811 	msr	BASEPRI, r3
  401060:	f3bf 8f6f 	isb	sy
  401064:	f3bf 8f4f 	dsb	sy
  401068:	b662      	cpsie	i
  40106a:	e7fe      	b.n	40106a <xQueueGenericSendFromISR+0x86>
  40106c:	6c00      	ldr	r0, [r0, #64]	; 0x40
  40106e:	2800      	cmp	r0, #0
  401070:	d0bf      	beq.n	400ff2 <xQueueGenericSendFromISR+0xe>
  401072:	f04f 0380 	mov.w	r3, #128	; 0x80
  401076:	b672      	cpsid	i
  401078:	f383 8811 	msr	BASEPRI, r3
  40107c:	f3bf 8f6f 	isb	sy
  401080:	f3bf 8f4f 	dsb	sy
  401084:	b662      	cpsie	i
  401086:	e7fe      	b.n	401086 <xQueueGenericSendFromISR+0xa2>
  401088:	6be0      	ldr	r0, [r4, #60]	; 0x3c
  40108a:	2801      	cmp	r0, #1
  40108c:	d0b3      	beq.n	400ff6 <xQueueGenericSendFromISR+0x12>
  40108e:	f04f 0380 	mov.w	r3, #128	; 0x80
  401092:	b672      	cpsid	i
  401094:	f383 8811 	msr	BASEPRI, r3
  401098:	f3bf 8f6f 	isb	sy
  40109c:	f3bf 8f4f 	dsb	sy
  4010a0:	b662      	cpsie	i
  4010a2:	e7fe      	b.n	4010a2 <xQueueGenericSendFromISR+0xbe>
  4010a4:	6a63      	ldr	r3, [r4, #36]	; 0x24
  4010a6:	b18b      	cbz	r3, 4010cc <xQueueGenericSendFromISR+0xe8>
  4010a8:	f104 0024 	add.w	r0, r4, #36	; 0x24
  4010ac:	4b0c      	ldr	r3, [pc, #48]	; (4010e0 <xQueueGenericSendFromISR+0xfc>)
  4010ae:	4798      	blx	r3
  4010b0:	b175      	cbz	r5, 4010d0 <xQueueGenericSendFromISR+0xec>
  4010b2:	b168      	cbz	r0, 4010d0 <xQueueGenericSendFromISR+0xec>
  4010b4:	2001      	movs	r0, #1
  4010b6:	6028      	str	r0, [r5, #0]
  4010b8:	e7c9      	b.n	40104e <xQueueGenericSendFromISR+0x6a>
  4010ba:	6ca3      	ldr	r3, [r4, #72]	; 0x48
  4010bc:	3301      	adds	r3, #1
  4010be:	64a3      	str	r3, [r4, #72]	; 0x48
  4010c0:	2001      	movs	r0, #1
  4010c2:	e7c4      	b.n	40104e <xQueueGenericSendFromISR+0x6a>
  4010c4:	2000      	movs	r0, #0
  4010c6:	e7c2      	b.n	40104e <xQueueGenericSendFromISR+0x6a>
  4010c8:	2001      	movs	r0, #1
  4010ca:	e7c0      	b.n	40104e <xQueueGenericSendFromISR+0x6a>
  4010cc:	2001      	movs	r0, #1
  4010ce:	e7be      	b.n	40104e <xQueueGenericSendFromISR+0x6a>
  4010d0:	2001      	movs	r0, #1
  4010d2:	e7bc      	b.n	40104e <xQueueGenericSendFromISR+0x6a>
  4010d4:	00400a25 	.word	0x00400a25
  4010d8:	00400b15 	.word	0x00400b15
  4010dc:	00400b9d 	.word	0x00400b9d
  4010e0:	00401ce9 	.word	0x00401ce9

004010e4 <xQueueGiveFromISR>:
  4010e4:	b170      	cbz	r0, 401104 <xQueueGiveFromISR+0x20>
  4010e6:	b570      	push	{r4, r5, r6, lr}
  4010e8:	4604      	mov	r4, r0
  4010ea:	6c03      	ldr	r3, [r0, #64]	; 0x40
  4010ec:	b1ab      	cbz	r3, 40111a <xQueueGiveFromISR+0x36>
  4010ee:	f04f 0380 	mov.w	r3, #128	; 0x80
  4010f2:	b672      	cpsid	i
  4010f4:	f383 8811 	msr	BASEPRI, r3
  4010f8:	f3bf 8f6f 	isb	sy
  4010fc:	f3bf 8f4f 	dsb	sy
  401100:	b662      	cpsie	i
  401102:	e7fe      	b.n	401102 <xQueueGiveFromISR+0x1e>
  401104:	f04f 0380 	mov.w	r3, #128	; 0x80
  401108:	b672      	cpsid	i
  40110a:	f383 8811 	msr	BASEPRI, r3
  40110e:	f3bf 8f6f 	isb	sy
  401112:	f3bf 8f4f 	dsb	sy
  401116:	b662      	cpsie	i
  401118:	e7fe      	b.n	401118 <xQueueGiveFromISR+0x34>
  40111a:	6803      	ldr	r3, [r0, #0]
  40111c:	b333      	cbz	r3, 40116c <xQueueGiveFromISR+0x88>
  40111e:	460d      	mov	r5, r1
  401120:	4b25      	ldr	r3, [pc, #148]	; (4011b8 <xQueueGiveFromISR+0xd4>)
  401122:	4798      	blx	r3
  401124:	f3ef 8611 	mrs	r6, BASEPRI
  401128:	f04f 0380 	mov.w	r3, #128	; 0x80
  40112c:	b672      	cpsid	i
  40112e:	f383 8811 	msr	BASEPRI, r3
  401132:	f3bf 8f6f 	isb	sy
  401136:	f3bf 8f4f 	dsb	sy
  40113a:	b662      	cpsie	i
  40113c:	6ba2      	ldr	r2, [r4, #56]	; 0x38
  40113e:	6be3      	ldr	r3, [r4, #60]	; 0x3c
  401140:	429a      	cmp	r2, r3
  401142:	d231      	bcs.n	4011a8 <xQueueGiveFromISR+0xc4>
  401144:	6ba3      	ldr	r3, [r4, #56]	; 0x38
  401146:	3301      	adds	r3, #1
  401148:	63a3      	str	r3, [r4, #56]	; 0x38
  40114a:	6ca3      	ldr	r3, [r4, #72]	; 0x48
  40114c:	f1b3 3fff 	cmp.w	r3, #4294967295
  401150:	d125      	bne.n	40119e <xQueueGiveFromISR+0xba>
  401152:	6d63      	ldr	r3, [r4, #84]	; 0x54
  401154:	b1c3      	cbz	r3, 401188 <xQueueGiveFromISR+0xa4>
  401156:	2100      	movs	r1, #0
  401158:	4620      	mov	r0, r4
  40115a:	4b18      	ldr	r3, [pc, #96]	; (4011bc <xQueueGiveFromISR+0xd8>)
  40115c:	4798      	blx	r3
  40115e:	b32d      	cbz	r5, 4011ac <xQueueGiveFromISR+0xc8>
  401160:	2801      	cmp	r0, #1
  401162:	d123      	bne.n	4011ac <xQueueGiveFromISR+0xc8>
  401164:	6028      	str	r0, [r5, #0]
  401166:	f386 8811 	msr	BASEPRI, r6
  40116a:	bd70      	pop	{r4, r5, r6, pc}
  40116c:	6843      	ldr	r3, [r0, #4]
  40116e:	2b00      	cmp	r3, #0
  401170:	d0d5      	beq.n	40111e <xQueueGiveFromISR+0x3a>
  401172:	f04f 0380 	mov.w	r3, #128	; 0x80
  401176:	b672      	cpsid	i
  401178:	f383 8811 	msr	BASEPRI, r3
  40117c:	f3bf 8f6f 	isb	sy
  401180:	f3bf 8f4f 	dsb	sy
  401184:	b662      	cpsie	i
  401186:	e7fe      	b.n	401186 <xQueueGiveFromISR+0xa2>
  401188:	6a63      	ldr	r3, [r4, #36]	; 0x24
  40118a:	b18b      	cbz	r3, 4011b0 <xQueueGiveFromISR+0xcc>
  40118c:	f104 0024 	add.w	r0, r4, #36	; 0x24
  401190:	4b0b      	ldr	r3, [pc, #44]	; (4011c0 <xQueueGiveFromISR+0xdc>)
  401192:	4798      	blx	r3
  401194:	b175      	cbz	r5, 4011b4 <xQueueGiveFromISR+0xd0>
  401196:	b168      	cbz	r0, 4011b4 <xQueueGiveFromISR+0xd0>
  401198:	2001      	movs	r0, #1
  40119a:	6028      	str	r0, [r5, #0]
  40119c:	e7e3      	b.n	401166 <xQueueGiveFromISR+0x82>
  40119e:	6ca3      	ldr	r3, [r4, #72]	; 0x48
  4011a0:	3301      	adds	r3, #1
  4011a2:	64a3      	str	r3, [r4, #72]	; 0x48
  4011a4:	2001      	movs	r0, #1
  4011a6:	e7de      	b.n	401166 <xQueueGiveFromISR+0x82>
  4011a8:	2000      	movs	r0, #0
  4011aa:	e7dc      	b.n	401166 <xQueueGiveFromISR+0x82>
  4011ac:	2001      	movs	r0, #1
  4011ae:	e7da      	b.n	401166 <xQueueGiveFromISR+0x82>
  4011b0:	2001      	movs	r0, #1
  4011b2:	e7d8      	b.n	401166 <xQueueGiveFromISR+0x82>
  4011b4:	2001      	movs	r0, #1
  4011b6:	e7d6      	b.n	401166 <xQueueGiveFromISR+0x82>
  4011b8:	00400a25 	.word	0x00400a25
  4011bc:	00400b9d 	.word	0x00400b9d
  4011c0:	00401ce9 	.word	0x00401ce9

004011c4 <xQueueGenericReceive>:
  4011c4:	e92d 47f0 	stmdb	sp!, {r4, r5, r6, r7, r8, r9, sl, lr}
  4011c8:	b084      	sub	sp, #16
  4011ca:	9201      	str	r2, [sp, #4]
  4011cc:	b198      	cbz	r0, 4011f6 <xQueueGenericReceive+0x32>
  4011ce:	4604      	mov	r4, r0
  4011d0:	b1e1      	cbz	r1, 40120c <xQueueGenericReceive+0x48>
  4011d2:	4698      	mov	r8, r3
  4011d4:	460f      	mov	r7, r1
  4011d6:	4b61      	ldr	r3, [pc, #388]	; (40135c <xQueueGenericReceive+0x198>)
  4011d8:	4798      	blx	r3
  4011da:	bb28      	cbnz	r0, 401228 <xQueueGenericReceive+0x64>
  4011dc:	9b01      	ldr	r3, [sp, #4]
  4011de:	b353      	cbz	r3, 401236 <xQueueGenericReceive+0x72>
  4011e0:	f04f 0380 	mov.w	r3, #128	; 0x80
  4011e4:	b672      	cpsid	i
  4011e6:	f383 8811 	msr	BASEPRI, r3
  4011ea:	f3bf 8f6f 	isb	sy
  4011ee:	f3bf 8f4f 	dsb	sy
  4011f2:	b662      	cpsie	i
  4011f4:	e7fe      	b.n	4011f4 <xQueueGenericReceive+0x30>
  4011f6:	f04f 0380 	mov.w	r3, #128	; 0x80
  4011fa:	b672      	cpsid	i
  4011fc:	f383 8811 	msr	BASEPRI, r3
  401200:	f3bf 8f6f 	isb	sy
  401204:	f3bf 8f4f 	dsb	sy
  401208:	b662      	cpsie	i
  40120a:	e7fe      	b.n	40120a <xQueueGenericReceive+0x46>
  40120c:	6c02      	ldr	r2, [r0, #64]	; 0x40
  40120e:	2a00      	cmp	r2, #0
  401210:	d0df      	beq.n	4011d2 <xQueueGenericReceive+0xe>
  401212:	f04f 0380 	mov.w	r3, #128	; 0x80
  401216:	b672      	cpsid	i
  401218:	f383 8811 	msr	BASEPRI, r3
  40121c:	f3bf 8f6f 	isb	sy
  401220:	f3bf 8f4f 	dsb	sy
  401224:	b662      	cpsie	i
  401226:	e7fe      	b.n	401226 <xQueueGenericReceive+0x62>
  401228:	2600      	movs	r6, #0
  40122a:	4d4d      	ldr	r5, [pc, #308]	; (401360 <xQueueGenericReceive+0x19c>)
  40122c:	f8df a160 	ldr.w	sl, [pc, #352]	; 401390 <xQueueGenericReceive+0x1cc>
  401230:	f8df 913c 	ldr.w	r9, [pc, #316]	; 401370 <xQueueGenericReceive+0x1ac>
  401234:	e04b      	b.n	4012ce <xQueueGenericReceive+0x10a>
  401236:	2600      	movs	r6, #0
  401238:	e7f7      	b.n	40122a <xQueueGenericReceive+0x66>
  40123a:	68e5      	ldr	r5, [r4, #12]
  40123c:	4639      	mov	r1, r7
  40123e:	4620      	mov	r0, r4
  401240:	4b48      	ldr	r3, [pc, #288]	; (401364 <xQueueGenericReceive+0x1a0>)
  401242:	4798      	blx	r3
  401244:	f1b8 0f00 	cmp.w	r8, #0
  401248:	d11d      	bne.n	401286 <xQueueGenericReceive+0xc2>
  40124a:	6ba3      	ldr	r3, [r4, #56]	; 0x38
  40124c:	3b01      	subs	r3, #1
  40124e:	63a3      	str	r3, [r4, #56]	; 0x38
  401250:	6823      	ldr	r3, [r4, #0]
  401252:	b913      	cbnz	r3, 40125a <xQueueGenericReceive+0x96>
  401254:	4b44      	ldr	r3, [pc, #272]	; (401368 <xQueueGenericReceive+0x1a4>)
  401256:	4798      	blx	r3
  401258:	6060      	str	r0, [r4, #4]
  40125a:	6923      	ldr	r3, [r4, #16]
  40125c:	b16b      	cbz	r3, 40127a <xQueueGenericReceive+0xb6>
  40125e:	f104 0010 	add.w	r0, r4, #16
  401262:	4b42      	ldr	r3, [pc, #264]	; (40136c <xQueueGenericReceive+0x1a8>)
  401264:	4798      	blx	r3
  401266:	2801      	cmp	r0, #1
  401268:	d107      	bne.n	40127a <xQueueGenericReceive+0xb6>
  40126a:	f04f 5280 	mov.w	r2, #268435456	; 0x10000000
  40126e:	4b40      	ldr	r3, [pc, #256]	; (401370 <xQueueGenericReceive+0x1ac>)
  401270:	601a      	str	r2, [r3, #0]
  401272:	f3bf 8f4f 	dsb	sy
  401276:	f3bf 8f6f 	isb	sy
  40127a:	4b3e      	ldr	r3, [pc, #248]	; (401374 <xQueueGenericReceive+0x1b0>)
  40127c:	4798      	blx	r3
  40127e:	2001      	movs	r0, #1
  401280:	b004      	add	sp, #16
  401282:	e8bd 87f0 	ldmia.w	sp!, {r4, r5, r6, r7, r8, r9, sl, pc}
  401286:	60e5      	str	r5, [r4, #12]
  401288:	6a63      	ldr	r3, [r4, #36]	; 0x24
  40128a:	2b00      	cmp	r3, #0
  40128c:	d0f5      	beq.n	40127a <xQueueGenericReceive+0xb6>
  40128e:	f104 0024 	add.w	r0, r4, #36	; 0x24
  401292:	4b36      	ldr	r3, [pc, #216]	; (40136c <xQueueGenericReceive+0x1a8>)
  401294:	4798      	blx	r3
  401296:	2800      	cmp	r0, #0
  401298:	d0ef      	beq.n	40127a <xQueueGenericReceive+0xb6>
  40129a:	f04f 5280 	mov.w	r2, #268435456	; 0x10000000
  40129e:	4b34      	ldr	r3, [pc, #208]	; (401370 <xQueueGenericReceive+0x1ac>)
  4012a0:	601a      	str	r2, [r3, #0]
  4012a2:	f3bf 8f4f 	dsb	sy
  4012a6:	f3bf 8f6f 	isb	sy
  4012aa:	e7e6      	b.n	40127a <xQueueGenericReceive+0xb6>
  4012ac:	4b31      	ldr	r3, [pc, #196]	; (401374 <xQueueGenericReceive+0x1b0>)
  4012ae:	4798      	blx	r3
  4012b0:	2000      	movs	r0, #0
  4012b2:	e7e5      	b.n	401280 <xQueueGenericReceive+0xbc>
  4012b4:	47a8      	blx	r5
  4012b6:	6860      	ldr	r0, [r4, #4]
  4012b8:	4b2f      	ldr	r3, [pc, #188]	; (401378 <xQueueGenericReceive+0x1b4>)
  4012ba:	4798      	blx	r3
  4012bc:	4b2d      	ldr	r3, [pc, #180]	; (401374 <xQueueGenericReceive+0x1b0>)
  4012be:	4798      	blx	r3
  4012c0:	e030      	b.n	401324 <xQueueGenericReceive+0x160>
  4012c2:	4620      	mov	r0, r4
  4012c4:	4b2d      	ldr	r3, [pc, #180]	; (40137c <xQueueGenericReceive+0x1b8>)
  4012c6:	4798      	blx	r3
  4012c8:	4b2d      	ldr	r3, [pc, #180]	; (401380 <xQueueGenericReceive+0x1bc>)
  4012ca:	4798      	blx	r3
  4012cc:	2601      	movs	r6, #1
  4012ce:	47a8      	blx	r5
  4012d0:	6ba3      	ldr	r3, [r4, #56]	; 0x38
  4012d2:	2b00      	cmp	r3, #0
  4012d4:	d1b1      	bne.n	40123a <xQueueGenericReceive+0x76>
  4012d6:	9b01      	ldr	r3, [sp, #4]
  4012d8:	2b00      	cmp	r3, #0
  4012da:	d0e7      	beq.n	4012ac <xQueueGenericReceive+0xe8>
  4012dc:	b90e      	cbnz	r6, 4012e2 <xQueueGenericReceive+0x11e>
  4012de:	a802      	add	r0, sp, #8
  4012e0:	47d0      	blx	sl
  4012e2:	4b24      	ldr	r3, [pc, #144]	; (401374 <xQueueGenericReceive+0x1b0>)
  4012e4:	4798      	blx	r3
  4012e6:	4b27      	ldr	r3, [pc, #156]	; (401384 <xQueueGenericReceive+0x1c0>)
  4012e8:	4798      	blx	r3
  4012ea:	47a8      	blx	r5
  4012ec:	6c63      	ldr	r3, [r4, #68]	; 0x44
  4012ee:	f1b3 3fff 	cmp.w	r3, #4294967295
  4012f2:	d101      	bne.n	4012f8 <xQueueGenericReceive+0x134>
  4012f4:	2300      	movs	r3, #0
  4012f6:	6463      	str	r3, [r4, #68]	; 0x44
  4012f8:	6ca3      	ldr	r3, [r4, #72]	; 0x48
  4012fa:	f1b3 3fff 	cmp.w	r3, #4294967295
  4012fe:	d101      	bne.n	401304 <xQueueGenericReceive+0x140>
  401300:	2300      	movs	r3, #0
  401302:	64a3      	str	r3, [r4, #72]	; 0x48
  401304:	4b1b      	ldr	r3, [pc, #108]	; (401374 <xQueueGenericReceive+0x1b0>)
  401306:	4798      	blx	r3
  401308:	a901      	add	r1, sp, #4
  40130a:	a802      	add	r0, sp, #8
  40130c:	4b1e      	ldr	r3, [pc, #120]	; (401388 <xQueueGenericReceive+0x1c4>)
  40130e:	4798      	blx	r3
  401310:	b9e8      	cbnz	r0, 40134e <xQueueGenericReceive+0x18a>
  401312:	47a8      	blx	r5
  401314:	6ba6      	ldr	r6, [r4, #56]	; 0x38
  401316:	4b17      	ldr	r3, [pc, #92]	; (401374 <xQueueGenericReceive+0x1b0>)
  401318:	4798      	blx	r3
  40131a:	2e00      	cmp	r6, #0
  40131c:	d1d1      	bne.n	4012c2 <xQueueGenericReceive+0xfe>
  40131e:	6823      	ldr	r3, [r4, #0]
  401320:	2b00      	cmp	r3, #0
  401322:	d0c7      	beq.n	4012b4 <xQueueGenericReceive+0xf0>
  401324:	9901      	ldr	r1, [sp, #4]
  401326:	f104 0024 	add.w	r0, r4, #36	; 0x24
  40132a:	4b18      	ldr	r3, [pc, #96]	; (40138c <xQueueGenericReceive+0x1c8>)
  40132c:	4798      	blx	r3
  40132e:	4620      	mov	r0, r4
  401330:	4b12      	ldr	r3, [pc, #72]	; (40137c <xQueueGenericReceive+0x1b8>)
  401332:	4798      	blx	r3
  401334:	4b12      	ldr	r3, [pc, #72]	; (401380 <xQueueGenericReceive+0x1bc>)
  401336:	4798      	blx	r3
  401338:	2800      	cmp	r0, #0
  40133a:	d1c7      	bne.n	4012cc <xQueueGenericReceive+0x108>
  40133c:	f04f 5380 	mov.w	r3, #268435456	; 0x10000000
  401340:	f8c9 3000 	str.w	r3, [r9]
  401344:	f3bf 8f4f 	dsb	sy
  401348:	f3bf 8f6f 	isb	sy
  40134c:	e7be      	b.n	4012cc <xQueueGenericReceive+0x108>
  40134e:	4620      	mov	r0, r4
  401350:	4b0a      	ldr	r3, [pc, #40]	; (40137c <xQueueGenericReceive+0x1b8>)
  401352:	4798      	blx	r3
  401354:	4b0a      	ldr	r3, [pc, #40]	; (401380 <xQueueGenericReceive+0x1bc>)
  401356:	4798      	blx	r3
  401358:	2000      	movs	r0, #0
  40135a:	e791      	b.n	401280 <xQueueGenericReceive+0xbc>
  40135c:	00401e51 	.word	0x00401e51
  401360:	0040082d 	.word	0x0040082d
  401364:	00400c25 	.word	0x00400c25
  401368:	00401fd1 	.word	0x00401fd1
  40136c:	00401ce9 	.word	0x00401ce9
  401370:	e000ed04 	.word	0xe000ed04
  401374:	00400879 	.word	0x00400879
  401378:	00401e71 	.word	0x00401e71
  40137c:	00400c4d 	.word	0x00400c4d
  401380:	004018cd 	.word	0x004018cd
  401384:	00401765 	.word	0x00401765
  401388:	00401db1 	.word	0x00401db1
  40138c:	00401be5 	.word	0x00401be5
  401390:	00401d81 	.word	0x00401d81

00401394 <vQueueAddToRegistry>:
  401394:	b410      	push	{r4}
  401396:	4b0b      	ldr	r3, [pc, #44]	; (4013c4 <vQueueAddToRegistry+0x30>)
  401398:	681b      	ldr	r3, [r3, #0]
  40139a:	b153      	cbz	r3, 4013b2 <vQueueAddToRegistry+0x1e>
  40139c:	2301      	movs	r3, #1
  40139e:	4c09      	ldr	r4, [pc, #36]	; (4013c4 <vQueueAddToRegistry+0x30>)
  4013a0:	f854 2033 	ldr.w	r2, [r4, r3, lsl #3]
  4013a4:	b132      	cbz	r2, 4013b4 <vQueueAddToRegistry+0x20>
  4013a6:	3301      	adds	r3, #1
  4013a8:	2b08      	cmp	r3, #8
  4013aa:	d1f9      	bne.n	4013a0 <vQueueAddToRegistry+0xc>
  4013ac:	f85d 4b04 	ldr.w	r4, [sp], #4
  4013b0:	4770      	bx	lr
  4013b2:	2300      	movs	r3, #0
  4013b4:	4a03      	ldr	r2, [pc, #12]	; (4013c4 <vQueueAddToRegistry+0x30>)
  4013b6:	f842 1033 	str.w	r1, [r2, r3, lsl #3]
  4013ba:	eb02 03c3 	add.w	r3, r2, r3, lsl #3
  4013be:	6058      	str	r0, [r3, #4]
  4013c0:	e7f4      	b.n	4013ac <vQueueAddToRegistry+0x18>
  4013c2:	bf00      	nop
  4013c4:	2040ce18 	.word	0x2040ce18

004013c8 <vQueueWaitForMessageRestricted>:
  4013c8:	b570      	push	{r4, r5, r6, lr}
  4013ca:	4604      	mov	r4, r0
  4013cc:	460d      	mov	r5, r1
  4013ce:	4616      	mov	r6, r2
  4013d0:	4b0f      	ldr	r3, [pc, #60]	; (401410 <vQueueWaitForMessageRestricted+0x48>)
  4013d2:	4798      	blx	r3
  4013d4:	6c63      	ldr	r3, [r4, #68]	; 0x44
  4013d6:	f1b3 3fff 	cmp.w	r3, #4294967295
  4013da:	d00b      	beq.n	4013f4 <vQueueWaitForMessageRestricted+0x2c>
  4013dc:	6ca3      	ldr	r3, [r4, #72]	; 0x48
  4013de:	f1b3 3fff 	cmp.w	r3, #4294967295
  4013e2:	d00a      	beq.n	4013fa <vQueueWaitForMessageRestricted+0x32>
  4013e4:	4b0b      	ldr	r3, [pc, #44]	; (401414 <vQueueWaitForMessageRestricted+0x4c>)
  4013e6:	4798      	blx	r3
  4013e8:	6ba3      	ldr	r3, [r4, #56]	; 0x38
  4013ea:	b14b      	cbz	r3, 401400 <vQueueWaitForMessageRestricted+0x38>
  4013ec:	4620      	mov	r0, r4
  4013ee:	4b0a      	ldr	r3, [pc, #40]	; (401418 <vQueueWaitForMessageRestricted+0x50>)
  4013f0:	4798      	blx	r3
  4013f2:	bd70      	pop	{r4, r5, r6, pc}
  4013f4:	2300      	movs	r3, #0
  4013f6:	6463      	str	r3, [r4, #68]	; 0x44
  4013f8:	e7f0      	b.n	4013dc <vQueueWaitForMessageRestricted+0x14>
  4013fa:	2300      	movs	r3, #0
  4013fc:	64a3      	str	r3, [r4, #72]	; 0x48
  4013fe:	e7f1      	b.n	4013e4 <vQueueWaitForMessageRestricted+0x1c>
  401400:	4632      	mov	r2, r6
  401402:	4629      	mov	r1, r5
  401404:	f104 0024 	add.w	r0, r4, #36	; 0x24
  401408:	4b04      	ldr	r3, [pc, #16]	; (40141c <vQueueWaitForMessageRestricted+0x54>)
  40140a:	4798      	blx	r3
  40140c:	e7ee      	b.n	4013ec <vQueueWaitForMessageRestricted+0x24>
  40140e:	bf00      	nop
  401410:	0040082d 	.word	0x0040082d
  401414:	00400879 	.word	0x00400879
  401418:	00400c4d 	.word	0x00400c4d
  40141c:	00401c69 	.word	0x00401c69

00401420 <prvResetNextTaskUnblockTime>:
  401420:	4b08      	ldr	r3, [pc, #32]	; (401444 <prvResetNextTaskUnblockTime+0x24>)
  401422:	681b      	ldr	r3, [r3, #0]
  401424:	681b      	ldr	r3, [r3, #0]
  401426:	b13b      	cbz	r3, 401438 <prvResetNextTaskUnblockTime+0x18>
  401428:	4b06      	ldr	r3, [pc, #24]	; (401444 <prvResetNextTaskUnblockTime+0x24>)
  40142a:	681b      	ldr	r3, [r3, #0]
  40142c:	68db      	ldr	r3, [r3, #12]
  40142e:	68db      	ldr	r3, [r3, #12]
  401430:	685a      	ldr	r2, [r3, #4]
  401432:	4b05      	ldr	r3, [pc, #20]	; (401448 <prvResetNextTaskUnblockTime+0x28>)
  401434:	601a      	str	r2, [r3, #0]
  401436:	4770      	bx	lr
  401438:	f04f 32ff 	mov.w	r2, #4294967295
  40143c:	4b02      	ldr	r3, [pc, #8]	; (401448 <prvResetNextTaskUnblockTime+0x28>)
  40143e:	601a      	str	r2, [r3, #0]
  401440:	4770      	bx	lr
  401442:	bf00      	nop
  401444:	2040c208 	.word	0x2040c208
  401448:	2040c2b4 	.word	0x2040c2b4

0040144c <prvAddCurrentTaskToDelayedList>:
  40144c:	b510      	push	{r4, lr}
  40144e:	4b0f      	ldr	r3, [pc, #60]	; (40148c <prvAddCurrentTaskToDelayedList+0x40>)
  401450:	681b      	ldr	r3, [r3, #0]
  401452:	6058      	str	r0, [r3, #4]
  401454:	4b0e      	ldr	r3, [pc, #56]	; (401490 <prvAddCurrentTaskToDelayedList+0x44>)
  401456:	681b      	ldr	r3, [r3, #0]
  401458:	4298      	cmp	r0, r3
  40145a:	d30e      	bcc.n	40147a <prvAddCurrentTaskToDelayedList+0x2e>
  40145c:	4604      	mov	r4, r0
  40145e:	4b0d      	ldr	r3, [pc, #52]	; (401494 <prvAddCurrentTaskToDelayedList+0x48>)
  401460:	6818      	ldr	r0, [r3, #0]
  401462:	4b0a      	ldr	r3, [pc, #40]	; (40148c <prvAddCurrentTaskToDelayedList+0x40>)
  401464:	6819      	ldr	r1, [r3, #0]
  401466:	3104      	adds	r1, #4
  401468:	4b0b      	ldr	r3, [pc, #44]	; (401498 <prvAddCurrentTaskToDelayedList+0x4c>)
  40146a:	4798      	blx	r3
  40146c:	4b0b      	ldr	r3, [pc, #44]	; (40149c <prvAddCurrentTaskToDelayedList+0x50>)
  40146e:	681b      	ldr	r3, [r3, #0]
  401470:	429c      	cmp	r4, r3
  401472:	d201      	bcs.n	401478 <prvAddCurrentTaskToDelayedList+0x2c>
  401474:	4b09      	ldr	r3, [pc, #36]	; (40149c <prvAddCurrentTaskToDelayedList+0x50>)
  401476:	601c      	str	r4, [r3, #0]
  401478:	bd10      	pop	{r4, pc}
  40147a:	4b09      	ldr	r3, [pc, #36]	; (4014a0 <prvAddCurrentTaskToDelayedList+0x54>)
  40147c:	6818      	ldr	r0, [r3, #0]
  40147e:	4b03      	ldr	r3, [pc, #12]	; (40148c <prvAddCurrentTaskToDelayedList+0x40>)
  401480:	6819      	ldr	r1, [r3, #0]
  401482:	3104      	adds	r1, #4
  401484:	4b04      	ldr	r3, [pc, #16]	; (401498 <prvAddCurrentTaskToDelayedList+0x4c>)
  401486:	4798      	blx	r3
  401488:	bd10      	pop	{r4, pc}
  40148a:	bf00      	nop
  40148c:	2040c204 	.word	0x2040c204
  401490:	2040c2fc 	.word	0x2040c2fc
  401494:	2040c208 	.word	0x2040c208
  401498:	00400715 	.word	0x00400715
  40149c:	2040c2b4 	.word	0x2040c2b4
  4014a0:	2040c20c 	.word	0x2040c20c

004014a4 <xTaskGenericCreate>:
  4014a4:	e92d 4ff0 	stmdb	sp!, {r4, r5, r6, r7, r8, r9, sl, fp, lr}
  4014a8:	b083      	sub	sp, #12
  4014aa:	9d0c      	ldr	r5, [sp, #48]	; 0x30
  4014ac:	f8dd a034 	ldr.w	sl, [sp, #52]	; 0x34
  4014b0:	9e0e      	ldr	r6, [sp, #56]	; 0x38
  4014b2:	b160      	cbz	r0, 4014ce <xTaskGenericCreate+0x2a>
  4014b4:	2d04      	cmp	r5, #4
  4014b6:	d915      	bls.n	4014e4 <xTaskGenericCreate+0x40>
  4014b8:	f04f 0380 	mov.w	r3, #128	; 0x80
  4014bc:	b672      	cpsid	i
  4014be:	f383 8811 	msr	BASEPRI, r3
  4014c2:	f3bf 8f6f 	isb	sy
  4014c6:	f3bf 8f4f 	dsb	sy
  4014ca:	b662      	cpsie	i
  4014cc:	e7fe      	b.n	4014cc <xTaskGenericCreate+0x28>
  4014ce:	f04f 0380 	mov.w	r3, #128	; 0x80
  4014d2:	b672      	cpsid	i
  4014d4:	f383 8811 	msr	BASEPRI, r3
  4014d8:	f3bf 8f6f 	isb	sy
  4014dc:	f3bf 8f4f 	dsb	sy
  4014e0:	b662      	cpsie	i
  4014e2:	e7fe      	b.n	4014e2 <xTaskGenericCreate+0x3e>
  4014e4:	9001      	str	r0, [sp, #4]
  4014e6:	4698      	mov	r8, r3
  4014e8:	4691      	mov	r9, r2
  4014ea:	460f      	mov	r7, r1
  4014ec:	b936      	cbnz	r6, 4014fc <xTaskGenericCreate+0x58>
  4014ee:	0090      	lsls	r0, r2, #2
  4014f0:	4b62      	ldr	r3, [pc, #392]	; (40167c <xTaskGenericCreate+0x1d8>)
  4014f2:	4798      	blx	r3
  4014f4:	4606      	mov	r6, r0
  4014f6:	2800      	cmp	r0, #0
  4014f8:	f000 809e 	beq.w	401638 <xTaskGenericCreate+0x194>
  4014fc:	2058      	movs	r0, #88	; 0x58
  4014fe:	4b5f      	ldr	r3, [pc, #380]	; (40167c <xTaskGenericCreate+0x1d8>)
  401500:	4798      	blx	r3
  401502:	4604      	mov	r4, r0
  401504:	2800      	cmp	r0, #0
  401506:	f000 8094 	beq.w	401632 <xTaskGenericCreate+0x18e>
  40150a:	6306      	str	r6, [r0, #48]	; 0x30
  40150c:	ea4f 0289 	mov.w	r2, r9, lsl #2
  401510:	21a5      	movs	r1, #165	; 0xa5
  401512:	4630      	mov	r0, r6
  401514:	4b5a      	ldr	r3, [pc, #360]	; (401680 <xTaskGenericCreate+0x1dc>)
  401516:	4798      	blx	r3
  401518:	f06f 4640 	mvn.w	r6, #3221225472	; 0xc0000000
  40151c:	444e      	add	r6, r9
  40151e:	6b23      	ldr	r3, [r4, #48]	; 0x30
  401520:	eb03 0386 	add.w	r3, r3, r6, lsl #2
  401524:	f023 0607 	bic.w	r6, r3, #7
  401528:	783b      	ldrb	r3, [r7, #0]
  40152a:	f884 3034 	strb.w	r3, [r4, #52]	; 0x34
  40152e:	783b      	ldrb	r3, [r7, #0]
  401530:	2b00      	cmp	r3, #0
  401532:	f040 8084 	bne.w	40163e <xTaskGenericCreate+0x19a>
  401536:	2700      	movs	r7, #0
  401538:	f884 703d 	strb.w	r7, [r4, #61]	; 0x3d
  40153c:	62e5      	str	r5, [r4, #44]	; 0x2c
  40153e:	64a5      	str	r5, [r4, #72]	; 0x48
  401540:	64e7      	str	r7, [r4, #76]	; 0x4c
  401542:	f104 0904 	add.w	r9, r4, #4
  401546:	4648      	mov	r0, r9
  401548:	f8df b184 	ldr.w	fp, [pc, #388]	; 4016d0 <xTaskGenericCreate+0x22c>
  40154c:	47d8      	blx	fp
  40154e:	f104 0018 	add.w	r0, r4, #24
  401552:	47d8      	blx	fp
  401554:	6124      	str	r4, [r4, #16]
  401556:	f1c5 0305 	rsb	r3, r5, #5
  40155a:	61a3      	str	r3, [r4, #24]
  40155c:	6264      	str	r4, [r4, #36]	; 0x24
  40155e:	6527      	str	r7, [r4, #80]	; 0x50
  401560:	f884 7054 	strb.w	r7, [r4, #84]	; 0x54
  401564:	4642      	mov	r2, r8
  401566:	9901      	ldr	r1, [sp, #4]
  401568:	4630      	mov	r0, r6
  40156a:	4b46      	ldr	r3, [pc, #280]	; (401684 <xTaskGenericCreate+0x1e0>)
  40156c:	4798      	blx	r3
  40156e:	6020      	str	r0, [r4, #0]
  401570:	f1ba 0f00 	cmp.w	sl, #0
  401574:	d001      	beq.n	40157a <xTaskGenericCreate+0xd6>
  401576:	f8ca 4000 	str.w	r4, [sl]
  40157a:	4b43      	ldr	r3, [pc, #268]	; (401688 <xTaskGenericCreate+0x1e4>)
  40157c:	4798      	blx	r3
  40157e:	4a43      	ldr	r2, [pc, #268]	; (40168c <xTaskGenericCreate+0x1e8>)
  401580:	6813      	ldr	r3, [r2, #0]
  401582:	3301      	adds	r3, #1
  401584:	6013      	str	r3, [r2, #0]
  401586:	4b42      	ldr	r3, [pc, #264]	; (401690 <xTaskGenericCreate+0x1ec>)
  401588:	681b      	ldr	r3, [r3, #0]
  40158a:	2b00      	cmp	r3, #0
  40158c:	d166      	bne.n	40165c <xTaskGenericCreate+0x1b8>
  40158e:	4b40      	ldr	r3, [pc, #256]	; (401690 <xTaskGenericCreate+0x1ec>)
  401590:	601c      	str	r4, [r3, #0]
  401592:	6813      	ldr	r3, [r2, #0]
  401594:	2b01      	cmp	r3, #1
  401596:	d121      	bne.n	4015dc <xTaskGenericCreate+0x138>
  401598:	4f3e      	ldr	r7, [pc, #248]	; (401694 <xTaskGenericCreate+0x1f0>)
  40159a:	4638      	mov	r0, r7
  40159c:	4e3e      	ldr	r6, [pc, #248]	; (401698 <xTaskGenericCreate+0x1f4>)
  40159e:	47b0      	blx	r6
  4015a0:	f107 0014 	add.w	r0, r7, #20
  4015a4:	47b0      	blx	r6
  4015a6:	f107 0028 	add.w	r0, r7, #40	; 0x28
  4015aa:	47b0      	blx	r6
  4015ac:	f107 003c 	add.w	r0, r7, #60	; 0x3c
  4015b0:	47b0      	blx	r6
  4015b2:	f107 0050 	add.w	r0, r7, #80	; 0x50
  4015b6:	47b0      	blx	r6
  4015b8:	f8df 8118 	ldr.w	r8, [pc, #280]	; 4016d4 <xTaskGenericCreate+0x230>
  4015bc:	4640      	mov	r0, r8
  4015be:	47b0      	blx	r6
  4015c0:	4f36      	ldr	r7, [pc, #216]	; (40169c <xTaskGenericCreate+0x1f8>)
  4015c2:	4638      	mov	r0, r7
  4015c4:	47b0      	blx	r6
  4015c6:	4836      	ldr	r0, [pc, #216]	; (4016a0 <xTaskGenericCreate+0x1fc>)
  4015c8:	47b0      	blx	r6
  4015ca:	4836      	ldr	r0, [pc, #216]	; (4016a4 <xTaskGenericCreate+0x200>)
  4015cc:	47b0      	blx	r6
  4015ce:	4836      	ldr	r0, [pc, #216]	; (4016a8 <xTaskGenericCreate+0x204>)
  4015d0:	47b0      	blx	r6
  4015d2:	4b36      	ldr	r3, [pc, #216]	; (4016ac <xTaskGenericCreate+0x208>)
  4015d4:	f8c3 8000 	str.w	r8, [r3]
  4015d8:	4b35      	ldr	r3, [pc, #212]	; (4016b0 <xTaskGenericCreate+0x20c>)
  4015da:	601f      	str	r7, [r3, #0]
  4015dc:	4a35      	ldr	r2, [pc, #212]	; (4016b4 <xTaskGenericCreate+0x210>)
  4015de:	6813      	ldr	r3, [r2, #0]
  4015e0:	3301      	adds	r3, #1
  4015e2:	6013      	str	r3, [r2, #0]
  4015e4:	6423      	str	r3, [r4, #64]	; 0x40
  4015e6:	6ae0      	ldr	r0, [r4, #44]	; 0x2c
  4015e8:	4a33      	ldr	r2, [pc, #204]	; (4016b8 <xTaskGenericCreate+0x214>)
  4015ea:	6811      	ldr	r1, [r2, #0]
  4015ec:	2301      	movs	r3, #1
  4015ee:	4083      	lsls	r3, r0
  4015f0:	430b      	orrs	r3, r1
  4015f2:	6013      	str	r3, [r2, #0]
  4015f4:	eb00 0080 	add.w	r0, r0, r0, lsl #2
  4015f8:	4649      	mov	r1, r9
  4015fa:	4b26      	ldr	r3, [pc, #152]	; (401694 <xTaskGenericCreate+0x1f0>)
  4015fc:	eb03 0080 	add.w	r0, r3, r0, lsl #2
  401600:	4b2e      	ldr	r3, [pc, #184]	; (4016bc <xTaskGenericCreate+0x218>)
  401602:	4798      	blx	r3
  401604:	4b2e      	ldr	r3, [pc, #184]	; (4016c0 <xTaskGenericCreate+0x21c>)
  401606:	4798      	blx	r3
  401608:	4b2e      	ldr	r3, [pc, #184]	; (4016c4 <xTaskGenericCreate+0x220>)
  40160a:	681b      	ldr	r3, [r3, #0]
  40160c:	2b00      	cmp	r3, #0
  40160e:	d031      	beq.n	401674 <xTaskGenericCreate+0x1d0>
  401610:	4b1f      	ldr	r3, [pc, #124]	; (401690 <xTaskGenericCreate+0x1ec>)
  401612:	681b      	ldr	r3, [r3, #0]
  401614:	6adb      	ldr	r3, [r3, #44]	; 0x2c
  401616:	429d      	cmp	r5, r3
  401618:	d92e      	bls.n	401678 <xTaskGenericCreate+0x1d4>
  40161a:	f04f 5280 	mov.w	r2, #268435456	; 0x10000000
  40161e:	4b2a      	ldr	r3, [pc, #168]	; (4016c8 <xTaskGenericCreate+0x224>)
  401620:	601a      	str	r2, [r3, #0]
  401622:	f3bf 8f4f 	dsb	sy
  401626:	f3bf 8f6f 	isb	sy
  40162a:	2001      	movs	r0, #1
  40162c:	b003      	add	sp, #12
  40162e:	e8bd 8ff0 	ldmia.w	sp!, {r4, r5, r6, r7, r8, r9, sl, fp, pc}
  401632:	4630      	mov	r0, r6
  401634:	4b25      	ldr	r3, [pc, #148]	; (4016cc <xTaskGenericCreate+0x228>)
  401636:	4798      	blx	r3
  401638:	f04f 30ff 	mov.w	r0, #4294967295
  40163c:	e7f6      	b.n	40162c <xTaskGenericCreate+0x188>
  40163e:	463b      	mov	r3, r7
  401640:	f104 0234 	add.w	r2, r4, #52	; 0x34
  401644:	3709      	adds	r7, #9
  401646:	7859      	ldrb	r1, [r3, #1]
  401648:	f802 1f01 	strb.w	r1, [r2, #1]!
  40164c:	f813 1f01 	ldrb.w	r1, [r3, #1]!
  401650:	2900      	cmp	r1, #0
  401652:	f43f af70 	beq.w	401536 <xTaskGenericCreate+0x92>
  401656:	42bb      	cmp	r3, r7
  401658:	d1f5      	bne.n	401646 <xTaskGenericCreate+0x1a2>
  40165a:	e76c      	b.n	401536 <xTaskGenericCreate+0x92>
  40165c:	4b19      	ldr	r3, [pc, #100]	; (4016c4 <xTaskGenericCreate+0x220>)
  40165e:	681b      	ldr	r3, [r3, #0]
  401660:	2b00      	cmp	r3, #0
  401662:	d1bb      	bne.n	4015dc <xTaskGenericCreate+0x138>
  401664:	4b0a      	ldr	r3, [pc, #40]	; (401690 <xTaskGenericCreate+0x1ec>)
  401666:	681b      	ldr	r3, [r3, #0]
  401668:	6adb      	ldr	r3, [r3, #44]	; 0x2c
  40166a:	429d      	cmp	r5, r3
  40166c:	d3b6      	bcc.n	4015dc <xTaskGenericCreate+0x138>
  40166e:	4b08      	ldr	r3, [pc, #32]	; (401690 <xTaskGenericCreate+0x1ec>)
  401670:	601c      	str	r4, [r3, #0]
  401672:	e7b3      	b.n	4015dc <xTaskGenericCreate+0x138>
  401674:	2001      	movs	r0, #1
  401676:	e7d9      	b.n	40162c <xTaskGenericCreate+0x188>
  401678:	2001      	movs	r0, #1
  40167a:	e7d7      	b.n	40162c <xTaskGenericCreate+0x188>
  40167c:	00400a89 	.word	0x00400a89
  401680:	00407711 	.word	0x00407711
  401684:	004007e1 	.word	0x004007e1
  401688:	0040082d 	.word	0x0040082d
  40168c:	2040c274 	.word	0x2040c274
  401690:	2040c204 	.word	0x2040c204
  401694:	2040c210 	.word	0x2040c210
  401698:	004006e1 	.word	0x004006e1
  40169c:	2040c2a0 	.word	0x2040c2a0
  4016a0:	2040c2bc 	.word	0x2040c2bc
  4016a4:	2040c2e8 	.word	0x2040c2e8
  4016a8:	2040c2d4 	.word	0x2040c2d4
  4016ac:	2040c208 	.word	0x2040c208
  4016b0:	2040c20c 	.word	0x2040c20c
  4016b4:	2040c280 	.word	0x2040c280
  4016b8:	2040c288 	.word	0x2040c288
  4016bc:	004006fd 	.word	0x004006fd
  4016c0:	00400879 	.word	0x00400879
  4016c4:	2040c2d0 	.word	0x2040c2d0
  4016c8:	e000ed04 	.word	0xe000ed04
  4016cc:	00400af9 	.word	0x00400af9
  4016d0:	004006f7 	.word	0x004006f7
  4016d4:	2040c28c 	.word	0x2040c28c

004016d8 <vTaskStartScheduler>:
  4016d8:	b510      	push	{r4, lr}
  4016da:	b084      	sub	sp, #16
  4016dc:	2300      	movs	r3, #0
  4016de:	9303      	str	r3, [sp, #12]
  4016e0:	9302      	str	r3, [sp, #8]
  4016e2:	9301      	str	r3, [sp, #4]
  4016e4:	9300      	str	r3, [sp, #0]
  4016e6:	2282      	movs	r2, #130	; 0x82
  4016e8:	4916      	ldr	r1, [pc, #88]	; (401744 <vTaskStartScheduler+0x6c>)
  4016ea:	4817      	ldr	r0, [pc, #92]	; (401748 <vTaskStartScheduler+0x70>)
  4016ec:	4c17      	ldr	r4, [pc, #92]	; (40174c <vTaskStartScheduler+0x74>)
  4016ee:	47a0      	blx	r4
  4016f0:	2801      	cmp	r0, #1
  4016f2:	d00b      	beq.n	40170c <vTaskStartScheduler+0x34>
  4016f4:	bb20      	cbnz	r0, 401740 <vTaskStartScheduler+0x68>
  4016f6:	f04f 0380 	mov.w	r3, #128	; 0x80
  4016fa:	b672      	cpsid	i
  4016fc:	f383 8811 	msr	BASEPRI, r3
  401700:	f3bf 8f6f 	isb	sy
  401704:	f3bf 8f4f 	dsb	sy
  401708:	b662      	cpsie	i
  40170a:	e7fe      	b.n	40170a <vTaskStartScheduler+0x32>
  40170c:	4b10      	ldr	r3, [pc, #64]	; (401750 <vTaskStartScheduler+0x78>)
  40170e:	4798      	blx	r3
  401710:	2801      	cmp	r0, #1
  401712:	d1ef      	bne.n	4016f4 <vTaskStartScheduler+0x1c>
  401714:	f04f 0380 	mov.w	r3, #128	; 0x80
  401718:	b672      	cpsid	i
  40171a:	f383 8811 	msr	BASEPRI, r3
  40171e:	f3bf 8f6f 	isb	sy
  401722:	f3bf 8f4f 	dsb	sy
  401726:	b662      	cpsie	i
  401728:	f04f 32ff 	mov.w	r2, #4294967295
  40172c:	4b09      	ldr	r3, [pc, #36]	; (401754 <vTaskStartScheduler+0x7c>)
  40172e:	601a      	str	r2, [r3, #0]
  401730:	2201      	movs	r2, #1
  401732:	4b09      	ldr	r3, [pc, #36]	; (401758 <vTaskStartScheduler+0x80>)
  401734:	601a      	str	r2, [r3, #0]
  401736:	2200      	movs	r2, #0
  401738:	4b08      	ldr	r3, [pc, #32]	; (40175c <vTaskStartScheduler+0x84>)
  40173a:	601a      	str	r2, [r3, #0]
  40173c:	4b08      	ldr	r3, [pc, #32]	; (401760 <vTaskStartScheduler+0x88>)
  40173e:	4798      	blx	r3
  401740:	b004      	add	sp, #16
  401742:	bd10      	pop	{r4, pc}
  401744:	0040d290 	.word	0x0040d290
  401748:	00401a7d 	.word	0x00401a7d
  40174c:	004014a5 	.word	0x004014a5
  401750:	004020bd 	.word	0x004020bd
  401754:	2040c2b4 	.word	0x2040c2b4
  401758:	2040c2d0 	.word	0x2040c2d0
  40175c:	2040c2fc 	.word	0x2040c2fc
  401760:	00400961 	.word	0x00400961

00401764 <vTaskSuspendAll>:
  401764:	4a02      	ldr	r2, [pc, #8]	; (401770 <vTaskSuspendAll+0xc>)
  401766:	6813      	ldr	r3, [r2, #0]
  401768:	3301      	adds	r3, #1
  40176a:	6013      	str	r3, [r2, #0]
  40176c:	4770      	bx	lr
  40176e:	bf00      	nop
  401770:	2040c27c 	.word	0x2040c27c

00401774 <xTaskGetTickCount>:
  401774:	4b01      	ldr	r3, [pc, #4]	; (40177c <xTaskGetTickCount+0x8>)
  401776:	6818      	ldr	r0, [r3, #0]
  401778:	4770      	bx	lr
  40177a:	bf00      	nop
  40177c:	2040c2fc 	.word	0x2040c2fc

00401780 <xTaskIncrementTick>:
  401780:	e92d 47f0 	stmdb	sp!, {r4, r5, r6, r7, r8, r9, sl, lr}
  401784:	4b42      	ldr	r3, [pc, #264]	; (401890 <xTaskIncrementTick+0x110>)
  401786:	681b      	ldr	r3, [r3, #0]
  401788:	2b00      	cmp	r3, #0
  40178a:	d178      	bne.n	40187e <xTaskIncrementTick+0xfe>
  40178c:	4b41      	ldr	r3, [pc, #260]	; (401894 <xTaskIncrementTick+0x114>)
  40178e:	681a      	ldr	r2, [r3, #0]
  401790:	3201      	adds	r2, #1
  401792:	601a      	str	r2, [r3, #0]
  401794:	681e      	ldr	r6, [r3, #0]
  401796:	b9d6      	cbnz	r6, 4017ce <xTaskIncrementTick+0x4e>
  401798:	4b3f      	ldr	r3, [pc, #252]	; (401898 <xTaskIncrementTick+0x118>)
  40179a:	681b      	ldr	r3, [r3, #0]
  40179c:	681b      	ldr	r3, [r3, #0]
  40179e:	b153      	cbz	r3, 4017b6 <xTaskIncrementTick+0x36>
  4017a0:	f04f 0380 	mov.w	r3, #128	; 0x80
  4017a4:	b672      	cpsid	i
  4017a6:	f383 8811 	msr	BASEPRI, r3
  4017aa:	f3bf 8f6f 	isb	sy
  4017ae:	f3bf 8f4f 	dsb	sy
  4017b2:	b662      	cpsie	i
  4017b4:	e7fe      	b.n	4017b4 <xTaskIncrementTick+0x34>
  4017b6:	4a38      	ldr	r2, [pc, #224]	; (401898 <xTaskIncrementTick+0x118>)
  4017b8:	6811      	ldr	r1, [r2, #0]
  4017ba:	4b38      	ldr	r3, [pc, #224]	; (40189c <xTaskIncrementTick+0x11c>)
  4017bc:	6818      	ldr	r0, [r3, #0]
  4017be:	6010      	str	r0, [r2, #0]
  4017c0:	6019      	str	r1, [r3, #0]
  4017c2:	4a37      	ldr	r2, [pc, #220]	; (4018a0 <xTaskIncrementTick+0x120>)
  4017c4:	6813      	ldr	r3, [r2, #0]
  4017c6:	3301      	adds	r3, #1
  4017c8:	6013      	str	r3, [r2, #0]
  4017ca:	4b36      	ldr	r3, [pc, #216]	; (4018a4 <xTaskIncrementTick+0x124>)
  4017cc:	4798      	blx	r3
  4017ce:	4b36      	ldr	r3, [pc, #216]	; (4018a8 <xTaskIncrementTick+0x128>)
  4017d0:	681b      	ldr	r3, [r3, #0]
  4017d2:	429e      	cmp	r6, r3
  4017d4:	d218      	bcs.n	401808 <xTaskIncrementTick+0x88>
  4017d6:	2400      	movs	r4, #0
  4017d8:	4b34      	ldr	r3, [pc, #208]	; (4018ac <xTaskIncrementTick+0x12c>)
  4017da:	681b      	ldr	r3, [r3, #0]
  4017dc:	6adb      	ldr	r3, [r3, #44]	; 0x2c
  4017de:	eb03 0383 	add.w	r3, r3, r3, lsl #2
  4017e2:	4a33      	ldr	r2, [pc, #204]	; (4018b0 <xTaskIncrementTick+0x130>)
  4017e4:	f852 3023 	ldr.w	r3, [r2, r3, lsl #2]
  4017e8:	2b02      	cmp	r3, #2
  4017ea:	bf28      	it	cs
  4017ec:	2401      	movcs	r4, #1
  4017ee:	4b31      	ldr	r3, [pc, #196]	; (4018b4 <xTaskIncrementTick+0x134>)
  4017f0:	681b      	ldr	r3, [r3, #0]
  4017f2:	b90b      	cbnz	r3, 4017f8 <xTaskIncrementTick+0x78>
  4017f4:	4b30      	ldr	r3, [pc, #192]	; (4018b8 <xTaskIncrementTick+0x138>)
  4017f6:	4798      	blx	r3
  4017f8:	4b30      	ldr	r3, [pc, #192]	; (4018bc <xTaskIncrementTick+0x13c>)
  4017fa:	681b      	ldr	r3, [r3, #0]
  4017fc:	2b00      	cmp	r3, #0
  4017fe:	bf0c      	ite	eq
  401800:	4620      	moveq	r0, r4
  401802:	2001      	movne	r0, #1
  401804:	e8bd 87f0 	ldmia.w	sp!, {r4, r5, r6, r7, r8, r9, sl, pc}
  401808:	2400      	movs	r4, #0
  40180a:	f8df 908c 	ldr.w	r9, [pc, #140]	; 401898 <xTaskIncrementTick+0x118>
  40180e:	f8df 80b8 	ldr.w	r8, [pc, #184]	; 4018c8 <xTaskIncrementTick+0x148>
  401812:	4f2b      	ldr	r7, [pc, #172]	; (4018c0 <xTaskIncrementTick+0x140>)
  401814:	e01f      	b.n	401856 <xTaskIncrementTick+0xd6>
  401816:	f04f 32ff 	mov.w	r2, #4294967295
  40181a:	4b23      	ldr	r3, [pc, #140]	; (4018a8 <xTaskIncrementTick+0x128>)
  40181c:	601a      	str	r2, [r3, #0]
  40181e:	e7db      	b.n	4017d8 <xTaskIncrementTick+0x58>
  401820:	4a21      	ldr	r2, [pc, #132]	; (4018a8 <xTaskIncrementTick+0x128>)
  401822:	6013      	str	r3, [r2, #0]
  401824:	e7d8      	b.n	4017d8 <xTaskIncrementTick+0x58>
  401826:	f105 0018 	add.w	r0, r5, #24
  40182a:	47c0      	blx	r8
  40182c:	6ae8      	ldr	r0, [r5, #44]	; 0x2c
  40182e:	683a      	ldr	r2, [r7, #0]
  401830:	2301      	movs	r3, #1
  401832:	4083      	lsls	r3, r0
  401834:	4313      	orrs	r3, r2
  401836:	603b      	str	r3, [r7, #0]
  401838:	eb00 0080 	add.w	r0, r0, r0, lsl #2
  40183c:	4651      	mov	r1, sl
  40183e:	4b1c      	ldr	r3, [pc, #112]	; (4018b0 <xTaskIncrementTick+0x130>)
  401840:	eb03 0080 	add.w	r0, r3, r0, lsl #2
  401844:	4b1f      	ldr	r3, [pc, #124]	; (4018c4 <xTaskIncrementTick+0x144>)
  401846:	4798      	blx	r3
  401848:	4b18      	ldr	r3, [pc, #96]	; (4018ac <xTaskIncrementTick+0x12c>)
  40184a:	681b      	ldr	r3, [r3, #0]
  40184c:	6aea      	ldr	r2, [r5, #44]	; 0x2c
  40184e:	6adb      	ldr	r3, [r3, #44]	; 0x2c
  401850:	429a      	cmp	r2, r3
  401852:	bf28      	it	cs
  401854:	2401      	movcs	r4, #1
  401856:	f8d9 3000 	ldr.w	r3, [r9]
  40185a:	681b      	ldr	r3, [r3, #0]
  40185c:	2b00      	cmp	r3, #0
  40185e:	d0da      	beq.n	401816 <xTaskIncrementTick+0x96>
  401860:	f8d9 3000 	ldr.w	r3, [r9]
  401864:	68db      	ldr	r3, [r3, #12]
  401866:	68dd      	ldr	r5, [r3, #12]
  401868:	686b      	ldr	r3, [r5, #4]
  40186a:	429e      	cmp	r6, r3
  40186c:	d3d8      	bcc.n	401820 <xTaskIncrementTick+0xa0>
  40186e:	f105 0a04 	add.w	sl, r5, #4
  401872:	4650      	mov	r0, sl
  401874:	47c0      	blx	r8
  401876:	6aab      	ldr	r3, [r5, #40]	; 0x28
  401878:	2b00      	cmp	r3, #0
  40187a:	d1d4      	bne.n	401826 <xTaskIncrementTick+0xa6>
  40187c:	e7d6      	b.n	40182c <xTaskIncrementTick+0xac>
  40187e:	4a0d      	ldr	r2, [pc, #52]	; (4018b4 <xTaskIncrementTick+0x134>)
  401880:	6813      	ldr	r3, [r2, #0]
  401882:	3301      	adds	r3, #1
  401884:	6013      	str	r3, [r2, #0]
  401886:	4b0c      	ldr	r3, [pc, #48]	; (4018b8 <xTaskIncrementTick+0x138>)
  401888:	4798      	blx	r3
  40188a:	2400      	movs	r4, #0
  40188c:	e7b4      	b.n	4017f8 <xTaskIncrementTick+0x78>
  40188e:	bf00      	nop
  401890:	2040c27c 	.word	0x2040c27c
  401894:	2040c2fc 	.word	0x2040c2fc
  401898:	2040c208 	.word	0x2040c208
  40189c:	2040c20c 	.word	0x2040c20c
  4018a0:	2040c2b8 	.word	0x2040c2b8
  4018a4:	00401421 	.word	0x00401421
  4018a8:	2040c2b4 	.word	0x2040c2b4
  4018ac:	2040c204 	.word	0x2040c204
  4018b0:	2040c210 	.word	0x2040c210
  4018b4:	2040c278 	.word	0x2040c278
  4018b8:	00406345 	.word	0x00406345
  4018bc:	2040c300 	.word	0x2040c300
  4018c0:	2040c288 	.word	0x2040c288
  4018c4:	004006fd 	.word	0x004006fd
  4018c8:	00400749 	.word	0x00400749

004018cc <xTaskResumeAll>:
  4018cc:	e92d 43f8 	stmdb	sp!, {r3, r4, r5, r6, r7, r8, r9, lr}
  4018d0:	4b38      	ldr	r3, [pc, #224]	; (4019b4 <xTaskResumeAll+0xe8>)
  4018d2:	681b      	ldr	r3, [r3, #0]
  4018d4:	b953      	cbnz	r3, 4018ec <xTaskResumeAll+0x20>
  4018d6:	f04f 0380 	mov.w	r3, #128	; 0x80
  4018da:	b672      	cpsid	i
  4018dc:	f383 8811 	msr	BASEPRI, r3
  4018e0:	f3bf 8f6f 	isb	sy
  4018e4:	f3bf 8f4f 	dsb	sy
  4018e8:	b662      	cpsie	i
  4018ea:	e7fe      	b.n	4018ea <xTaskResumeAll+0x1e>
  4018ec:	4b32      	ldr	r3, [pc, #200]	; (4019b8 <xTaskResumeAll+0xec>)
  4018ee:	4798      	blx	r3
  4018f0:	4b30      	ldr	r3, [pc, #192]	; (4019b4 <xTaskResumeAll+0xe8>)
  4018f2:	681a      	ldr	r2, [r3, #0]
  4018f4:	3a01      	subs	r2, #1
  4018f6:	601a      	str	r2, [r3, #0]
  4018f8:	681b      	ldr	r3, [r3, #0]
  4018fa:	2b00      	cmp	r3, #0
  4018fc:	d155      	bne.n	4019aa <xTaskResumeAll+0xde>
  4018fe:	4b2f      	ldr	r3, [pc, #188]	; (4019bc <xTaskResumeAll+0xf0>)
  401900:	681b      	ldr	r3, [r3, #0]
  401902:	2b00      	cmp	r3, #0
  401904:	d132      	bne.n	40196c <xTaskResumeAll+0xa0>
  401906:	2400      	movs	r4, #0
  401908:	4b2d      	ldr	r3, [pc, #180]	; (4019c0 <xTaskResumeAll+0xf4>)
  40190a:	4798      	blx	r3
  40190c:	4620      	mov	r0, r4
  40190e:	e8bd 83f8 	ldmia.w	sp!, {r3, r4, r5, r6, r7, r8, r9, pc}
  401912:	68fb      	ldr	r3, [r7, #12]
  401914:	68dc      	ldr	r4, [r3, #12]
  401916:	f104 0018 	add.w	r0, r4, #24
  40191a:	47b0      	blx	r6
  40191c:	f104 0804 	add.w	r8, r4, #4
  401920:	4640      	mov	r0, r8
  401922:	47b0      	blx	r6
  401924:	6ae0      	ldr	r0, [r4, #44]	; 0x2c
  401926:	682a      	ldr	r2, [r5, #0]
  401928:	2301      	movs	r3, #1
  40192a:	4083      	lsls	r3, r0
  40192c:	4313      	orrs	r3, r2
  40192e:	602b      	str	r3, [r5, #0]
  401930:	eb00 0080 	add.w	r0, r0, r0, lsl #2
  401934:	4641      	mov	r1, r8
  401936:	eb09 0080 	add.w	r0, r9, r0, lsl #2
  40193a:	4b22      	ldr	r3, [pc, #136]	; (4019c4 <xTaskResumeAll+0xf8>)
  40193c:	4798      	blx	r3
  40193e:	4b22      	ldr	r3, [pc, #136]	; (4019c8 <xTaskResumeAll+0xfc>)
  401940:	681b      	ldr	r3, [r3, #0]
  401942:	6ae2      	ldr	r2, [r4, #44]	; 0x2c
  401944:	6adb      	ldr	r3, [r3, #44]	; 0x2c
  401946:	429a      	cmp	r2, r3
  401948:	d20c      	bcs.n	401964 <xTaskResumeAll+0x98>
  40194a:	683b      	ldr	r3, [r7, #0]
  40194c:	2b00      	cmp	r3, #0
  40194e:	d1e0      	bne.n	401912 <xTaskResumeAll+0x46>
  401950:	4b1e      	ldr	r3, [pc, #120]	; (4019cc <xTaskResumeAll+0x100>)
  401952:	681b      	ldr	r3, [r3, #0]
  401954:	b1db      	cbz	r3, 40198e <xTaskResumeAll+0xc2>
  401956:	4b1d      	ldr	r3, [pc, #116]	; (4019cc <xTaskResumeAll+0x100>)
  401958:	681b      	ldr	r3, [r3, #0]
  40195a:	b1c3      	cbz	r3, 40198e <xTaskResumeAll+0xc2>
  40195c:	4e1c      	ldr	r6, [pc, #112]	; (4019d0 <xTaskResumeAll+0x104>)
  40195e:	4d1d      	ldr	r5, [pc, #116]	; (4019d4 <xTaskResumeAll+0x108>)
  401960:	4c1a      	ldr	r4, [pc, #104]	; (4019cc <xTaskResumeAll+0x100>)
  401962:	e00e      	b.n	401982 <xTaskResumeAll+0xb6>
  401964:	2201      	movs	r2, #1
  401966:	4b1b      	ldr	r3, [pc, #108]	; (4019d4 <xTaskResumeAll+0x108>)
  401968:	601a      	str	r2, [r3, #0]
  40196a:	e7ee      	b.n	40194a <xTaskResumeAll+0x7e>
  40196c:	4f1a      	ldr	r7, [pc, #104]	; (4019d8 <xTaskResumeAll+0x10c>)
  40196e:	4e1b      	ldr	r6, [pc, #108]	; (4019dc <xTaskResumeAll+0x110>)
  401970:	4d1b      	ldr	r5, [pc, #108]	; (4019e0 <xTaskResumeAll+0x114>)
  401972:	f8df 9074 	ldr.w	r9, [pc, #116]	; 4019e8 <xTaskResumeAll+0x11c>
  401976:	e7e8      	b.n	40194a <xTaskResumeAll+0x7e>
  401978:	6823      	ldr	r3, [r4, #0]
  40197a:	3b01      	subs	r3, #1
  40197c:	6023      	str	r3, [r4, #0]
  40197e:	6823      	ldr	r3, [r4, #0]
  401980:	b12b      	cbz	r3, 40198e <xTaskResumeAll+0xc2>
  401982:	47b0      	blx	r6
  401984:	2800      	cmp	r0, #0
  401986:	d0f7      	beq.n	401978 <xTaskResumeAll+0xac>
  401988:	2301      	movs	r3, #1
  40198a:	602b      	str	r3, [r5, #0]
  40198c:	e7f4      	b.n	401978 <xTaskResumeAll+0xac>
  40198e:	4b11      	ldr	r3, [pc, #68]	; (4019d4 <xTaskResumeAll+0x108>)
  401990:	681b      	ldr	r3, [r3, #0]
  401992:	2b01      	cmp	r3, #1
  401994:	d10b      	bne.n	4019ae <xTaskResumeAll+0xe2>
  401996:	f04f 5280 	mov.w	r2, #268435456	; 0x10000000
  40199a:	4b12      	ldr	r3, [pc, #72]	; (4019e4 <xTaskResumeAll+0x118>)
  40199c:	601a      	str	r2, [r3, #0]
  40199e:	f3bf 8f4f 	dsb	sy
  4019a2:	f3bf 8f6f 	isb	sy
  4019a6:	2401      	movs	r4, #1
  4019a8:	e7ae      	b.n	401908 <xTaskResumeAll+0x3c>
  4019aa:	2400      	movs	r4, #0
  4019ac:	e7ac      	b.n	401908 <xTaskResumeAll+0x3c>
  4019ae:	2400      	movs	r4, #0
  4019b0:	e7aa      	b.n	401908 <xTaskResumeAll+0x3c>
  4019b2:	bf00      	nop
  4019b4:	2040c27c 	.word	0x2040c27c
  4019b8:	0040082d 	.word	0x0040082d
  4019bc:	2040c274 	.word	0x2040c274
  4019c0:	00400879 	.word	0x00400879
  4019c4:	004006fd 	.word	0x004006fd
  4019c8:	2040c204 	.word	0x2040c204
  4019cc:	2040c278 	.word	0x2040c278
  4019d0:	00401781 	.word	0x00401781
  4019d4:	2040c300 	.word	0x2040c300
  4019d8:	2040c2bc 	.word	0x2040c2bc
  4019dc:	00400749 	.word	0x00400749
  4019e0:	2040c288 	.word	0x2040c288
  4019e4:	e000ed04 	.word	0xe000ed04
  4019e8:	2040c210 	.word	0x2040c210

004019ec <vTaskDelay>:
  4019ec:	b510      	push	{r4, lr}
  4019ee:	2800      	cmp	r0, #0
  4019f0:	d029      	beq.n	401a46 <vTaskDelay+0x5a>
  4019f2:	4604      	mov	r4, r0
  4019f4:	4b18      	ldr	r3, [pc, #96]	; (401a58 <vTaskDelay+0x6c>)
  4019f6:	681b      	ldr	r3, [r3, #0]
  4019f8:	b153      	cbz	r3, 401a10 <vTaskDelay+0x24>
  4019fa:	f04f 0380 	mov.w	r3, #128	; 0x80
  4019fe:	b672      	cpsid	i
  401a00:	f383 8811 	msr	BASEPRI, r3
  401a04:	f3bf 8f6f 	isb	sy
  401a08:	f3bf 8f4f 	dsb	sy
  401a0c:	b662      	cpsie	i
  401a0e:	e7fe      	b.n	401a0e <vTaskDelay+0x22>
  401a10:	4b12      	ldr	r3, [pc, #72]	; (401a5c <vTaskDelay+0x70>)
  401a12:	4798      	blx	r3
  401a14:	4b12      	ldr	r3, [pc, #72]	; (401a60 <vTaskDelay+0x74>)
  401a16:	681b      	ldr	r3, [r3, #0]
  401a18:	441c      	add	r4, r3
  401a1a:	4b12      	ldr	r3, [pc, #72]	; (401a64 <vTaskDelay+0x78>)
  401a1c:	6818      	ldr	r0, [r3, #0]
  401a1e:	3004      	adds	r0, #4
  401a20:	4b11      	ldr	r3, [pc, #68]	; (401a68 <vTaskDelay+0x7c>)
  401a22:	4798      	blx	r3
  401a24:	b948      	cbnz	r0, 401a3a <vTaskDelay+0x4e>
  401a26:	4b0f      	ldr	r3, [pc, #60]	; (401a64 <vTaskDelay+0x78>)
  401a28:	681a      	ldr	r2, [r3, #0]
  401a2a:	4910      	ldr	r1, [pc, #64]	; (401a6c <vTaskDelay+0x80>)
  401a2c:	680b      	ldr	r3, [r1, #0]
  401a2e:	6ad0      	ldr	r0, [r2, #44]	; 0x2c
  401a30:	2201      	movs	r2, #1
  401a32:	4082      	lsls	r2, r0
  401a34:	ea23 0302 	bic.w	r3, r3, r2
  401a38:	600b      	str	r3, [r1, #0]
  401a3a:	4620      	mov	r0, r4
  401a3c:	4b0c      	ldr	r3, [pc, #48]	; (401a70 <vTaskDelay+0x84>)
  401a3e:	4798      	blx	r3
  401a40:	4b0c      	ldr	r3, [pc, #48]	; (401a74 <vTaskDelay+0x88>)
  401a42:	4798      	blx	r3
  401a44:	b938      	cbnz	r0, 401a56 <vTaskDelay+0x6a>
  401a46:	f04f 5280 	mov.w	r2, #268435456	; 0x10000000
  401a4a:	4b0b      	ldr	r3, [pc, #44]	; (401a78 <vTaskDelay+0x8c>)
  401a4c:	601a      	str	r2, [r3, #0]
  401a4e:	f3bf 8f4f 	dsb	sy
  401a52:	f3bf 8f6f 	isb	sy
  401a56:	bd10      	pop	{r4, pc}
  401a58:	2040c27c 	.word	0x2040c27c
  401a5c:	00401765 	.word	0x00401765
  401a60:	2040c2fc 	.word	0x2040c2fc
  401a64:	2040c204 	.word	0x2040c204
  401a68:	00400749 	.word	0x00400749
  401a6c:	2040c288 	.word	0x2040c288
  401a70:	0040144d 	.word	0x0040144d
  401a74:	004018cd 	.word	0x004018cd
  401a78:	e000ed04 	.word	0xe000ed04

00401a7c <prvIdleTask>:
  401a7c:	b580      	push	{r7, lr}
  401a7e:	f8df 8088 	ldr.w	r8, [pc, #136]	; 401b08 <prvIdleTask+0x8c>
  401a82:	4e19      	ldr	r6, [pc, #100]	; (401ae8 <prvIdleTask+0x6c>)
  401a84:	f8df 9084 	ldr.w	r9, [pc, #132]	; 401b0c <prvIdleTask+0x90>
  401a88:	e02a      	b.n	401ae0 <prvIdleTask+0x64>
  401a8a:	4b18      	ldr	r3, [pc, #96]	; (401aec <prvIdleTask+0x70>)
  401a8c:	681b      	ldr	r3, [r3, #0]
  401a8e:	2b01      	cmp	r3, #1
  401a90:	d81e      	bhi.n	401ad0 <prvIdleTask+0x54>
  401a92:	682b      	ldr	r3, [r5, #0]
  401a94:	2b00      	cmp	r3, #0
  401a96:	d0f8      	beq.n	401a8a <prvIdleTask+0xe>
  401a98:	47c0      	blx	r8
  401a9a:	6834      	ldr	r4, [r6, #0]
  401a9c:	47b8      	blx	r7
  401a9e:	2c00      	cmp	r4, #0
  401aa0:	d0f7      	beq.n	401a92 <prvIdleTask+0x16>
  401aa2:	4b13      	ldr	r3, [pc, #76]	; (401af0 <prvIdleTask+0x74>)
  401aa4:	4798      	blx	r3
  401aa6:	68f3      	ldr	r3, [r6, #12]
  401aa8:	68dc      	ldr	r4, [r3, #12]
  401aaa:	1d20      	adds	r0, r4, #4
  401aac:	4b11      	ldr	r3, [pc, #68]	; (401af4 <prvIdleTask+0x78>)
  401aae:	4798      	blx	r3
  401ab0:	4a11      	ldr	r2, [pc, #68]	; (401af8 <prvIdleTask+0x7c>)
  401ab2:	6813      	ldr	r3, [r2, #0]
  401ab4:	3b01      	subs	r3, #1
  401ab6:	6013      	str	r3, [r2, #0]
  401ab8:	682b      	ldr	r3, [r5, #0]
  401aba:	3b01      	subs	r3, #1
  401abc:	602b      	str	r3, [r5, #0]
  401abe:	4b0f      	ldr	r3, [pc, #60]	; (401afc <prvIdleTask+0x80>)
  401ac0:	4798      	blx	r3
  401ac2:	6b20      	ldr	r0, [r4, #48]	; 0x30
  401ac4:	f8df a048 	ldr.w	sl, [pc, #72]	; 401b10 <prvIdleTask+0x94>
  401ac8:	47d0      	blx	sl
  401aca:	4620      	mov	r0, r4
  401acc:	47d0      	blx	sl
  401ace:	e7e0      	b.n	401a92 <prvIdleTask+0x16>
  401ad0:	f04f 5380 	mov.w	r3, #268435456	; 0x10000000
  401ad4:	f8c9 3000 	str.w	r3, [r9]
  401ad8:	f3bf 8f4f 	dsb	sy
  401adc:	f3bf 8f6f 	isb	sy
  401ae0:	4d07      	ldr	r5, [pc, #28]	; (401b00 <prvIdleTask+0x84>)
  401ae2:	4f08      	ldr	r7, [pc, #32]	; (401b04 <prvIdleTask+0x88>)
  401ae4:	e7d5      	b.n	401a92 <prvIdleTask+0x16>
  401ae6:	bf00      	nop
  401ae8:	2040c2e8 	.word	0x2040c2e8
  401aec:	2040c210 	.word	0x2040c210
  401af0:	0040082d 	.word	0x0040082d
  401af4:	00400749 	.word	0x00400749
  401af8:	2040c274 	.word	0x2040c274
  401afc:	00400879 	.word	0x00400879
  401b00:	2040c284 	.word	0x2040c284
  401b04:	004018cd 	.word	0x004018cd
  401b08:	00401765 	.word	0x00401765
  401b0c:	e000ed04 	.word	0xe000ed04
  401b10:	00400af9 	.word	0x00400af9

00401b14 <vTaskSwitchContext>:
  401b14:	4b2d      	ldr	r3, [pc, #180]	; (401bcc <vTaskSwitchContext+0xb8>)
  401b16:	681b      	ldr	r3, [r3, #0]
  401b18:	2b00      	cmp	r3, #0
  401b1a:	d12c      	bne.n	401b76 <vTaskSwitchContext+0x62>
  401b1c:	b510      	push	{r4, lr}
  401b1e:	2200      	movs	r2, #0
  401b20:	4b2b      	ldr	r3, [pc, #172]	; (401bd0 <vTaskSwitchContext+0xbc>)
  401b22:	601a      	str	r2, [r3, #0]
  401b24:	4b2b      	ldr	r3, [pc, #172]	; (401bd4 <vTaskSwitchContext+0xc0>)
  401b26:	681b      	ldr	r3, [r3, #0]
  401b28:	6b1b      	ldr	r3, [r3, #48]	; 0x30
  401b2a:	681a      	ldr	r2, [r3, #0]
  401b2c:	f1b2 3fa5 	cmp.w	r2, #2779096485	; 0xa5a5a5a5
  401b30:	d103      	bne.n	401b3a <vTaskSwitchContext+0x26>
  401b32:	685a      	ldr	r2, [r3, #4]
  401b34:	f1b2 3fa5 	cmp.w	r2, #2779096485	; 0xa5a5a5a5
  401b38:	d021      	beq.n	401b7e <vTaskSwitchContext+0x6a>
  401b3a:	4b26      	ldr	r3, [pc, #152]	; (401bd4 <vTaskSwitchContext+0xc0>)
  401b3c:	6818      	ldr	r0, [r3, #0]
  401b3e:	6819      	ldr	r1, [r3, #0]
  401b40:	3134      	adds	r1, #52	; 0x34
  401b42:	4b25      	ldr	r3, [pc, #148]	; (401bd8 <vTaskSwitchContext+0xc4>)
  401b44:	4798      	blx	r3
  401b46:	4b25      	ldr	r3, [pc, #148]	; (401bdc <vTaskSwitchContext+0xc8>)
  401b48:	681b      	ldr	r3, [r3, #0]
  401b4a:	fab3 f383 	clz	r3, r3
  401b4e:	b2db      	uxtb	r3, r3
  401b50:	f1c3 031f 	rsb	r3, r3, #31
  401b54:	eb03 0183 	add.w	r1, r3, r3, lsl #2
  401b58:	4a21      	ldr	r2, [pc, #132]	; (401be0 <vTaskSwitchContext+0xcc>)
  401b5a:	f852 2021 	ldr.w	r2, [r2, r1, lsl #2]
  401b5e:	b9ba      	cbnz	r2, 401b90 <vTaskSwitchContext+0x7c>
  401b60:	f04f 0380 	mov.w	r3, #128	; 0x80
  401b64:	b672      	cpsid	i
  401b66:	f383 8811 	msr	BASEPRI, r3
  401b6a:	f3bf 8f6f 	isb	sy
  401b6e:	f3bf 8f4f 	dsb	sy
  401b72:	b662      	cpsie	i
  401b74:	e7fe      	b.n	401b74 <vTaskSwitchContext+0x60>
  401b76:	2201      	movs	r2, #1
  401b78:	4b15      	ldr	r3, [pc, #84]	; (401bd0 <vTaskSwitchContext+0xbc>)
  401b7a:	601a      	str	r2, [r3, #0]
  401b7c:	4770      	bx	lr
  401b7e:	689a      	ldr	r2, [r3, #8]
  401b80:	f1b2 3fa5 	cmp.w	r2, #2779096485	; 0xa5a5a5a5
  401b84:	d1d9      	bne.n	401b3a <vTaskSwitchContext+0x26>
  401b86:	68db      	ldr	r3, [r3, #12]
  401b88:	f1b3 3fa5 	cmp.w	r3, #2779096485	; 0xa5a5a5a5
  401b8c:	d1d5      	bne.n	401b3a <vTaskSwitchContext+0x26>
  401b8e:	e7da      	b.n	401b46 <vTaskSwitchContext+0x32>
  401b90:	4a13      	ldr	r2, [pc, #76]	; (401be0 <vTaskSwitchContext+0xcc>)
  401b92:	0099      	lsls	r1, r3, #2
  401b94:	18c8      	adds	r0, r1, r3
  401b96:	eb02 0080 	add.w	r0, r2, r0, lsl #2
  401b9a:	6844      	ldr	r4, [r0, #4]
  401b9c:	6864      	ldr	r4, [r4, #4]
  401b9e:	6044      	str	r4, [r0, #4]
  401ba0:	4419      	add	r1, r3
  401ba2:	4602      	mov	r2, r0
  401ba4:	3208      	adds	r2, #8
  401ba6:	4294      	cmp	r4, r2
  401ba8:	d009      	beq.n	401bbe <vTaskSwitchContext+0xaa>
  401baa:	eb03 0383 	add.w	r3, r3, r3, lsl #2
  401bae:	4a0c      	ldr	r2, [pc, #48]	; (401be0 <vTaskSwitchContext+0xcc>)
  401bb0:	eb02 0383 	add.w	r3, r2, r3, lsl #2
  401bb4:	685b      	ldr	r3, [r3, #4]
  401bb6:	68da      	ldr	r2, [r3, #12]
  401bb8:	4b06      	ldr	r3, [pc, #24]	; (401bd4 <vTaskSwitchContext+0xc0>)
  401bba:	601a      	str	r2, [r3, #0]
  401bbc:	bd10      	pop	{r4, pc}
  401bbe:	6860      	ldr	r0, [r4, #4]
  401bc0:	4a07      	ldr	r2, [pc, #28]	; (401be0 <vTaskSwitchContext+0xcc>)
  401bc2:	eb02 0281 	add.w	r2, r2, r1, lsl #2
  401bc6:	6050      	str	r0, [r2, #4]
  401bc8:	e7ef      	b.n	401baa <vTaskSwitchContext+0x96>
  401bca:	bf00      	nop
  401bcc:	2040c27c 	.word	0x2040c27c
  401bd0:	2040c300 	.word	0x2040c300
  401bd4:	2040c204 	.word	0x2040c204
  401bd8:	0040632d 	.word	0x0040632d
  401bdc:	2040c288 	.word	0x2040c288
  401be0:	2040c210 	.word	0x2040c210

00401be4 <vTaskPlaceOnEventList>:
  401be4:	b538      	push	{r3, r4, r5, lr}
  401be6:	b1e0      	cbz	r0, 401c22 <vTaskPlaceOnEventList+0x3e>
  401be8:	460c      	mov	r4, r1
  401bea:	4d17      	ldr	r5, [pc, #92]	; (401c48 <vTaskPlaceOnEventList+0x64>)
  401bec:	6829      	ldr	r1, [r5, #0]
  401bee:	3118      	adds	r1, #24
  401bf0:	4b16      	ldr	r3, [pc, #88]	; (401c4c <vTaskPlaceOnEventList+0x68>)
  401bf2:	4798      	blx	r3
  401bf4:	6828      	ldr	r0, [r5, #0]
  401bf6:	3004      	adds	r0, #4
  401bf8:	4b15      	ldr	r3, [pc, #84]	; (401c50 <vTaskPlaceOnEventList+0x6c>)
  401bfa:	4798      	blx	r3
  401bfc:	b940      	cbnz	r0, 401c10 <vTaskPlaceOnEventList+0x2c>
  401bfe:	682a      	ldr	r2, [r5, #0]
  401c00:	4914      	ldr	r1, [pc, #80]	; (401c54 <vTaskPlaceOnEventList+0x70>)
  401c02:	680b      	ldr	r3, [r1, #0]
  401c04:	6ad0      	ldr	r0, [r2, #44]	; 0x2c
  401c06:	2201      	movs	r2, #1
  401c08:	4082      	lsls	r2, r0
  401c0a:	ea23 0302 	bic.w	r3, r3, r2
  401c0e:	600b      	str	r3, [r1, #0]
  401c10:	f1b4 3fff 	cmp.w	r4, #4294967295
  401c14:	d010      	beq.n	401c38 <vTaskPlaceOnEventList+0x54>
  401c16:	4b10      	ldr	r3, [pc, #64]	; (401c58 <vTaskPlaceOnEventList+0x74>)
  401c18:	6818      	ldr	r0, [r3, #0]
  401c1a:	4420      	add	r0, r4
  401c1c:	4b0f      	ldr	r3, [pc, #60]	; (401c5c <vTaskPlaceOnEventList+0x78>)
  401c1e:	4798      	blx	r3
  401c20:	bd38      	pop	{r3, r4, r5, pc}
  401c22:	f04f 0380 	mov.w	r3, #128	; 0x80
  401c26:	b672      	cpsid	i
  401c28:	f383 8811 	msr	BASEPRI, r3
  401c2c:	f3bf 8f6f 	isb	sy
  401c30:	f3bf 8f4f 	dsb	sy
  401c34:	b662      	cpsie	i
  401c36:	e7fe      	b.n	401c36 <vTaskPlaceOnEventList+0x52>
  401c38:	4b03      	ldr	r3, [pc, #12]	; (401c48 <vTaskPlaceOnEventList+0x64>)
  401c3a:	6819      	ldr	r1, [r3, #0]
  401c3c:	3104      	adds	r1, #4
  401c3e:	4808      	ldr	r0, [pc, #32]	; (401c60 <vTaskPlaceOnEventList+0x7c>)
  401c40:	4b08      	ldr	r3, [pc, #32]	; (401c64 <vTaskPlaceOnEventList+0x80>)
  401c42:	4798      	blx	r3
  401c44:	bd38      	pop	{r3, r4, r5, pc}
  401c46:	bf00      	nop
  401c48:	2040c204 	.word	0x2040c204
  401c4c:	00400715 	.word	0x00400715
  401c50:	00400749 	.word	0x00400749
  401c54:	2040c288 	.word	0x2040c288
  401c58:	2040c2fc 	.word	0x2040c2fc
  401c5c:	0040144d 	.word	0x0040144d
  401c60:	2040c2d4 	.word	0x2040c2d4
  401c64:	004006fd 	.word	0x004006fd

00401c68 <vTaskPlaceOnEventListRestricted>:
  401c68:	b1e8      	cbz	r0, 401ca6 <vTaskPlaceOnEventListRestricted+0x3e>
  401c6a:	b570      	push	{r4, r5, r6, lr}
  401c6c:	4615      	mov	r5, r2
  401c6e:	460c      	mov	r4, r1
  401c70:	4e16      	ldr	r6, [pc, #88]	; (401ccc <vTaskPlaceOnEventListRestricted+0x64>)
  401c72:	6831      	ldr	r1, [r6, #0]
  401c74:	3118      	adds	r1, #24
  401c76:	4b16      	ldr	r3, [pc, #88]	; (401cd0 <vTaskPlaceOnEventListRestricted+0x68>)
  401c78:	4798      	blx	r3
  401c7a:	6830      	ldr	r0, [r6, #0]
  401c7c:	3004      	adds	r0, #4
  401c7e:	4b15      	ldr	r3, [pc, #84]	; (401cd4 <vTaskPlaceOnEventListRestricted+0x6c>)
  401c80:	4798      	blx	r3
  401c82:	b940      	cbnz	r0, 401c96 <vTaskPlaceOnEventListRestricted+0x2e>
  401c84:	6832      	ldr	r2, [r6, #0]
  401c86:	4914      	ldr	r1, [pc, #80]	; (401cd8 <vTaskPlaceOnEventListRestricted+0x70>)
  401c88:	680b      	ldr	r3, [r1, #0]
  401c8a:	6ad0      	ldr	r0, [r2, #44]	; 0x2c
  401c8c:	2201      	movs	r2, #1
  401c8e:	4082      	lsls	r2, r0
  401c90:	ea23 0302 	bic.w	r3, r3, r2
  401c94:	600b      	str	r3, [r1, #0]
  401c96:	2d01      	cmp	r5, #1
  401c98:	d010      	beq.n	401cbc <vTaskPlaceOnEventListRestricted+0x54>
  401c9a:	4b10      	ldr	r3, [pc, #64]	; (401cdc <vTaskPlaceOnEventListRestricted+0x74>)
  401c9c:	6818      	ldr	r0, [r3, #0]
  401c9e:	4420      	add	r0, r4
  401ca0:	4b0f      	ldr	r3, [pc, #60]	; (401ce0 <vTaskPlaceOnEventListRestricted+0x78>)
  401ca2:	4798      	blx	r3
  401ca4:	bd70      	pop	{r4, r5, r6, pc}
  401ca6:	f04f 0380 	mov.w	r3, #128	; 0x80
  401caa:	b672      	cpsid	i
  401cac:	f383 8811 	msr	BASEPRI, r3
  401cb0:	f3bf 8f6f 	isb	sy
  401cb4:	f3bf 8f4f 	dsb	sy
  401cb8:	b662      	cpsie	i
  401cba:	e7fe      	b.n	401cba <vTaskPlaceOnEventListRestricted+0x52>
  401cbc:	4b03      	ldr	r3, [pc, #12]	; (401ccc <vTaskPlaceOnEventListRestricted+0x64>)
  401cbe:	6819      	ldr	r1, [r3, #0]
  401cc0:	3104      	adds	r1, #4
  401cc2:	4808      	ldr	r0, [pc, #32]	; (401ce4 <vTaskPlaceOnEventListRestricted+0x7c>)
  401cc4:	4b02      	ldr	r3, [pc, #8]	; (401cd0 <vTaskPlaceOnEventListRestricted+0x68>)
  401cc6:	4798      	blx	r3
  401cc8:	bd70      	pop	{r4, r5, r6, pc}
  401cca:	bf00      	nop
  401ccc:	2040c204 	.word	0x2040c204
  401cd0:	004006fd 	.word	0x004006fd
  401cd4:	00400749 	.word	0x00400749
  401cd8:	2040c288 	.word	0x2040c288
  401cdc:	2040c2fc 	.word	0x2040c2fc
  401ce0:	0040144d 	.word	0x0040144d
  401ce4:	2040c2d4 	.word	0x2040c2d4

00401ce8 <xTaskRemoveFromEventList>:
  401ce8:	b538      	push	{r3, r4, r5, lr}
  401cea:	68c3      	ldr	r3, [r0, #12]
  401cec:	68dc      	ldr	r4, [r3, #12]
  401cee:	b324      	cbz	r4, 401d3a <xTaskRemoveFromEventList+0x52>
  401cf0:	f104 0518 	add.w	r5, r4, #24
  401cf4:	4628      	mov	r0, r5
  401cf6:	4b1a      	ldr	r3, [pc, #104]	; (401d60 <xTaskRemoveFromEventList+0x78>)
  401cf8:	4798      	blx	r3
  401cfa:	4b1a      	ldr	r3, [pc, #104]	; (401d64 <xTaskRemoveFromEventList+0x7c>)
  401cfc:	681b      	ldr	r3, [r3, #0]
  401cfe:	bb3b      	cbnz	r3, 401d50 <xTaskRemoveFromEventList+0x68>
  401d00:	1d25      	adds	r5, r4, #4
  401d02:	4628      	mov	r0, r5
  401d04:	4b16      	ldr	r3, [pc, #88]	; (401d60 <xTaskRemoveFromEventList+0x78>)
  401d06:	4798      	blx	r3
  401d08:	6ae0      	ldr	r0, [r4, #44]	; 0x2c
  401d0a:	4a17      	ldr	r2, [pc, #92]	; (401d68 <xTaskRemoveFromEventList+0x80>)
  401d0c:	6811      	ldr	r1, [r2, #0]
  401d0e:	2301      	movs	r3, #1
  401d10:	4083      	lsls	r3, r0
  401d12:	430b      	orrs	r3, r1
  401d14:	6013      	str	r3, [r2, #0]
  401d16:	eb00 0080 	add.w	r0, r0, r0, lsl #2
  401d1a:	4629      	mov	r1, r5
  401d1c:	4b13      	ldr	r3, [pc, #76]	; (401d6c <xTaskRemoveFromEventList+0x84>)
  401d1e:	eb03 0080 	add.w	r0, r3, r0, lsl #2
  401d22:	4b13      	ldr	r3, [pc, #76]	; (401d70 <xTaskRemoveFromEventList+0x88>)
  401d24:	4798      	blx	r3
  401d26:	4b13      	ldr	r3, [pc, #76]	; (401d74 <xTaskRemoveFromEventList+0x8c>)
  401d28:	681b      	ldr	r3, [r3, #0]
  401d2a:	6ae2      	ldr	r2, [r4, #44]	; 0x2c
  401d2c:	6adb      	ldr	r3, [r3, #44]	; 0x2c
  401d2e:	429a      	cmp	r2, r3
  401d30:	d913      	bls.n	401d5a <xTaskRemoveFromEventList+0x72>
  401d32:	2001      	movs	r0, #1
  401d34:	4b10      	ldr	r3, [pc, #64]	; (401d78 <xTaskRemoveFromEventList+0x90>)
  401d36:	6018      	str	r0, [r3, #0]
  401d38:	bd38      	pop	{r3, r4, r5, pc}
  401d3a:	f04f 0380 	mov.w	r3, #128	; 0x80
  401d3e:	b672      	cpsid	i
  401d40:	f383 8811 	msr	BASEPRI, r3
  401d44:	f3bf 8f6f 	isb	sy
  401d48:	f3bf 8f4f 	dsb	sy
  401d4c:	b662      	cpsie	i
  401d4e:	e7fe      	b.n	401d4e <xTaskRemoveFromEventList+0x66>
  401d50:	4629      	mov	r1, r5
  401d52:	480a      	ldr	r0, [pc, #40]	; (401d7c <xTaskRemoveFromEventList+0x94>)
  401d54:	4b06      	ldr	r3, [pc, #24]	; (401d70 <xTaskRemoveFromEventList+0x88>)
  401d56:	4798      	blx	r3
  401d58:	e7e5      	b.n	401d26 <xTaskRemoveFromEventList+0x3e>
  401d5a:	2000      	movs	r0, #0
  401d5c:	bd38      	pop	{r3, r4, r5, pc}
  401d5e:	bf00      	nop
  401d60:	00400749 	.word	0x00400749
  401d64:	2040c27c 	.word	0x2040c27c
  401d68:	2040c288 	.word	0x2040c288
  401d6c:	2040c210 	.word	0x2040c210
  401d70:	004006fd 	.word	0x004006fd
  401d74:	2040c204 	.word	0x2040c204
  401d78:	2040c300 	.word	0x2040c300
  401d7c:	2040c2bc 	.word	0x2040c2bc

00401d80 <vTaskSetTimeOutState>:
  401d80:	b130      	cbz	r0, 401d90 <vTaskSetTimeOutState+0x10>
  401d82:	4a09      	ldr	r2, [pc, #36]	; (401da8 <vTaskSetTimeOutState+0x28>)
  401d84:	6812      	ldr	r2, [r2, #0]
  401d86:	6002      	str	r2, [r0, #0]
  401d88:	4a08      	ldr	r2, [pc, #32]	; (401dac <vTaskSetTimeOutState+0x2c>)
  401d8a:	6812      	ldr	r2, [r2, #0]
  401d8c:	6042      	str	r2, [r0, #4]
  401d8e:	4770      	bx	lr
  401d90:	f04f 0380 	mov.w	r3, #128	; 0x80
  401d94:	b672      	cpsid	i
  401d96:	f383 8811 	msr	BASEPRI, r3
  401d9a:	f3bf 8f6f 	isb	sy
  401d9e:	f3bf 8f4f 	dsb	sy
  401da2:	b662      	cpsie	i
  401da4:	e7fe      	b.n	401da4 <vTaskSetTimeOutState+0x24>
  401da6:	bf00      	nop
  401da8:	2040c2b8 	.word	0x2040c2b8
  401dac:	2040c2fc 	.word	0x2040c2fc

00401db0 <xTaskCheckForTimeOut>:
  401db0:	b538      	push	{r3, r4, r5, lr}
  401db2:	b1c0      	cbz	r0, 401de6 <xTaskCheckForTimeOut+0x36>
  401db4:	4604      	mov	r4, r0
  401db6:	b309      	cbz	r1, 401dfc <xTaskCheckForTimeOut+0x4c>
  401db8:	460d      	mov	r5, r1
  401dba:	4b1d      	ldr	r3, [pc, #116]	; (401e30 <xTaskCheckForTimeOut+0x80>)
  401dbc:	4798      	blx	r3
  401dbe:	4b1d      	ldr	r3, [pc, #116]	; (401e34 <xTaskCheckForTimeOut+0x84>)
  401dc0:	681a      	ldr	r2, [r3, #0]
  401dc2:	682b      	ldr	r3, [r5, #0]
  401dc4:	f1b3 3fff 	cmp.w	r3, #4294967295
  401dc8:	d02e      	beq.n	401e28 <xTaskCheckForTimeOut+0x78>
  401dca:	491b      	ldr	r1, [pc, #108]	; (401e38 <xTaskCheckForTimeOut+0x88>)
  401dcc:	6809      	ldr	r1, [r1, #0]
  401dce:	6820      	ldr	r0, [r4, #0]
  401dd0:	4288      	cmp	r0, r1
  401dd2:	d002      	beq.n	401dda <xTaskCheckForTimeOut+0x2a>
  401dd4:	6861      	ldr	r1, [r4, #4]
  401dd6:	428a      	cmp	r2, r1
  401dd8:	d228      	bcs.n	401e2c <xTaskCheckForTimeOut+0x7c>
  401dda:	6861      	ldr	r1, [r4, #4]
  401ddc:	1a50      	subs	r0, r2, r1
  401dde:	4283      	cmp	r3, r0
  401de0:	d817      	bhi.n	401e12 <xTaskCheckForTimeOut+0x62>
  401de2:	2401      	movs	r4, #1
  401de4:	e01c      	b.n	401e20 <xTaskCheckForTimeOut+0x70>
  401de6:	f04f 0380 	mov.w	r3, #128	; 0x80
  401dea:	b672      	cpsid	i
  401dec:	f383 8811 	msr	BASEPRI, r3
  401df0:	f3bf 8f6f 	isb	sy
  401df4:	f3bf 8f4f 	dsb	sy
  401df8:	b662      	cpsie	i
  401dfa:	e7fe      	b.n	401dfa <xTaskCheckForTimeOut+0x4a>
  401dfc:	f04f 0380 	mov.w	r3, #128	; 0x80
  401e00:	b672      	cpsid	i
  401e02:	f383 8811 	msr	BASEPRI, r3
  401e06:	f3bf 8f6f 	isb	sy
  401e0a:	f3bf 8f4f 	dsb	sy
  401e0e:	b662      	cpsie	i
  401e10:	e7fe      	b.n	401e10 <xTaskCheckForTimeOut+0x60>
  401e12:	1a9b      	subs	r3, r3, r2
  401e14:	440b      	add	r3, r1
  401e16:	602b      	str	r3, [r5, #0]
  401e18:	4620      	mov	r0, r4
  401e1a:	4b08      	ldr	r3, [pc, #32]	; (401e3c <xTaskCheckForTimeOut+0x8c>)
  401e1c:	4798      	blx	r3
  401e1e:	2400      	movs	r4, #0
  401e20:	4b07      	ldr	r3, [pc, #28]	; (401e40 <xTaskCheckForTimeOut+0x90>)
  401e22:	4798      	blx	r3
  401e24:	4620      	mov	r0, r4
  401e26:	bd38      	pop	{r3, r4, r5, pc}
  401e28:	2400      	movs	r4, #0
  401e2a:	e7f9      	b.n	401e20 <xTaskCheckForTimeOut+0x70>
  401e2c:	2401      	movs	r4, #1
  401e2e:	e7f7      	b.n	401e20 <xTaskCheckForTimeOut+0x70>
  401e30:	0040082d 	.word	0x0040082d
  401e34:	2040c2fc 	.word	0x2040c2fc
  401e38:	2040c2b8 	.word	0x2040c2b8
  401e3c:	00401d81 	.word	0x00401d81
  401e40:	00400879 	.word	0x00400879

00401e44 <vTaskMissedYield>:
  401e44:	2201      	movs	r2, #1
  401e46:	4b01      	ldr	r3, [pc, #4]	; (401e4c <vTaskMissedYield+0x8>)
  401e48:	601a      	str	r2, [r3, #0]
  401e4a:	4770      	bx	lr
  401e4c:	2040c300 	.word	0x2040c300

00401e50 <xTaskGetSchedulerState>:
  401e50:	4b05      	ldr	r3, [pc, #20]	; (401e68 <xTaskGetSchedulerState+0x18>)
  401e52:	681b      	ldr	r3, [r3, #0]
  401e54:	b133      	cbz	r3, 401e64 <xTaskGetSchedulerState+0x14>
  401e56:	4b05      	ldr	r3, [pc, #20]	; (401e6c <xTaskGetSchedulerState+0x1c>)
  401e58:	681b      	ldr	r3, [r3, #0]
  401e5a:	2b00      	cmp	r3, #0
  401e5c:	bf0c      	ite	eq
  401e5e:	2002      	moveq	r0, #2
  401e60:	2000      	movne	r0, #0
  401e62:	4770      	bx	lr
  401e64:	2001      	movs	r0, #1
  401e66:	4770      	bx	lr
  401e68:	2040c2d0 	.word	0x2040c2d0
  401e6c:	2040c27c 	.word	0x2040c27c

00401e70 <vTaskPriorityInherit>:
  401e70:	2800      	cmp	r0, #0
  401e72:	d044      	beq.n	401efe <vTaskPriorityInherit+0x8e>
  401e74:	b538      	push	{r3, r4, r5, lr}
  401e76:	4604      	mov	r4, r0
  401e78:	6ac2      	ldr	r2, [r0, #44]	; 0x2c
  401e7a:	4921      	ldr	r1, [pc, #132]	; (401f00 <vTaskPriorityInherit+0x90>)
  401e7c:	6809      	ldr	r1, [r1, #0]
  401e7e:	6ac9      	ldr	r1, [r1, #44]	; 0x2c
  401e80:	428a      	cmp	r2, r1
  401e82:	d214      	bcs.n	401eae <vTaskPriorityInherit+0x3e>
  401e84:	6981      	ldr	r1, [r0, #24]
  401e86:	2900      	cmp	r1, #0
  401e88:	db05      	blt.n	401e96 <vTaskPriorityInherit+0x26>
  401e8a:	491d      	ldr	r1, [pc, #116]	; (401f00 <vTaskPriorityInherit+0x90>)
  401e8c:	6809      	ldr	r1, [r1, #0]
  401e8e:	6ac9      	ldr	r1, [r1, #44]	; 0x2c
  401e90:	f1c1 0105 	rsb	r1, r1, #5
  401e94:	6181      	str	r1, [r0, #24]
  401e96:	eb02 0282 	add.w	r2, r2, r2, lsl #2
  401e9a:	491a      	ldr	r1, [pc, #104]	; (401f04 <vTaskPriorityInherit+0x94>)
  401e9c:	eb01 0282 	add.w	r2, r1, r2, lsl #2
  401ea0:	6961      	ldr	r1, [r4, #20]
  401ea2:	4291      	cmp	r1, r2
  401ea4:	d004      	beq.n	401eb0 <vTaskPriorityInherit+0x40>
  401ea6:	4a16      	ldr	r2, [pc, #88]	; (401f00 <vTaskPriorityInherit+0x90>)
  401ea8:	6812      	ldr	r2, [r2, #0]
  401eaa:	6ad2      	ldr	r2, [r2, #44]	; 0x2c
  401eac:	62e2      	str	r2, [r4, #44]	; 0x2c
  401eae:	bd38      	pop	{r3, r4, r5, pc}
  401eb0:	1d25      	adds	r5, r4, #4
  401eb2:	4628      	mov	r0, r5
  401eb4:	4b14      	ldr	r3, [pc, #80]	; (401f08 <vTaskPriorityInherit+0x98>)
  401eb6:	4798      	blx	r3
  401eb8:	b970      	cbnz	r0, 401ed8 <vTaskPriorityInherit+0x68>
  401eba:	6ae3      	ldr	r3, [r4, #44]	; 0x2c
  401ebc:	eb03 0183 	add.w	r1, r3, r3, lsl #2
  401ec0:	4a10      	ldr	r2, [pc, #64]	; (401f04 <vTaskPriorityInherit+0x94>)
  401ec2:	f852 2021 	ldr.w	r2, [r2, r1, lsl #2]
  401ec6:	b93a      	cbnz	r2, 401ed8 <vTaskPriorityInherit+0x68>
  401ec8:	4810      	ldr	r0, [pc, #64]	; (401f0c <vTaskPriorityInherit+0x9c>)
  401eca:	6802      	ldr	r2, [r0, #0]
  401ecc:	2101      	movs	r1, #1
  401ece:	fa01 f303 	lsl.w	r3, r1, r3
  401ed2:	ea22 0303 	bic.w	r3, r2, r3
  401ed6:	6003      	str	r3, [r0, #0]
  401ed8:	4b09      	ldr	r3, [pc, #36]	; (401f00 <vTaskPriorityInherit+0x90>)
  401eda:	681b      	ldr	r3, [r3, #0]
  401edc:	6ad8      	ldr	r0, [r3, #44]	; 0x2c
  401ede:	62e0      	str	r0, [r4, #44]	; 0x2c
  401ee0:	4a0a      	ldr	r2, [pc, #40]	; (401f0c <vTaskPriorityInherit+0x9c>)
  401ee2:	6811      	ldr	r1, [r2, #0]
  401ee4:	2301      	movs	r3, #1
  401ee6:	4083      	lsls	r3, r0
  401ee8:	430b      	orrs	r3, r1
  401eea:	6013      	str	r3, [r2, #0]
  401eec:	eb00 0080 	add.w	r0, r0, r0, lsl #2
  401ef0:	4629      	mov	r1, r5
  401ef2:	4b04      	ldr	r3, [pc, #16]	; (401f04 <vTaskPriorityInherit+0x94>)
  401ef4:	eb03 0080 	add.w	r0, r3, r0, lsl #2
  401ef8:	4b05      	ldr	r3, [pc, #20]	; (401f10 <vTaskPriorityInherit+0xa0>)
  401efa:	4798      	blx	r3
  401efc:	bd38      	pop	{r3, r4, r5, pc}
  401efe:	4770      	bx	lr
  401f00:	2040c204 	.word	0x2040c204
  401f04:	2040c210 	.word	0x2040c210
  401f08:	00400749 	.word	0x00400749
  401f0c:	2040c288 	.word	0x2040c288
  401f10:	004006fd 	.word	0x004006fd

00401f14 <xTaskPriorityDisinherit>:
  401f14:	2800      	cmp	r0, #0
  401f16:	d04d      	beq.n	401fb4 <xTaskPriorityDisinherit+0xa0>
  401f18:	b538      	push	{r3, r4, r5, lr}
  401f1a:	4604      	mov	r4, r0
  401f1c:	4a27      	ldr	r2, [pc, #156]	; (401fbc <xTaskPriorityDisinherit+0xa8>)
  401f1e:	6812      	ldr	r2, [r2, #0]
  401f20:	4290      	cmp	r0, r2
  401f22:	d00a      	beq.n	401f3a <xTaskPriorityDisinherit+0x26>
  401f24:	f04f 0380 	mov.w	r3, #128	; 0x80
  401f28:	b672      	cpsid	i
  401f2a:	f383 8811 	msr	BASEPRI, r3
  401f2e:	f3bf 8f6f 	isb	sy
  401f32:	f3bf 8f4f 	dsb	sy
  401f36:	b662      	cpsie	i
  401f38:	e7fe      	b.n	401f38 <xTaskPriorityDisinherit+0x24>
  401f3a:	6cc2      	ldr	r2, [r0, #76]	; 0x4c
  401f3c:	b952      	cbnz	r2, 401f54 <xTaskPriorityDisinherit+0x40>
  401f3e:	f04f 0380 	mov.w	r3, #128	; 0x80
  401f42:	b672      	cpsid	i
  401f44:	f383 8811 	msr	BASEPRI, r3
  401f48:	f3bf 8f6f 	isb	sy
  401f4c:	f3bf 8f4f 	dsb	sy
  401f50:	b662      	cpsie	i
  401f52:	e7fe      	b.n	401f52 <xTaskPriorityDisinherit+0x3e>
  401f54:	3a01      	subs	r2, #1
  401f56:	64c2      	str	r2, [r0, #76]	; 0x4c
  401f58:	6ac0      	ldr	r0, [r0, #44]	; 0x2c
  401f5a:	6ca1      	ldr	r1, [r4, #72]	; 0x48
  401f5c:	4288      	cmp	r0, r1
  401f5e:	d02b      	beq.n	401fb8 <xTaskPriorityDisinherit+0xa4>
  401f60:	bb52      	cbnz	r2, 401fb8 <xTaskPriorityDisinherit+0xa4>
  401f62:	1d25      	adds	r5, r4, #4
  401f64:	4628      	mov	r0, r5
  401f66:	4b16      	ldr	r3, [pc, #88]	; (401fc0 <xTaskPriorityDisinherit+0xac>)
  401f68:	4798      	blx	r3
  401f6a:	b968      	cbnz	r0, 401f88 <xTaskPriorityDisinherit+0x74>
  401f6c:	6ae1      	ldr	r1, [r4, #44]	; 0x2c
  401f6e:	eb01 0281 	add.w	r2, r1, r1, lsl #2
  401f72:	4b14      	ldr	r3, [pc, #80]	; (401fc4 <xTaskPriorityDisinherit+0xb0>)
  401f74:	f853 3022 	ldr.w	r3, [r3, r2, lsl #2]
  401f78:	b933      	cbnz	r3, 401f88 <xTaskPriorityDisinherit+0x74>
  401f7a:	4813      	ldr	r0, [pc, #76]	; (401fc8 <xTaskPriorityDisinherit+0xb4>)
  401f7c:	6803      	ldr	r3, [r0, #0]
  401f7e:	2201      	movs	r2, #1
  401f80:	408a      	lsls	r2, r1
  401f82:	ea23 0302 	bic.w	r3, r3, r2
  401f86:	6003      	str	r3, [r0, #0]
  401f88:	6ca0      	ldr	r0, [r4, #72]	; 0x48
  401f8a:	62e0      	str	r0, [r4, #44]	; 0x2c
  401f8c:	f1c0 0305 	rsb	r3, r0, #5
  401f90:	61a3      	str	r3, [r4, #24]
  401f92:	4a0d      	ldr	r2, [pc, #52]	; (401fc8 <xTaskPriorityDisinherit+0xb4>)
  401f94:	6811      	ldr	r1, [r2, #0]
  401f96:	2401      	movs	r4, #1
  401f98:	fa04 f300 	lsl.w	r3, r4, r0
  401f9c:	430b      	orrs	r3, r1
  401f9e:	6013      	str	r3, [r2, #0]
  401fa0:	eb00 0080 	add.w	r0, r0, r0, lsl #2
  401fa4:	4629      	mov	r1, r5
  401fa6:	4b07      	ldr	r3, [pc, #28]	; (401fc4 <xTaskPriorityDisinherit+0xb0>)
  401fa8:	eb03 0080 	add.w	r0, r3, r0, lsl #2
  401fac:	4b07      	ldr	r3, [pc, #28]	; (401fcc <xTaskPriorityDisinherit+0xb8>)
  401fae:	4798      	blx	r3
  401fb0:	4620      	mov	r0, r4
  401fb2:	bd38      	pop	{r3, r4, r5, pc}
  401fb4:	2000      	movs	r0, #0
  401fb6:	4770      	bx	lr
  401fb8:	2000      	movs	r0, #0
  401fba:	bd38      	pop	{r3, r4, r5, pc}
  401fbc:	2040c204 	.word	0x2040c204
  401fc0:	00400749 	.word	0x00400749
  401fc4:	2040c210 	.word	0x2040c210
  401fc8:	2040c288 	.word	0x2040c288
  401fcc:	004006fd 	.word	0x004006fd

00401fd0 <pvTaskIncrementMutexHeldCount>:
  401fd0:	4b05      	ldr	r3, [pc, #20]	; (401fe8 <pvTaskIncrementMutexHeldCount+0x18>)
  401fd2:	681b      	ldr	r3, [r3, #0]
  401fd4:	b123      	cbz	r3, 401fe0 <pvTaskIncrementMutexHeldCount+0x10>
  401fd6:	4b04      	ldr	r3, [pc, #16]	; (401fe8 <pvTaskIncrementMutexHeldCount+0x18>)
  401fd8:	681a      	ldr	r2, [r3, #0]
  401fda:	6cd3      	ldr	r3, [r2, #76]	; 0x4c
  401fdc:	3301      	adds	r3, #1
  401fde:	64d3      	str	r3, [r2, #76]	; 0x4c
  401fe0:	4b01      	ldr	r3, [pc, #4]	; (401fe8 <pvTaskIncrementMutexHeldCount+0x18>)
  401fe2:	6818      	ldr	r0, [r3, #0]
  401fe4:	4770      	bx	lr
  401fe6:	bf00      	nop
  401fe8:	2040c204 	.word	0x2040c204

00401fec <prvInsertTimerInActiveList>:
  401fec:	b508      	push	{r3, lr}
  401fee:	6041      	str	r1, [r0, #4]
  401ff0:	6100      	str	r0, [r0, #16]
  401ff2:	4291      	cmp	r1, r2
  401ff4:	d80c      	bhi.n	402010 <prvInsertTimerInActiveList+0x24>
  401ff6:	1ad2      	subs	r2, r2, r3
  401ff8:	6983      	ldr	r3, [r0, #24]
  401ffa:	429a      	cmp	r2, r3
  401ffc:	d301      	bcc.n	402002 <prvInsertTimerInActiveList+0x16>
  401ffe:	2001      	movs	r0, #1
  402000:	bd08      	pop	{r3, pc}
  402002:	1d01      	adds	r1, r0, #4
  402004:	4b09      	ldr	r3, [pc, #36]	; (40202c <prvInsertTimerInActiveList+0x40>)
  402006:	6818      	ldr	r0, [r3, #0]
  402008:	4b09      	ldr	r3, [pc, #36]	; (402030 <prvInsertTimerInActiveList+0x44>)
  40200a:	4798      	blx	r3
  40200c:	2000      	movs	r0, #0
  40200e:	bd08      	pop	{r3, pc}
  402010:	429a      	cmp	r2, r3
  402012:	d203      	bcs.n	40201c <prvInsertTimerInActiveList+0x30>
  402014:	4299      	cmp	r1, r3
  402016:	d301      	bcc.n	40201c <prvInsertTimerInActiveList+0x30>
  402018:	2001      	movs	r0, #1
  40201a:	bd08      	pop	{r3, pc}
  40201c:	1d01      	adds	r1, r0, #4
  40201e:	4b05      	ldr	r3, [pc, #20]	; (402034 <prvInsertTimerInActiveList+0x48>)
  402020:	6818      	ldr	r0, [r3, #0]
  402022:	4b03      	ldr	r3, [pc, #12]	; (402030 <prvInsertTimerInActiveList+0x44>)
  402024:	4798      	blx	r3
  402026:	2000      	movs	r0, #0
  402028:	bd08      	pop	{r3, pc}
  40202a:	bf00      	nop
  40202c:	2040c308 	.word	0x2040c308
  402030:	00400715 	.word	0x00400715
  402034:	2040c304 	.word	0x2040c304

00402038 <prvCheckForValidListAndQueue>:
  402038:	b570      	push	{r4, r5, r6, lr}
  40203a:	4b15      	ldr	r3, [pc, #84]	; (402090 <prvCheckForValidListAndQueue+0x58>)
  40203c:	4798      	blx	r3
  40203e:	4b15      	ldr	r3, [pc, #84]	; (402094 <prvCheckForValidListAndQueue+0x5c>)
  402040:	681b      	ldr	r3, [r3, #0]
  402042:	b113      	cbz	r3, 40204a <prvCheckForValidListAndQueue+0x12>
  402044:	4b14      	ldr	r3, [pc, #80]	; (402098 <prvCheckForValidListAndQueue+0x60>)
  402046:	4798      	blx	r3
  402048:	bd70      	pop	{r4, r5, r6, pc}
  40204a:	4d14      	ldr	r5, [pc, #80]	; (40209c <prvCheckForValidListAndQueue+0x64>)
  40204c:	4628      	mov	r0, r5
  40204e:	4e14      	ldr	r6, [pc, #80]	; (4020a0 <prvCheckForValidListAndQueue+0x68>)
  402050:	47b0      	blx	r6
  402052:	4c14      	ldr	r4, [pc, #80]	; (4020a4 <prvCheckForValidListAndQueue+0x6c>)
  402054:	4620      	mov	r0, r4
  402056:	47b0      	blx	r6
  402058:	4b13      	ldr	r3, [pc, #76]	; (4020a8 <prvCheckForValidListAndQueue+0x70>)
  40205a:	601d      	str	r5, [r3, #0]
  40205c:	4b13      	ldr	r3, [pc, #76]	; (4020ac <prvCheckForValidListAndQueue+0x74>)
  40205e:	601c      	str	r4, [r3, #0]
  402060:	2200      	movs	r2, #0
  402062:	2110      	movs	r1, #16
  402064:	2005      	movs	r0, #5
  402066:	4b12      	ldr	r3, [pc, #72]	; (4020b0 <prvCheckForValidListAndQueue+0x78>)
  402068:	4798      	blx	r3
  40206a:	4b0a      	ldr	r3, [pc, #40]	; (402094 <prvCheckForValidListAndQueue+0x5c>)
  40206c:	6018      	str	r0, [r3, #0]
  40206e:	b118      	cbz	r0, 402078 <prvCheckForValidListAndQueue+0x40>
  402070:	4910      	ldr	r1, [pc, #64]	; (4020b4 <prvCheckForValidListAndQueue+0x7c>)
  402072:	4b11      	ldr	r3, [pc, #68]	; (4020b8 <prvCheckForValidListAndQueue+0x80>)
  402074:	4798      	blx	r3
  402076:	e7e5      	b.n	402044 <prvCheckForValidListAndQueue+0xc>
  402078:	f04f 0380 	mov.w	r3, #128	; 0x80
  40207c:	b672      	cpsid	i
  40207e:	f383 8811 	msr	BASEPRI, r3
  402082:	f3bf 8f6f 	isb	sy
  402086:	f3bf 8f4f 	dsb	sy
  40208a:	b662      	cpsie	i
  40208c:	e7fe      	b.n	40208c <prvCheckForValidListAndQueue+0x54>
  40208e:	bf00      	nop
  402090:	0040082d 	.word	0x0040082d
  402094:	2040c338 	.word	0x2040c338
  402098:	00400879 	.word	0x00400879
  40209c:	2040c30c 	.word	0x2040c30c
  4020a0:	004006e1 	.word	0x004006e1
  4020a4:	2040c320 	.word	0x2040c320
  4020a8:	2040c304 	.word	0x2040c304
  4020ac:	2040c308 	.word	0x2040c308
  4020b0:	00400d85 	.word	0x00400d85
  4020b4:	0040d298 	.word	0x0040d298
  4020b8:	00401395 	.word	0x00401395

004020bc <xTimerCreateTimerTask>:
  4020bc:	b510      	push	{r4, lr}
  4020be:	b084      	sub	sp, #16
  4020c0:	4b0f      	ldr	r3, [pc, #60]	; (402100 <xTimerCreateTimerTask+0x44>)
  4020c2:	4798      	blx	r3
  4020c4:	4b0f      	ldr	r3, [pc, #60]	; (402104 <xTimerCreateTimerTask+0x48>)
  4020c6:	681b      	ldr	r3, [r3, #0]
  4020c8:	b173      	cbz	r3, 4020e8 <xTimerCreateTimerTask+0x2c>
  4020ca:	2300      	movs	r3, #0
  4020cc:	9303      	str	r3, [sp, #12]
  4020ce:	9302      	str	r3, [sp, #8]
  4020d0:	9301      	str	r3, [sp, #4]
  4020d2:	2204      	movs	r2, #4
  4020d4:	9200      	str	r2, [sp, #0]
  4020d6:	f44f 7282 	mov.w	r2, #260	; 0x104
  4020da:	490b      	ldr	r1, [pc, #44]	; (402108 <xTimerCreateTimerTask+0x4c>)
  4020dc:	480b      	ldr	r0, [pc, #44]	; (40210c <xTimerCreateTimerTask+0x50>)
  4020de:	4c0c      	ldr	r4, [pc, #48]	; (402110 <xTimerCreateTimerTask+0x54>)
  4020e0:	47a0      	blx	r4
  4020e2:	b108      	cbz	r0, 4020e8 <xTimerCreateTimerTask+0x2c>
  4020e4:	b004      	add	sp, #16
  4020e6:	bd10      	pop	{r4, pc}
  4020e8:	f04f 0380 	mov.w	r3, #128	; 0x80
  4020ec:	b672      	cpsid	i
  4020ee:	f383 8811 	msr	BASEPRI, r3
  4020f2:	f3bf 8f6f 	isb	sy
  4020f6:	f3bf 8f4f 	dsb	sy
  4020fa:	b662      	cpsie	i
  4020fc:	e7fe      	b.n	4020fc <xTimerCreateTimerTask+0x40>
  4020fe:	bf00      	nop
  402100:	00402039 	.word	0x00402039
  402104:	2040c338 	.word	0x2040c338
  402108:	0040d2a0 	.word	0x0040d2a0
  40210c:	0040223d 	.word	0x0040223d
  402110:	004014a5 	.word	0x004014a5

00402114 <xTimerGenericCommand>:
  402114:	b1d8      	cbz	r0, 40214e <xTimerGenericCommand+0x3a>
  402116:	b530      	push	{r4, r5, lr}
  402118:	b085      	sub	sp, #20
  40211a:	4615      	mov	r5, r2
  40211c:	4604      	mov	r4, r0
  40211e:	4a15      	ldr	r2, [pc, #84]	; (402174 <xTimerGenericCommand+0x60>)
  402120:	6810      	ldr	r0, [r2, #0]
  402122:	b320      	cbz	r0, 40216e <xTimerGenericCommand+0x5a>
  402124:	461a      	mov	r2, r3
  402126:	9100      	str	r1, [sp, #0]
  402128:	9501      	str	r5, [sp, #4]
  40212a:	9402      	str	r4, [sp, #8]
  40212c:	2905      	cmp	r1, #5
  40212e:	dc19      	bgt.n	402164 <xTimerGenericCommand+0x50>
  402130:	4b11      	ldr	r3, [pc, #68]	; (402178 <xTimerGenericCommand+0x64>)
  402132:	4798      	blx	r3
  402134:	2802      	cmp	r0, #2
  402136:	f04f 0300 	mov.w	r3, #0
  40213a:	bf0c      	ite	eq
  40213c:	9a08      	ldreq	r2, [sp, #32]
  40213e:	461a      	movne	r2, r3
  402140:	4669      	mov	r1, sp
  402142:	480c      	ldr	r0, [pc, #48]	; (402174 <xTimerGenericCommand+0x60>)
  402144:	6800      	ldr	r0, [r0, #0]
  402146:	4c0d      	ldr	r4, [pc, #52]	; (40217c <xTimerGenericCommand+0x68>)
  402148:	47a0      	blx	r4
  40214a:	b005      	add	sp, #20
  40214c:	bd30      	pop	{r4, r5, pc}
  40214e:	f04f 0380 	mov.w	r3, #128	; 0x80
  402152:	b672      	cpsid	i
  402154:	f383 8811 	msr	BASEPRI, r3
  402158:	f3bf 8f6f 	isb	sy
  40215c:	f3bf 8f4f 	dsb	sy
  402160:	b662      	cpsie	i
  402162:	e7fe      	b.n	402162 <xTimerGenericCommand+0x4e>
  402164:	2300      	movs	r3, #0
  402166:	4669      	mov	r1, sp
  402168:	4c05      	ldr	r4, [pc, #20]	; (402180 <xTimerGenericCommand+0x6c>)
  40216a:	47a0      	blx	r4
  40216c:	e7ed      	b.n	40214a <xTimerGenericCommand+0x36>
  40216e:	2000      	movs	r0, #0
  402170:	e7eb      	b.n	40214a <xTimerGenericCommand+0x36>
  402172:	bf00      	nop
  402174:	2040c338 	.word	0x2040c338
  402178:	00401e51 	.word	0x00401e51
  40217c:	00400e01 	.word	0x00400e01
  402180:	00400fe5 	.word	0x00400fe5

00402184 <prvSampleTimeNow>:
  402184:	e92d 47f0 	stmdb	sp!, {r4, r5, r6, r7, r8, r9, sl, lr}
  402188:	b082      	sub	sp, #8
  40218a:	4680      	mov	r8, r0
  40218c:	4b24      	ldr	r3, [pc, #144]	; (402220 <prvSampleTimeNow+0x9c>)
  40218e:	4798      	blx	r3
  402190:	4607      	mov	r7, r0
  402192:	4b24      	ldr	r3, [pc, #144]	; (402224 <prvSampleTimeNow+0xa0>)
  402194:	681b      	ldr	r3, [r3, #0]
  402196:	4298      	cmp	r0, r3
  402198:	d31b      	bcc.n	4021d2 <prvSampleTimeNow+0x4e>
  40219a:	2300      	movs	r3, #0
  40219c:	f8c8 3000 	str.w	r3, [r8]
  4021a0:	4b20      	ldr	r3, [pc, #128]	; (402224 <prvSampleTimeNow+0xa0>)
  4021a2:	601f      	str	r7, [r3, #0]
  4021a4:	4638      	mov	r0, r7
  4021a6:	b002      	add	sp, #8
  4021a8:	e8bd 87f0 	ldmia.w	sp!, {r4, r5, r6, r7, r8, r9, sl, pc}
  4021ac:	2100      	movs	r1, #0
  4021ae:	9100      	str	r1, [sp, #0]
  4021b0:	460b      	mov	r3, r1
  4021b2:	4652      	mov	r2, sl
  4021b4:	4620      	mov	r0, r4
  4021b6:	4c1c      	ldr	r4, [pc, #112]	; (402228 <prvSampleTimeNow+0xa4>)
  4021b8:	47a0      	blx	r4
  4021ba:	b960      	cbnz	r0, 4021d6 <prvSampleTimeNow+0x52>
  4021bc:	f04f 0380 	mov.w	r3, #128	; 0x80
  4021c0:	b672      	cpsid	i
  4021c2:	f383 8811 	msr	BASEPRI, r3
  4021c6:	f3bf 8f6f 	isb	sy
  4021ca:	f3bf 8f4f 	dsb	sy
  4021ce:	b662      	cpsie	i
  4021d0:	e7fe      	b.n	4021d0 <prvSampleTimeNow+0x4c>
  4021d2:	4d16      	ldr	r5, [pc, #88]	; (40222c <prvSampleTimeNow+0xa8>)
  4021d4:	4e16      	ldr	r6, [pc, #88]	; (402230 <prvSampleTimeNow+0xac>)
  4021d6:	682b      	ldr	r3, [r5, #0]
  4021d8:	681a      	ldr	r2, [r3, #0]
  4021da:	b1c2      	cbz	r2, 40220e <prvSampleTimeNow+0x8a>
  4021dc:	68db      	ldr	r3, [r3, #12]
  4021de:	f8d3 a000 	ldr.w	sl, [r3]
  4021e2:	68dc      	ldr	r4, [r3, #12]
  4021e4:	f104 0904 	add.w	r9, r4, #4
  4021e8:	4648      	mov	r0, r9
  4021ea:	47b0      	blx	r6
  4021ec:	6a63      	ldr	r3, [r4, #36]	; 0x24
  4021ee:	4620      	mov	r0, r4
  4021f0:	4798      	blx	r3
  4021f2:	69e3      	ldr	r3, [r4, #28]
  4021f4:	2b01      	cmp	r3, #1
  4021f6:	d1ee      	bne.n	4021d6 <prvSampleTimeNow+0x52>
  4021f8:	69a3      	ldr	r3, [r4, #24]
  4021fa:	4453      	add	r3, sl
  4021fc:	459a      	cmp	sl, r3
  4021fe:	d2d5      	bcs.n	4021ac <prvSampleTimeNow+0x28>
  402200:	6063      	str	r3, [r4, #4]
  402202:	6124      	str	r4, [r4, #16]
  402204:	4649      	mov	r1, r9
  402206:	6828      	ldr	r0, [r5, #0]
  402208:	4b0a      	ldr	r3, [pc, #40]	; (402234 <prvSampleTimeNow+0xb0>)
  40220a:	4798      	blx	r3
  40220c:	e7e3      	b.n	4021d6 <prvSampleTimeNow+0x52>
  40220e:	4a0a      	ldr	r2, [pc, #40]	; (402238 <prvSampleTimeNow+0xb4>)
  402210:	6810      	ldr	r0, [r2, #0]
  402212:	4906      	ldr	r1, [pc, #24]	; (40222c <prvSampleTimeNow+0xa8>)
  402214:	6008      	str	r0, [r1, #0]
  402216:	6013      	str	r3, [r2, #0]
  402218:	2301      	movs	r3, #1
  40221a:	f8c8 3000 	str.w	r3, [r8]
  40221e:	e7bf      	b.n	4021a0 <prvSampleTimeNow+0x1c>
  402220:	00401775 	.word	0x00401775
  402224:	2040c334 	.word	0x2040c334
  402228:	00402115 	.word	0x00402115
  40222c:	2040c304 	.word	0x2040c304
  402230:	00400749 	.word	0x00400749
  402234:	00400715 	.word	0x00400715
  402238:	2040c308 	.word	0x2040c308

0040223c <prvTimerTask>:
  40223c:	e92d 47f0 	stmdb	sp!, {r4, r5, r6, r7, r8, r9, sl, lr}
  402240:	b088      	sub	sp, #32
  402242:	4e75      	ldr	r6, [pc, #468]	; (402418 <prvTimerTask+0x1dc>)
  402244:	4f75      	ldr	r7, [pc, #468]	; (40241c <prvTimerTask+0x1e0>)
  402246:	f8df 91fc 	ldr.w	r9, [pc, #508]	; 402444 <prvTimerTask+0x208>
  40224a:	f8df 81fc 	ldr.w	r8, [pc, #508]	; 402448 <prvTimerTask+0x20c>
  40224e:	6833      	ldr	r3, [r6, #0]
  402250:	681a      	ldr	r2, [r3, #0]
  402252:	2a00      	cmp	r2, #0
  402254:	f000 80ce 	beq.w	4023f4 <prvTimerTask+0x1b8>
  402258:	68db      	ldr	r3, [r3, #12]
  40225a:	681c      	ldr	r4, [r3, #0]
  40225c:	47b8      	blx	r7
  40225e:	a804      	add	r0, sp, #16
  402260:	4b6f      	ldr	r3, [pc, #444]	; (402420 <prvTimerTask+0x1e4>)
  402262:	4798      	blx	r3
  402264:	4605      	mov	r5, r0
  402266:	9b04      	ldr	r3, [sp, #16]
  402268:	2b00      	cmp	r3, #0
  40226a:	d144      	bne.n	4022f6 <prvTimerTask+0xba>
  40226c:	42a0      	cmp	r0, r4
  40226e:	d212      	bcs.n	402296 <prvTimerTask+0x5a>
  402270:	2200      	movs	r2, #0
  402272:	1b61      	subs	r1, r4, r5
  402274:	4b6b      	ldr	r3, [pc, #428]	; (402424 <prvTimerTask+0x1e8>)
  402276:	6818      	ldr	r0, [r3, #0]
  402278:	4b6b      	ldr	r3, [pc, #428]	; (402428 <prvTimerTask+0x1ec>)
  40227a:	4798      	blx	r3
  40227c:	4b6b      	ldr	r3, [pc, #428]	; (40242c <prvTimerTask+0x1f0>)
  40227e:	4798      	blx	r3
  402280:	2800      	cmp	r0, #0
  402282:	d13a      	bne.n	4022fa <prvTimerTask+0xbe>
  402284:	f04f 5380 	mov.w	r3, #268435456	; 0x10000000
  402288:	f8c9 3000 	str.w	r3, [r9]
  40228c:	f3bf 8f4f 	dsb	sy
  402290:	f3bf 8f6f 	isb	sy
  402294:	e031      	b.n	4022fa <prvTimerTask+0xbe>
  402296:	4b65      	ldr	r3, [pc, #404]	; (40242c <prvTimerTask+0x1f0>)
  402298:	4798      	blx	r3
  40229a:	6833      	ldr	r3, [r6, #0]
  40229c:	68db      	ldr	r3, [r3, #12]
  40229e:	f8d3 a00c 	ldr.w	sl, [r3, #12]
  4022a2:	f10a 0004 	add.w	r0, sl, #4
  4022a6:	47c0      	blx	r8
  4022a8:	f8da 301c 	ldr.w	r3, [sl, #28]
  4022ac:	2b01      	cmp	r3, #1
  4022ae:	d004      	beq.n	4022ba <prvTimerTask+0x7e>
  4022b0:	f8da 3024 	ldr.w	r3, [sl, #36]	; 0x24
  4022b4:	4650      	mov	r0, sl
  4022b6:	4798      	blx	r3
  4022b8:	e01f      	b.n	4022fa <prvTimerTask+0xbe>
  4022ba:	f8da 1018 	ldr.w	r1, [sl, #24]
  4022be:	4623      	mov	r3, r4
  4022c0:	462a      	mov	r2, r5
  4022c2:	4421      	add	r1, r4
  4022c4:	4650      	mov	r0, sl
  4022c6:	4d5a      	ldr	r5, [pc, #360]	; (402430 <prvTimerTask+0x1f4>)
  4022c8:	47a8      	blx	r5
  4022ca:	2801      	cmp	r0, #1
  4022cc:	d1f0      	bne.n	4022b0 <prvTimerTask+0x74>
  4022ce:	2100      	movs	r1, #0
  4022d0:	9100      	str	r1, [sp, #0]
  4022d2:	460b      	mov	r3, r1
  4022d4:	4622      	mov	r2, r4
  4022d6:	4650      	mov	r0, sl
  4022d8:	4c56      	ldr	r4, [pc, #344]	; (402434 <prvTimerTask+0x1f8>)
  4022da:	47a0      	blx	r4
  4022dc:	2800      	cmp	r0, #0
  4022de:	d1e7      	bne.n	4022b0 <prvTimerTask+0x74>
  4022e0:	f04f 0380 	mov.w	r3, #128	; 0x80
  4022e4:	b672      	cpsid	i
  4022e6:	f383 8811 	msr	BASEPRI, r3
  4022ea:	f3bf 8f6f 	isb	sy
  4022ee:	f3bf 8f4f 	dsb	sy
  4022f2:	b662      	cpsie	i
  4022f4:	e7fe      	b.n	4022f4 <prvTimerTask+0xb8>
  4022f6:	4b4d      	ldr	r3, [pc, #308]	; (40242c <prvTimerTask+0x1f0>)
  4022f8:	4798      	blx	r3
  4022fa:	4d4a      	ldr	r5, [pc, #296]	; (402424 <prvTimerTask+0x1e8>)
  4022fc:	4c4e      	ldr	r4, [pc, #312]	; (402438 <prvTimerTask+0x1fc>)
  4022fe:	e006      	b.n	40230e <prvTimerTask+0xd2>
  402300:	9907      	ldr	r1, [sp, #28]
  402302:	9806      	ldr	r0, [sp, #24]
  402304:	9b05      	ldr	r3, [sp, #20]
  402306:	4798      	blx	r3
  402308:	9b04      	ldr	r3, [sp, #16]
  40230a:	2b00      	cmp	r3, #0
  40230c:	da09      	bge.n	402322 <prvTimerTask+0xe6>
  40230e:	2300      	movs	r3, #0
  402310:	461a      	mov	r2, r3
  402312:	a904      	add	r1, sp, #16
  402314:	6828      	ldr	r0, [r5, #0]
  402316:	47a0      	blx	r4
  402318:	2800      	cmp	r0, #0
  40231a:	d098      	beq.n	40224e <prvTimerTask+0x12>
  40231c:	9b04      	ldr	r3, [sp, #16]
  40231e:	2b00      	cmp	r3, #0
  402320:	dbee      	blt.n	402300 <prvTimerTask+0xc4>
  402322:	f8dd a018 	ldr.w	sl, [sp, #24]
  402326:	f8da 3014 	ldr.w	r3, [sl, #20]
  40232a:	b113      	cbz	r3, 402332 <prvTimerTask+0xf6>
  40232c:	f10a 0004 	add.w	r0, sl, #4
  402330:	47c0      	blx	r8
  402332:	a803      	add	r0, sp, #12
  402334:	4b3a      	ldr	r3, [pc, #232]	; (402420 <prvTimerTask+0x1e4>)
  402336:	4798      	blx	r3
  402338:	9b04      	ldr	r3, [sp, #16]
  40233a:	2b09      	cmp	r3, #9
  40233c:	d8e7      	bhi.n	40230e <prvTimerTask+0xd2>
  40233e:	a201      	add	r2, pc, #4	; (adr r2, 402344 <prvTimerTask+0x108>)
  402340:	f852 f023 	ldr.w	pc, [r2, r3, lsl #2]
  402344:	0040236d 	.word	0x0040236d
  402348:	0040236d 	.word	0x0040236d
  40234c:	0040236d 	.word	0x0040236d
  402350:	0040230f 	.word	0x0040230f
  402354:	004023c1 	.word	0x004023c1
  402358:	004023ed 	.word	0x004023ed
  40235c:	0040236d 	.word	0x0040236d
  402360:	0040236d 	.word	0x0040236d
  402364:	0040230f 	.word	0x0040230f
  402368:	004023c1 	.word	0x004023c1
  40236c:	9c05      	ldr	r4, [sp, #20]
  40236e:	f8da 1018 	ldr.w	r1, [sl, #24]
  402372:	4623      	mov	r3, r4
  402374:	4602      	mov	r2, r0
  402376:	4421      	add	r1, r4
  402378:	4650      	mov	r0, sl
  40237a:	4c2d      	ldr	r4, [pc, #180]	; (402430 <prvTimerTask+0x1f4>)
  40237c:	47a0      	blx	r4
  40237e:	2801      	cmp	r0, #1
  402380:	d1bc      	bne.n	4022fc <prvTimerTask+0xc0>
  402382:	f8da 3024 	ldr.w	r3, [sl, #36]	; 0x24
  402386:	4650      	mov	r0, sl
  402388:	4798      	blx	r3
  40238a:	f8da 301c 	ldr.w	r3, [sl, #28]
  40238e:	2b01      	cmp	r3, #1
  402390:	d1b4      	bne.n	4022fc <prvTimerTask+0xc0>
  402392:	f8da 2018 	ldr.w	r2, [sl, #24]
  402396:	2100      	movs	r1, #0
  402398:	9100      	str	r1, [sp, #0]
  40239a:	460b      	mov	r3, r1
  40239c:	9805      	ldr	r0, [sp, #20]
  40239e:	4402      	add	r2, r0
  4023a0:	4650      	mov	r0, sl
  4023a2:	4c24      	ldr	r4, [pc, #144]	; (402434 <prvTimerTask+0x1f8>)
  4023a4:	47a0      	blx	r4
  4023a6:	2800      	cmp	r0, #0
  4023a8:	d1a8      	bne.n	4022fc <prvTimerTask+0xc0>
  4023aa:	f04f 0380 	mov.w	r3, #128	; 0x80
  4023ae:	b672      	cpsid	i
  4023b0:	f383 8811 	msr	BASEPRI, r3
  4023b4:	f3bf 8f6f 	isb	sy
  4023b8:	f3bf 8f4f 	dsb	sy
  4023bc:	b662      	cpsie	i
  4023be:	e7fe      	b.n	4023be <prvTimerTask+0x182>
  4023c0:	9905      	ldr	r1, [sp, #20]
  4023c2:	f8ca 1018 	str.w	r1, [sl, #24]
  4023c6:	b131      	cbz	r1, 4023d6 <prvTimerTask+0x19a>
  4023c8:	4603      	mov	r3, r0
  4023ca:	4602      	mov	r2, r0
  4023cc:	4401      	add	r1, r0
  4023ce:	4650      	mov	r0, sl
  4023d0:	4c17      	ldr	r4, [pc, #92]	; (402430 <prvTimerTask+0x1f4>)
  4023d2:	47a0      	blx	r4
  4023d4:	e792      	b.n	4022fc <prvTimerTask+0xc0>
  4023d6:	f04f 0380 	mov.w	r3, #128	; 0x80
  4023da:	b672      	cpsid	i
  4023dc:	f383 8811 	msr	BASEPRI, r3
  4023e0:	f3bf 8f6f 	isb	sy
  4023e4:	f3bf 8f4f 	dsb	sy
  4023e8:	b662      	cpsie	i
  4023ea:	e7fe      	b.n	4023ea <prvTimerTask+0x1ae>
  4023ec:	4650      	mov	r0, sl
  4023ee:	4b13      	ldr	r3, [pc, #76]	; (40243c <prvTimerTask+0x200>)
  4023f0:	4798      	blx	r3
  4023f2:	e783      	b.n	4022fc <prvTimerTask+0xc0>
  4023f4:	47b8      	blx	r7
  4023f6:	a804      	add	r0, sp, #16
  4023f8:	4b09      	ldr	r3, [pc, #36]	; (402420 <prvTimerTask+0x1e4>)
  4023fa:	4798      	blx	r3
  4023fc:	4605      	mov	r5, r0
  4023fe:	9b04      	ldr	r3, [sp, #16]
  402400:	2b00      	cmp	r3, #0
  402402:	f47f af78 	bne.w	4022f6 <prvTimerTask+0xba>
  402406:	4b0e      	ldr	r3, [pc, #56]	; (402440 <prvTimerTask+0x204>)
  402408:	681b      	ldr	r3, [r3, #0]
  40240a:	681a      	ldr	r2, [r3, #0]
  40240c:	fab2 f282 	clz	r2, r2
  402410:	0952      	lsrs	r2, r2, #5
  402412:	2400      	movs	r4, #0
  402414:	e72d      	b.n	402272 <prvTimerTask+0x36>
  402416:	bf00      	nop
  402418:	2040c304 	.word	0x2040c304
  40241c:	00401765 	.word	0x00401765
  402420:	00402185 	.word	0x00402185
  402424:	2040c338 	.word	0x2040c338
  402428:	004013c9 	.word	0x004013c9
  40242c:	004018cd 	.word	0x004018cd
  402430:	00401fed 	.word	0x00401fed
  402434:	00402115 	.word	0x00402115
  402438:	004011c5 	.word	0x004011c5
  40243c:	00400af9 	.word	0x00400af9
  402440:	2040c308 	.word	0x2040c308
  402444:	e000ed04 	.word	0xe000ed04
  402448:	00400749 	.word	0x00400749

0040244c <chip_isr>:
  40244c:	2810      	cmp	r0, #16
  40244e:	d108      	bne.n	402462 <chip_isr+0x16>
  402450:	f1b1 5f80 	cmp.w	r1, #268435456	; 0x10000000
  402454:	d105      	bne.n	402462 <chip_isr+0x16>
  402456:	b508      	push	{r3, lr}
  402458:	4b02      	ldr	r3, [pc, #8]	; (402464 <chip_isr+0x18>)
  40245a:	681b      	ldr	r3, [r3, #0]
  40245c:	b103      	cbz	r3, 402460 <chip_isr+0x14>
  40245e:	4798      	blx	r3
  402460:	bd08      	pop	{r3, pc}
  402462:	4770      	bx	lr
  402464:	2040c33c 	.word	0x2040c33c

00402468 <nm_bsp_sleep>:
  402468:	b150      	cbz	r0, 402480 <nm_bsp_sleep+0x18>
  40246a:	b570      	push	{r4, r5, r6, lr}
  40246c:	1e44      	subs	r4, r0, #1
  40246e:	4e05      	ldr	r6, [pc, #20]	; (402484 <nm_bsp_sleep+0x1c>)
  402470:	4d05      	ldr	r5, [pc, #20]	; (402488 <nm_bsp_sleep+0x20>)
  402472:	4630      	mov	r0, r6
  402474:	47a8      	blx	r5
  402476:	3c01      	subs	r4, #1
  402478:	f1b4 3fff 	cmp.w	r4, #4294967295
  40247c:	d1f9      	bne.n	402472 <nm_bsp_sleep+0xa>
  40247e:	bd70      	pop	{r4, r5, r6, pc}
  402480:	4770      	bx	lr
  402482:	bf00      	nop
  402484:	00031635 	.word	0x00031635
  402488:	20400001 	.word	0x20400001

0040248c <nm_bsp_reset>:
  40248c:	e92d 41f0 	stmdb	sp!, {r4, r5, r6, r7, r8, lr}
  402490:	4f09      	ldr	r7, [pc, #36]	; (4024b8 <nm_bsp_reset+0x2c>)
  402492:	f44f 3800 	mov.w	r8, #131072	; 0x20000
  402496:	f8c7 8034 	str.w	r8, [r7, #52]	; 0x34
  40249a:	4d08      	ldr	r5, [pc, #32]	; (4024bc <nm_bsp_reset+0x30>)
  40249c:	2608      	movs	r6, #8
  40249e:	636e      	str	r6, [r5, #52]	; 0x34
  4024a0:	2064      	movs	r0, #100	; 0x64
  4024a2:	4c07      	ldr	r4, [pc, #28]	; (4024c0 <nm_bsp_reset+0x34>)
  4024a4:	47a0      	blx	r4
  4024a6:	f8c7 8030 	str.w	r8, [r7, #48]	; 0x30
  4024aa:	2064      	movs	r0, #100	; 0x64
  4024ac:	47a0      	blx	r4
  4024ae:	632e      	str	r6, [r5, #48]	; 0x30
  4024b0:	2064      	movs	r0, #100	; 0x64
  4024b2:	47a0      	blx	r4
  4024b4:	e8bd 81f0 	ldmia.w	sp!, {r4, r5, r6, r7, r8, pc}
  4024b8:	400e1200 	.word	0x400e1200
  4024bc:	400e1000 	.word	0x400e1000
  4024c0:	00402469 	.word	0x00402469

004024c4 <nm_bsp_init>:
  4024c4:	b510      	push	{r4, lr}
  4024c6:	2200      	movs	r2, #0
  4024c8:	4b14      	ldr	r3, [pc, #80]	; (40251c <nm_bsp_init+0x58>)
  4024ca:	601a      	str	r2, [r3, #0]
  4024cc:	200a      	movs	r0, #10
  4024ce:	4c14      	ldr	r4, [pc, #80]	; (402520 <nm_bsp_init+0x5c>)
  4024d0:	47a0      	blx	r4
  4024d2:	200b      	movs	r0, #11
  4024d4:	47a0      	blx	r4
  4024d6:	200c      	movs	r0, #12
  4024d8:	47a0      	blx	r4
  4024da:	2010      	movs	r0, #16
  4024dc:	47a0      	blx	r4
  4024de:	2011      	movs	r0, #17
  4024e0:	47a0      	blx	r4
  4024e2:	4b10      	ldr	r3, [pc, #64]	; (402524 <nm_bsp_init+0x60>)
  4024e4:	2208      	movs	r2, #8
  4024e6:	611a      	str	r2, [r3, #16]
  4024e8:	f8c3 20a0 	str.w	r2, [r3, #160]	; 0xa0
  4024ec:	631a      	str	r2, [r3, #48]	; 0x30
  4024ee:	4a0e      	ldr	r2, [pc, #56]	; (402528 <nm_bsp_init+0x64>)
  4024f0:	f44f 3100 	mov.w	r1, #131072	; 0x20000
  4024f4:	6111      	str	r1, [r2, #16]
  4024f6:	f8c2 10a0 	str.w	r1, [r2, #160]	; 0xa0
  4024fa:	6311      	str	r1, [r2, #48]	; 0x30
  4024fc:	2204      	movs	r2, #4
  4024fe:	611a      	str	r2, [r3, #16]
  402500:	f8c3 20a0 	str.w	r2, [r3, #160]	; 0xa0
  402504:	631a      	str	r2, [r3, #48]	; 0x30
  402506:	4b09      	ldr	r3, [pc, #36]	; (40252c <nm_bsp_init+0x68>)
  402508:	681b      	ldr	r3, [r3, #0]
  40250a:	f013 0f01 	tst.w	r3, #1
  40250e:	d001      	beq.n	402514 <nm_bsp_init+0x50>
  402510:	4b06      	ldr	r3, [pc, #24]	; (40252c <nm_bsp_init+0x68>)
  402512:	681b      	ldr	r3, [r3, #0]
  402514:	4b06      	ldr	r3, [pc, #24]	; (402530 <nm_bsp_init+0x6c>)
  402516:	4798      	blx	r3
  402518:	2000      	movs	r0, #0
  40251a:	bd10      	pop	{r4, pc}
  40251c:	2040c33c 	.word	0x2040c33c
  402520:	00405799 	.word	0x00405799
  402524:	400e1000 	.word	0x400e1000
  402528:	400e1200 	.word	0x400e1200
  40252c:	e000e010 	.word	0xe000e010
  402530:	0040248d 	.word	0x0040248d

00402534 <nm_bsp_register_isr>:
  402534:	b530      	push	{r4, r5, lr}
  402536:	b083      	sub	sp, #12
  402538:	4b14      	ldr	r3, [pc, #80]	; (40258c <nm_bsp_register_isr+0x58>)
  40253a:	6018      	str	r0, [r3, #0]
  40253c:	2010      	movs	r0, #16
  40253e:	4b14      	ldr	r3, [pc, #80]	; (402590 <nm_bsp_register_isr+0x5c>)
  402540:	4798      	blx	r3
  402542:	f04f 5120 	mov.w	r1, #671088640	; 0x28000000
  402546:	207c      	movs	r0, #124	; 0x7c
  402548:	4b12      	ldr	r3, [pc, #72]	; (402594 <nm_bsp_register_isr+0x60>)
  40254a:	4798      	blx	r3
  40254c:	4c12      	ldr	r4, [pc, #72]	; (402598 <nm_bsp_register_isr+0x64>)
  40254e:	2201      	movs	r2, #1
  402550:	f04f 5180 	mov.w	r1, #268435456	; 0x10000000
  402554:	4620      	mov	r0, r4
  402556:	4b11      	ldr	r3, [pc, #68]	; (40259c <nm_bsp_register_isr+0x68>)
  402558:	4798      	blx	r3
  40255a:	4b11      	ldr	r3, [pc, #68]	; (4025a0 <nm_bsp_register_isr+0x6c>)
  40255c:	9300      	str	r3, [sp, #0]
  40255e:	2351      	movs	r3, #81	; 0x51
  402560:	f04f 5280 	mov.w	r2, #268435456	; 0x10000000
  402564:	2110      	movs	r1, #16
  402566:	4620      	mov	r0, r4
  402568:	4d0e      	ldr	r5, [pc, #56]	; (4025a4 <nm_bsp_register_isr+0x70>)
  40256a:	47a8      	blx	r5
  40256c:	f04f 5180 	mov.w	r1, #268435456	; 0x10000000
  402570:	4620      	mov	r0, r4
  402572:	4b0d      	ldr	r3, [pc, #52]	; (4025a8 <nm_bsp_register_isr+0x74>)
  402574:	4798      	blx	r3
  402576:	f44f 3280 	mov.w	r2, #65536	; 0x10000
  40257a:	4b0c      	ldr	r3, [pc, #48]	; (4025ac <nm_bsp_register_isr+0x78>)
  40257c:	601a      	str	r2, [r3, #0]
  40257e:	2200      	movs	r2, #0
  402580:	2110      	movs	r1, #16
  402582:	4620      	mov	r0, r4
  402584:	4b0a      	ldr	r3, [pc, #40]	; (4025b0 <nm_bsp_register_isr+0x7c>)
  402586:	4798      	blx	r3
  402588:	b003      	add	sp, #12
  40258a:	bd30      	pop	{r4, r5, pc}
  40258c:	2040c33c 	.word	0x2040c33c
  402590:	00405799 	.word	0x00405799
  402594:	004053a1 	.word	0x004053a1
  402598:	400e1400 	.word	0x400e1400
  40259c:	004051b1 	.word	0x004051b1
  4025a0:	0040244d 	.word	0x0040244d
  4025a4:	00405521 	.word	0x00405521
  4025a8:	0040538f 	.word	0x0040538f
  4025ac:	e000e100 	.word	0xe000e100
  4025b0:	004055f5 	.word	0x004055f5

004025b4 <nm_bsp_interrupt_ctrl>:
  4025b4:	b508      	push	{r3, lr}
  4025b6:	b928      	cbnz	r0, 4025c4 <nm_bsp_interrupt_ctrl+0x10>
  4025b8:	f04f 5180 	mov.w	r1, #268435456	; 0x10000000
  4025bc:	4804      	ldr	r0, [pc, #16]	; (4025d0 <nm_bsp_interrupt_ctrl+0x1c>)
  4025be:	4b05      	ldr	r3, [pc, #20]	; (4025d4 <nm_bsp_interrupt_ctrl+0x20>)
  4025c0:	4798      	blx	r3
  4025c2:	bd08      	pop	{r3, pc}
  4025c4:	f04f 5180 	mov.w	r1, #268435456	; 0x10000000
  4025c8:	4801      	ldr	r0, [pc, #4]	; (4025d0 <nm_bsp_interrupt_ctrl+0x1c>)
  4025ca:	4b03      	ldr	r3, [pc, #12]	; (4025d8 <nm_bsp_interrupt_ctrl+0x24>)
  4025cc:	4798      	blx	r3
  4025ce:	bd08      	pop	{r3, pc}
  4025d0:	400e1400 	.word	0x400e1400
  4025d4:	00405393 	.word	0x00405393
  4025d8:	0040538f 	.word	0x0040538f

004025dc <nm_bus_init>:
  4025dc:	b5f8      	push	{r3, r4, r5, r6, r7, lr}
  4025de:	4c39      	ldr	r4, [pc, #228]	; (4026c4 <nm_bus_init+0xe8>)
  4025e0:	f44f 1180 	mov.w	r1, #1048576	; 0x100000
  4025e4:	6621      	str	r1, [r4, #96]	; 0x60
  4025e6:	f8c4 1090 	str.w	r1, [r4, #144]	; 0x90
  4025ea:	6561      	str	r1, [r4, #84]	; 0x54
  4025ec:	6261      	str	r1, [r4, #36]	; 0x24
  4025ee:	f8c4 1080 	str.w	r1, [r4, #128]	; 0x80
  4025f2:	6f23      	ldr	r3, [r4, #112]	; 0x70
  4025f4:	430b      	orrs	r3, r1
  4025f6:	6723      	str	r3, [r4, #112]	; 0x70
  4025f8:	6f63      	ldr	r3, [r4, #116]	; 0x74
  4025fa:	f423 1380 	bic.w	r3, r3, #1048576	; 0x100000
  4025fe:	6763      	str	r3, [r4, #116]	; 0x74
  402600:	f44f 1200 	mov.w	r2, #2097152	; 0x200000
  402604:	6622      	str	r2, [r4, #96]	; 0x60
  402606:	f8c4 2090 	str.w	r2, [r4, #144]	; 0x90
  40260a:	6562      	str	r2, [r4, #84]	; 0x54
  40260c:	6262      	str	r2, [r4, #36]	; 0x24
  40260e:	f8c4 2080 	str.w	r2, [r4, #128]	; 0x80
  402612:	6f23      	ldr	r3, [r4, #112]	; 0x70
  402614:	4313      	orrs	r3, r2
  402616:	6723      	str	r3, [r4, #112]	; 0x70
  402618:	6f63      	ldr	r3, [r4, #116]	; 0x74
  40261a:	f423 1300 	bic.w	r3, r3, #2097152	; 0x200000
  40261e:	6763      	str	r3, [r4, #116]	; 0x74
  402620:	f44f 0380 	mov.w	r3, #4194304	; 0x400000
  402624:	6623      	str	r3, [r4, #96]	; 0x60
  402626:	f8c4 3090 	str.w	r3, [r4, #144]	; 0x90
  40262a:	6563      	str	r3, [r4, #84]	; 0x54
  40262c:	6263      	str	r3, [r4, #36]	; 0x24
  40262e:	f8c4 3080 	str.w	r3, [r4, #128]	; 0x80
  402632:	6f20      	ldr	r0, [r4, #112]	; 0x70
  402634:	4318      	orrs	r0, r3
  402636:	6720      	str	r0, [r4, #112]	; 0x70
  402638:	6f60      	ldr	r0, [r4, #116]	; 0x74
  40263a:	f420 0080 	bic.w	r0, r0, #4194304	; 0x400000
  40263e:	6760      	str	r0, [r4, #116]	; 0x74
  402640:	6061      	str	r1, [r4, #4]
  402642:	6062      	str	r2, [r4, #4]
  402644:	6063      	str	r3, [r4, #4]
  402646:	f04f 7600 	mov.w	r6, #33554432	; 0x2000000
  40264a:	6066      	str	r6, [r4, #4]
  40264c:	6026      	str	r6, [r4, #0]
  40264e:	6126      	str	r6, [r4, #16]
  402650:	6326      	str	r6, [r4, #48]	; 0x30
  402652:	4d1d      	ldr	r5, [pc, #116]	; (4026c8 <nm_bus_init+0xec>)
  402654:	4628      	mov	r0, r5
  402656:	4b1d      	ldr	r3, [pc, #116]	; (4026cc <nm_bus_init+0xf0>)
  402658:	4798      	blx	r3
  40265a:	2302      	movs	r3, #2
  40265c:	602b      	str	r3, [r5, #0]
  40265e:	2380      	movs	r3, #128	; 0x80
  402660:	602b      	str	r3, [r5, #0]
  402662:	686b      	ldr	r3, [r5, #4]
  402664:	f043 0301 	orr.w	r3, r3, #1
  402668:	606b      	str	r3, [r5, #4]
  40266a:	686b      	ldr	r3, [r5, #4]
  40266c:	f043 0310 	orr.w	r3, r3, #16
  402670:	606b      	str	r3, [r5, #4]
  402672:	2101      	movs	r1, #1
  402674:	4628      	mov	r0, r5
  402676:	4b16      	ldr	r3, [pc, #88]	; (4026d0 <nm_bus_init+0xf4>)
  402678:	4798      	blx	r3
  40267a:	2200      	movs	r2, #0
  40267c:	2101      	movs	r1, #1
  40267e:	4628      	mov	r0, r5
  402680:	4b14      	ldr	r3, [pc, #80]	; (4026d4 <nm_bus_init+0xf8>)
  402682:	4798      	blx	r3
  402684:	2201      	movs	r2, #1
  402686:	4611      	mov	r1, r2
  402688:	4628      	mov	r0, r5
  40268a:	4b13      	ldr	r3, [pc, #76]	; (4026d8 <nm_bus_init+0xfc>)
  40268c:	4798      	blx	r3
  40268e:	2200      	movs	r2, #0
  402690:	2101      	movs	r1, #1
  402692:	4628      	mov	r0, r5
  402694:	4b11      	ldr	r3, [pc, #68]	; (4026dc <nm_bus_init+0x100>)
  402696:	4798      	blx	r3
  402698:	4911      	ldr	r1, [pc, #68]	; (4026e0 <nm_bus_init+0x104>)
  40269a:	4812      	ldr	r0, [pc, #72]	; (4026e4 <nm_bus_init+0x108>)
  40269c:	4b12      	ldr	r3, [pc, #72]	; (4026e8 <nm_bus_init+0x10c>)
  40269e:	4798      	blx	r3
  4026a0:	b2c2      	uxtb	r2, r0
  4026a2:	2101      	movs	r1, #1
  4026a4:	4628      	mov	r0, r5
  4026a6:	4b11      	ldr	r3, [pc, #68]	; (4026ec <nm_bus_init+0x110>)
  4026a8:	4798      	blx	r3
  4026aa:	2300      	movs	r3, #0
  4026ac:	461a      	mov	r2, r3
  4026ae:	2101      	movs	r1, #1
  4026b0:	4628      	mov	r0, r5
  4026b2:	4f0f      	ldr	r7, [pc, #60]	; (4026f0 <nm_bus_init+0x114>)
  4026b4:	47b8      	blx	r7
  4026b6:	2301      	movs	r3, #1
  4026b8:	602b      	str	r3, [r5, #0]
  4026ba:	6326      	str	r6, [r4, #48]	; 0x30
  4026bc:	4b0d      	ldr	r3, [pc, #52]	; (4026f4 <nm_bus_init+0x118>)
  4026be:	4798      	blx	r3
  4026c0:	2000      	movs	r0, #0
  4026c2:	bdf8      	pop	{r3, r4, r5, r6, r7, pc}
  4026c4:	400e1400 	.word	0x400e1400
  4026c8:	40008000 	.word	0x40008000
  4026cc:	004057ed 	.word	0x004057ed
  4026d0:	00405819 	.word	0x00405819
  4026d4:	00405893 	.word	0x00405893
  4026d8:	004058b1 	.word	0x004058b1
  4026dc:	004058cf 	.word	0x004058cf
  4026e0:	11e1a300 	.word	0x11e1a300
  4026e4:	02dc6c00 	.word	0x02dc6c00
  4026e8:	004058e3 	.word	0x004058e3
  4026ec:	004058f9 	.word	0x004058f9
  4026f0:	00405921 	.word	0x00405921
  4026f4:	0040248d 	.word	0x0040248d

004026f8 <nm_bus_ioctl>:
  4026f8:	e92d 4ff0 	stmdb	sp!, {r4, r5, r6, r7, r8, r9, sl, fp, lr}
  4026fc:	b083      	sub	sp, #12
  4026fe:	2803      	cmp	r0, #3
  402700:	d144      	bne.n	40278c <nm_bus_ioctl+0x94>
  402702:	680e      	ldr	r6, [r1, #0]
  402704:	684d      	ldr	r5, [r1, #4]
  402706:	890c      	ldrh	r4, [r1, #8]
  402708:	2300      	movs	r3, #0
  40270a:	f88d 3004 	strb.w	r3, [sp, #4]
  40270e:	f8ad 3006 	strh.w	r3, [sp, #6]
  402712:	b186      	cbz	r6, 402736 <nm_bus_ioctl+0x3e>
  402714:	2d00      	cmp	r5, #0
  402716:	d136      	bne.n	402786 <nm_bus_ioctl+0x8e>
  402718:	f04f 0801 	mov.w	r8, #1
  40271c:	4699      	mov	r9, r3
  40271e:	ad01      	add	r5, sp, #4
  402720:	f04f 7200 	mov.w	r2, #33554432	; 0x2000000
  402724:	4b20      	ldr	r3, [pc, #128]	; (4027a8 <nm_bus_ioctl+0xb0>)
  402726:	635a      	str	r2, [r3, #52]	; 0x34
  402728:	b32c      	cbz	r4, 402776 <nm_bus_ioctl+0x7e>
  40272a:	4f20      	ldr	r7, [pc, #128]	; (4027ac <nm_bus_ioctl+0xb4>)
  40272c:	f8df b094 	ldr.w	fp, [pc, #148]	; 4027c4 <nm_bus_ioctl+0xcc>
  402730:	f8df a094 	ldr.w	sl, [pc, #148]	; 4027c8 <nm_bus_ioctl+0xd0>
  402734:	e006      	b.n	402744 <nm_bus_ioctl+0x4c>
  402736:	f04f 0800 	mov.w	r8, #0
  40273a:	f04f 0901 	mov.w	r9, #1
  40273e:	ae01      	add	r6, sp, #4
  402740:	e7ee      	b.n	402720 <nm_bus_ioctl+0x28>
  402742:	b1c4      	cbz	r4, 402776 <nm_bus_ioctl+0x7e>
  402744:	2300      	movs	r3, #0
  402746:	461a      	mov	r2, r3
  402748:	7831      	ldrb	r1, [r6, #0]
  40274a:	4638      	mov	r0, r7
  40274c:	47d8      	blx	fp
  40274e:	f10d 0205 	add.w	r2, sp, #5
  402752:	f10d 0106 	add.w	r1, sp, #6
  402756:	4638      	mov	r0, r7
  402758:	47d0      	blx	sl
  40275a:	f8bd 3006 	ldrh.w	r3, [sp, #6]
  40275e:	702b      	strb	r3, [r5, #0]
  402760:	3c01      	subs	r4, #1
  402762:	b2a4      	uxth	r4, r4
  402764:	f1b8 0f00 	cmp.w	r8, #0
  402768:	d100      	bne.n	40276c <nm_bus_ioctl+0x74>
  40276a:	3501      	adds	r5, #1
  40276c:	f1b9 0f00 	cmp.w	r9, #0
  402770:	d1e7      	bne.n	402742 <nm_bus_ioctl+0x4a>
  402772:	3601      	adds	r6, #1
  402774:	e7e5      	b.n	402742 <nm_bus_ioctl+0x4a>
  402776:	f04f 7200 	mov.w	r2, #33554432	; 0x2000000
  40277a:	4b0b      	ldr	r3, [pc, #44]	; (4027a8 <nm_bus_ioctl+0xb0>)
  40277c:	631a      	str	r2, [r3, #48]	; 0x30
  40277e:	2000      	movs	r0, #0
  402780:	b003      	add	sp, #12
  402782:	e8bd 8ff0 	ldmia.w	sp!, {r4, r5, r6, r7, r8, r9, sl, fp, pc}
  402786:	f06f 0005 	mvn.w	r0, #5
  40278a:	e7f9      	b.n	402780 <nm_bus_ioctl+0x88>
  40278c:	f240 121f 	movw	r2, #287	; 0x11f
  402790:	4907      	ldr	r1, [pc, #28]	; (4027b0 <nm_bus_ioctl+0xb8>)
  402792:	4808      	ldr	r0, [pc, #32]	; (4027b4 <nm_bus_ioctl+0xbc>)
  402794:	4c08      	ldr	r4, [pc, #32]	; (4027b8 <nm_bus_ioctl+0xc0>)
  402796:	47a0      	blx	r4
  402798:	4808      	ldr	r0, [pc, #32]	; (4027bc <nm_bus_ioctl+0xc4>)
  40279a:	47a0      	blx	r4
  40279c:	4808      	ldr	r0, [pc, #32]	; (4027c0 <nm_bus_ioctl+0xc8>)
  40279e:	47a0      	blx	r4
  4027a0:	f04f 30ff 	mov.w	r0, #4294967295
  4027a4:	e7ec      	b.n	402780 <nm_bus_ioctl+0x88>
  4027a6:	bf00      	nop
  4027a8:	400e1400 	.word	0x400e1400
  4027ac:	40008000 	.word	0x40008000
  4027b0:	0040d2a8 	.word	0x0040d2a8
  4027b4:	0040d2b8 	.word	0x0040d2b8
  4027b8:	004075b5 	.word	0x004075b5
  4027bc:	0040d2cc 	.word	0x0040d2cc
  4027c0:	0040d2e4 	.word	0x0040d2e4
  4027c4:	0040585f 	.word	0x0040585f
  4027c8:	0040582f 	.word	0x0040582f

004027cc <nm_bus_deinit>:
  4027cc:	2202      	movs	r2, #2
  4027ce:	4b0e      	ldr	r3, [pc, #56]	; (402808 <nm_bus_deinit+0x3c>)
  4027d0:	601a      	str	r2, [r3, #0]
  4027d2:	f503 2359 	add.w	r3, r3, #888832	; 0xd9000
  4027d6:	f503 6380 	add.w	r3, r3, #1024	; 0x400
  4027da:	f44f 1200 	mov.w	r2, #2097152	; 0x200000
  4027de:	615a      	str	r2, [r3, #20]
  4027e0:	f8c3 20a0 	str.w	r2, [r3, #160]	; 0xa0
  4027e4:	f44f 1280 	mov.w	r2, #1048576	; 0x100000
  4027e8:	615a      	str	r2, [r3, #20]
  4027ea:	f8c3 20a0 	str.w	r2, [r3, #160]	; 0xa0
  4027ee:	f44f 0280 	mov.w	r2, #4194304	; 0x400000
  4027f2:	615a      	str	r2, [r3, #20]
  4027f4:	f8c3 20a0 	str.w	r2, [r3, #160]	; 0xa0
  4027f8:	f04f 7200 	mov.w	r2, #33554432	; 0x2000000
  4027fc:	615a      	str	r2, [r3, #20]
  4027fe:	f8c3 20a0 	str.w	r2, [r3, #160]	; 0xa0
  402802:	2000      	movs	r0, #0
  402804:	4770      	bx	lr
  402806:	bf00      	nop
  402808:	40008000 	.word	0x40008000

0040280c <m2m_memcpy>:
  40280c:	b13a      	cbz	r2, 40281e <m2m_memcpy+0x12>
  40280e:	3901      	subs	r1, #1
  402810:	1882      	adds	r2, r0, r2
  402812:	f811 3f01 	ldrb.w	r3, [r1, #1]!
  402816:	f800 3b01 	strb.w	r3, [r0], #1
  40281a:	4290      	cmp	r0, r2
  40281c:	d1f9      	bne.n	402812 <m2m_memcpy+0x6>
  40281e:	4770      	bx	lr

00402820 <m2m_memset>:
  402820:	b122      	cbz	r2, 40282c <m2m_memset+0xc>
  402822:	1882      	adds	r2, r0, r2
  402824:	f800 1b01 	strb.w	r1, [r0], #1
  402828:	4290      	cmp	r0, r2
  40282a:	d1fb      	bne.n	402824 <m2m_memset+0x4>
  40282c:	4770      	bx	lr

0040282e <m2m_strlen>:
  40282e:	7803      	ldrb	r3, [r0, #0]
  402830:	b143      	cbz	r3, 402844 <m2m_strlen+0x16>
  402832:	2300      	movs	r3, #0
  402834:	3301      	adds	r3, #1
  402836:	b29b      	uxth	r3, r3
  402838:	f810 2f01 	ldrb.w	r2, [r0, #1]!
  40283c:	2a00      	cmp	r2, #0
  40283e:	d1f9      	bne.n	402834 <m2m_strlen+0x6>
  402840:	4618      	mov	r0, r3
  402842:	4770      	bx	lr
  402844:	2300      	movs	r3, #0
  402846:	e7fb      	b.n	402840 <m2m_strlen+0x12>

00402848 <isr>:
  402848:	4a02      	ldr	r2, [pc, #8]	; (402854 <isr+0xc>)
  40284a:	7813      	ldrb	r3, [r2, #0]
  40284c:	3301      	adds	r3, #1
  40284e:	b2db      	uxtb	r3, r3
  402850:	7013      	strb	r3, [r2, #0]
  402852:	4770      	bx	lr
  402854:	2040c343 	.word	0x2040c343

00402858 <m2m_hif_cb>:
  402858:	4770      	bx	lr
	...

0040285c <hif_set_rx_done>:
  40285c:	b500      	push	{lr}
  40285e:	b083      	sub	sp, #12
  402860:	2001      	movs	r0, #1
  402862:	4b0b      	ldr	r3, [pc, #44]	; (402890 <hif_set_rx_done+0x34>)
  402864:	4798      	blx	r3
  402866:	a901      	add	r1, sp, #4
  402868:	f241 0070 	movw	r0, #4208	; 0x1070
  40286c:	4b09      	ldr	r3, [pc, #36]	; (402894 <hif_set_rx_done+0x38>)
  40286e:	4798      	blx	r3
  402870:	4603      	mov	r3, r0
  402872:	b118      	cbz	r0, 40287c <hif_set_rx_done+0x20>
  402874:	4618      	mov	r0, r3
  402876:	b003      	add	sp, #12
  402878:	f85d fb04 	ldr.w	pc, [sp], #4
  40287c:	9901      	ldr	r1, [sp, #4]
  40287e:	f041 0102 	orr.w	r1, r1, #2
  402882:	9101      	str	r1, [sp, #4]
  402884:	f241 0070 	movw	r0, #4208	; 0x1070
  402888:	4b03      	ldr	r3, [pc, #12]	; (402898 <hif_set_rx_done+0x3c>)
  40288a:	4798      	blx	r3
  40288c:	4603      	mov	r3, r0
  40288e:	e7f1      	b.n	402874 <hif_set_rx_done+0x18>
  402890:	004025b5 	.word	0x004025b5
  402894:	00403b49 	.word	0x00403b49
  402898:	00403b55 	.word	0x00403b55

0040289c <hif_chip_wake>:
  40289c:	b508      	push	{r3, lr}
  40289e:	4b12      	ldr	r3, [pc, #72]	; (4028e8 <hif_chip_wake+0x4c>)
  4028a0:	781b      	ldrb	r3, [r3, #0]
  4028a2:	b94b      	cbnz	r3, 4028b8 <hif_chip_wake+0x1c>
  4028a4:	4b11      	ldr	r3, [pc, #68]	; (4028ec <hif_chip_wake+0x50>)
  4028a6:	781b      	ldrb	r3, [r3, #0]
  4028a8:	b2db      	uxtb	r3, r3
  4028aa:	2b03      	cmp	r3, #3
  4028ac:	d00c      	beq.n	4028c8 <hif_chip_wake+0x2c>
  4028ae:	4b0f      	ldr	r3, [pc, #60]	; (4028ec <hif_chip_wake+0x50>)
  4028b0:	781b      	ldrb	r3, [r3, #0]
  4028b2:	b2db      	uxtb	r3, r3
  4028b4:	2b04      	cmp	r3, #4
  4028b6:	d007      	beq.n	4028c8 <hif_chip_wake+0x2c>
  4028b8:	4a0b      	ldr	r2, [pc, #44]	; (4028e8 <hif_chip_wake+0x4c>)
  4028ba:	7813      	ldrb	r3, [r2, #0]
  4028bc:	3301      	adds	r3, #1
  4028be:	b2db      	uxtb	r3, r3
  4028c0:	7013      	strb	r3, [r2, #0]
  4028c2:	2300      	movs	r3, #0
  4028c4:	4618      	mov	r0, r3
  4028c6:	bd08      	pop	{r3, pc}
  4028c8:	4b09      	ldr	r3, [pc, #36]	; (4028f0 <hif_chip_wake+0x54>)
  4028ca:	4798      	blx	r3
  4028cc:	4603      	mov	r3, r0
  4028ce:	2800      	cmp	r0, #0
  4028d0:	d1f8      	bne.n	4028c4 <hif_chip_wake+0x28>
  4028d2:	f245 6178 	movw	r1, #22136	; 0x5678
  4028d6:	f241 0074 	movw	r0, #4212	; 0x1074
  4028da:	4b06      	ldr	r3, [pc, #24]	; (4028f4 <hif_chip_wake+0x58>)
  4028dc:	4798      	blx	r3
  4028de:	4603      	mov	r3, r0
  4028e0:	2800      	cmp	r0, #0
  4028e2:	d0e9      	beq.n	4028b8 <hif_chip_wake+0x1c>
  4028e4:	e7ee      	b.n	4028c4 <hif_chip_wake+0x28>
  4028e6:	bf00      	nop
  4028e8:	2040c341 	.word	0x2040c341
  4028ec:	2040c340 	.word	0x2040c340
  4028f0:	004036b9 	.word	0x004036b9
  4028f4:	00403b55 	.word	0x00403b55

004028f8 <hif_chip_sleep>:
  4028f8:	4b1e      	ldr	r3, [pc, #120]	; (402974 <hif_chip_sleep+0x7c>)
  4028fa:	781b      	ldrb	r3, [r3, #0]
  4028fc:	b123      	cbz	r3, 402908 <hif_chip_sleep+0x10>
  4028fe:	4a1d      	ldr	r2, [pc, #116]	; (402974 <hif_chip_sleep+0x7c>)
  402900:	7813      	ldrb	r3, [r2, #0]
  402902:	3b01      	subs	r3, #1
  402904:	b2db      	uxtb	r3, r3
  402906:	7013      	strb	r3, [r2, #0]
  402908:	4b1a      	ldr	r3, [pc, #104]	; (402974 <hif_chip_sleep+0x7c>)
  40290a:	781b      	ldrb	r3, [r3, #0]
  40290c:	2b00      	cmp	r3, #0
  40290e:	d12e      	bne.n	40296e <hif_chip_sleep+0x76>
  402910:	4b19      	ldr	r3, [pc, #100]	; (402978 <hif_chip_sleep+0x80>)
  402912:	781b      	ldrb	r3, [r3, #0]
  402914:	b2db      	uxtb	r3, r3
  402916:	2b03      	cmp	r3, #3
  402918:	d006      	beq.n	402928 <hif_chip_sleep+0x30>
  40291a:	4b17      	ldr	r3, [pc, #92]	; (402978 <hif_chip_sleep+0x80>)
  40291c:	781b      	ldrb	r3, [r3, #0]
  40291e:	b2db      	uxtb	r3, r3
  402920:	2b04      	cmp	r3, #4
  402922:	d001      	beq.n	402928 <hif_chip_sleep+0x30>
  402924:	2300      	movs	r3, #0
  402926:	e023      	b.n	402970 <hif_chip_sleep+0x78>
  402928:	b500      	push	{lr}
  40292a:	b083      	sub	sp, #12
  40292c:	2300      	movs	r3, #0
  40292e:	9301      	str	r3, [sp, #4]
  402930:	f244 3121 	movw	r1, #17185	; 0x4321
  402934:	f241 0074 	movw	r0, #4212	; 0x1074
  402938:	4b10      	ldr	r3, [pc, #64]	; (40297c <hif_chip_sleep+0x84>)
  40293a:	4798      	blx	r3
  40293c:	4603      	mov	r3, r0
  40293e:	b118      	cbz	r0, 402948 <hif_chip_sleep+0x50>
  402940:	4618      	mov	r0, r3
  402942:	b003      	add	sp, #12
  402944:	f85d fb04 	ldr.w	pc, [sp], #4
  402948:	a901      	add	r1, sp, #4
  40294a:	2001      	movs	r0, #1
  40294c:	4b0c      	ldr	r3, [pc, #48]	; (402980 <hif_chip_sleep+0x88>)
  40294e:	4798      	blx	r3
  402950:	4603      	mov	r3, r0
  402952:	2800      	cmp	r0, #0
  402954:	d1f4      	bne.n	402940 <hif_chip_sleep+0x48>
  402956:	9901      	ldr	r1, [sp, #4]
  402958:	f011 0f02 	tst.w	r1, #2
  40295c:	d0f0      	beq.n	402940 <hif_chip_sleep+0x48>
  40295e:	f021 0102 	bic.w	r1, r1, #2
  402962:	9101      	str	r1, [sp, #4]
  402964:	2001      	movs	r0, #1
  402966:	4b05      	ldr	r3, [pc, #20]	; (40297c <hif_chip_sleep+0x84>)
  402968:	4798      	blx	r3
  40296a:	4603      	mov	r3, r0
  40296c:	e7e8      	b.n	402940 <hif_chip_sleep+0x48>
  40296e:	2300      	movs	r3, #0
  402970:	4618      	mov	r0, r3
  402972:	4770      	bx	lr
  402974:	2040c341 	.word	0x2040c341
  402978:	2040c340 	.word	0x2040c340
  40297c:	00403b55 	.word	0x00403b55
  402980:	00403b49 	.word	0x00403b49

00402984 <hif_send>:
  402984:	e92d 4ff0 	stmdb	sp!, {r4, r5, r6, r7, r8, r9, sl, fp, lr}
  402988:	b087      	sub	sp, #28
  40298a:	4607      	mov	r7, r0
  40298c:	4688      	mov	r8, r1
  40298e:	4692      	mov	sl, r2
  402990:	4699      	mov	r9, r3
  402992:	9c10      	ldr	r4, [sp, #64]	; 0x40
  402994:	f8bd 6044 	ldrh.w	r6, [sp, #68]	; 0x44
  402998:	f8bd 5048 	ldrh.w	r5, [sp, #72]	; 0x48
  40299c:	f001 037f 	and.w	r3, r1, #127	; 0x7f
  4029a0:	f88d 3015 	strb.w	r3, [sp, #21]
  4029a4:	f88d 0014 	strb.w	r0, [sp, #20]
  4029a8:	2308      	movs	r3, #8
  4029aa:	f8ad 3016 	strh.w	r3, [sp, #22]
  4029ae:	2c00      	cmp	r4, #0
  4029b0:	f000 809f 	beq.w	402af2 <hif_send+0x16e>
  4029b4:	f8bd 3016 	ldrh.w	r3, [sp, #22]
  4029b8:	fa16 f383 	uxtah	r3, r6, r3
  4029bc:	442b      	add	r3, r5
  4029be:	b29b      	uxth	r3, r3
  4029c0:	f8ad 3016 	strh.w	r3, [sp, #22]
  4029c4:	4b5c      	ldr	r3, [pc, #368]	; (402b38 <hif_send+0x1b4>)
  4029c6:	4798      	blx	r3
  4029c8:	4683      	mov	fp, r0
  4029ca:	2800      	cmp	r0, #0
  4029cc:	f040 80a2 	bne.w	402b14 <hif_send+0x190>
  4029d0:	2300      	movs	r3, #0
  4029d2:	9303      	str	r3, [sp, #12]
  4029d4:	f8ad 3006 	strh.w	r3, [sp, #6]
  4029d8:	9302      	str	r3, [sp, #8]
  4029da:	9b02      	ldr	r3, [sp, #8]
  4029dc:	431f      	orrs	r7, r3
  4029de:	9702      	str	r7, [sp, #8]
  4029e0:	9b02      	ldr	r3, [sp, #8]
  4029e2:	ea43 2308 	orr.w	r3, r3, r8, lsl #8
  4029e6:	9302      	str	r3, [sp, #8]
  4029e8:	f8bd 2016 	ldrh.w	r2, [sp, #22]
  4029ec:	9b02      	ldr	r3, [sp, #8]
  4029ee:	ea43 4302 	orr.w	r3, r3, r2, lsl #16
  4029f2:	9302      	str	r3, [sp, #8]
  4029f4:	9902      	ldr	r1, [sp, #8]
  4029f6:	f241 008c 	movw	r0, #4236	; 0x108c
  4029fa:	4b50      	ldr	r3, [pc, #320]	; (402b3c <hif_send+0x1b8>)
  4029fc:	4798      	blx	r3
  4029fe:	4683      	mov	fp, r0
  402a00:	2800      	cmp	r0, #0
  402a02:	f040 8091 	bne.w	402b28 <hif_send+0x1a4>
  402a06:	2300      	movs	r3, #0
  402a08:	9302      	str	r3, [sp, #8]
  402a0a:	9b02      	ldr	r3, [sp, #8]
  402a0c:	f043 0302 	orr.w	r3, r3, #2
  402a10:	9302      	str	r3, [sp, #8]
  402a12:	9902      	ldr	r1, [sp, #8]
  402a14:	f241 0078 	movw	r0, #4216	; 0x1078
  402a18:	4b48      	ldr	r3, [pc, #288]	; (402b3c <hif_send+0x1b8>)
  402a1a:	4798      	blx	r3
  402a1c:	4683      	mov	fp, r0
  402a1e:	2800      	cmp	r0, #0
  402a20:	f040 8082 	bne.w	402b28 <hif_send+0x1a4>
  402a24:	2300      	movs	r3, #0
  402a26:	9303      	str	r3, [sp, #12]
  402a28:	f8ad 3006 	strh.w	r3, [sp, #6]
  402a2c:	f8bd 3006 	ldrh.w	r3, [sp, #6]
  402a30:	b29b      	uxth	r3, r3
  402a32:	f5b3 7f7a 	cmp.w	r3, #1000	; 0x3e8
  402a36:	d216      	bcs.n	402a66 <hif_send+0xe2>
  402a38:	f241 0878 	movw	r8, #4216	; 0x1078
  402a3c:	4f40      	ldr	r7, [pc, #256]	; (402b40 <hif_send+0x1bc>)
  402a3e:	a902      	add	r1, sp, #8
  402a40:	4640      	mov	r0, r8
  402a42:	47b8      	blx	r7
  402a44:	b978      	cbnz	r0, 402a66 <hif_send+0xe2>
  402a46:	9b02      	ldr	r3, [sp, #8]
  402a48:	f013 0f02 	tst.w	r3, #2
  402a4c:	d059      	beq.n	402b02 <hif_send+0x17e>
  402a4e:	f8bd 3006 	ldrh.w	r3, [sp, #6]
  402a52:	3301      	adds	r3, #1
  402a54:	b29b      	uxth	r3, r3
  402a56:	f8ad 3006 	strh.w	r3, [sp, #6]
  402a5a:	f8bd 3006 	ldrh.w	r3, [sp, #6]
  402a5e:	b29b      	uxth	r3, r3
  402a60:	f5b3 7f7a 	cmp.w	r3, #1000	; 0x3e8
  402a64:	d3eb      	bcc.n	402a3e <hif_send+0xba>
  402a66:	9b03      	ldr	r3, [sp, #12]
  402a68:	2b00      	cmp	r3, #0
  402a6a:	d061      	beq.n	402b30 <hif_send+0x1ac>
  402a6c:	9b03      	ldr	r3, [sp, #12]
  402a6e:	9304      	str	r3, [sp, #16]
  402a70:	f8bd 3016 	ldrh.w	r3, [sp, #22]
  402a74:	b29b      	uxth	r3, r3
  402a76:	f8ad 3016 	strh.w	r3, [sp, #22]
  402a7a:	9804      	ldr	r0, [sp, #16]
  402a7c:	2208      	movs	r2, #8
  402a7e:	a905      	add	r1, sp, #20
  402a80:	4b30      	ldr	r3, [pc, #192]	; (402b44 <hif_send+0x1c0>)
  402a82:	4798      	blx	r3
  402a84:	4683      	mov	fp, r0
  402a86:	2800      	cmp	r0, #0
  402a88:	d14e      	bne.n	402b28 <hif_send+0x1a4>
  402a8a:	9b04      	ldr	r3, [sp, #16]
  402a8c:	3308      	adds	r3, #8
  402a8e:	9304      	str	r3, [sp, #16]
  402a90:	f1ba 0f00 	cmp.w	sl, #0
  402a94:	d00a      	beq.n	402aac <hif_send+0x128>
  402a96:	9804      	ldr	r0, [sp, #16]
  402a98:	464a      	mov	r2, r9
  402a9a:	4651      	mov	r1, sl
  402a9c:	4b29      	ldr	r3, [pc, #164]	; (402b44 <hif_send+0x1c0>)
  402a9e:	4798      	blx	r3
  402aa0:	4683      	mov	fp, r0
  402aa2:	2800      	cmp	r0, #0
  402aa4:	d140      	bne.n	402b28 <hif_send+0x1a4>
  402aa6:	9b04      	ldr	r3, [sp, #16]
  402aa8:	444b      	add	r3, r9
  402aaa:	9304      	str	r3, [sp, #16]
  402aac:	b17c      	cbz	r4, 402ace <hif_send+0x14a>
  402aae:	9b04      	ldr	r3, [sp, #16]
  402ab0:	eba5 0509 	sub.w	r5, r5, r9
  402ab4:	441d      	add	r5, r3
  402ab6:	9504      	str	r5, [sp, #16]
  402ab8:	9804      	ldr	r0, [sp, #16]
  402aba:	4632      	mov	r2, r6
  402abc:	4621      	mov	r1, r4
  402abe:	4b21      	ldr	r3, [pc, #132]	; (402b44 <hif_send+0x1c0>)
  402ac0:	4798      	blx	r3
  402ac2:	4683      	mov	fp, r0
  402ac4:	2800      	cmp	r0, #0
  402ac6:	d12f      	bne.n	402b28 <hif_send+0x1a4>
  402ac8:	9b04      	ldr	r3, [sp, #16]
  402aca:	441e      	add	r6, r3
  402acc:	9604      	str	r6, [sp, #16]
  402ace:	9b03      	ldr	r3, [sp, #12]
  402ad0:	009b      	lsls	r3, r3, #2
  402ad2:	9302      	str	r3, [sp, #8]
  402ad4:	9b02      	ldr	r3, [sp, #8]
  402ad6:	f043 0302 	orr.w	r3, r3, #2
  402ada:	9302      	str	r3, [sp, #8]
  402adc:	9902      	ldr	r1, [sp, #8]
  402ade:	f241 006c 	movw	r0, #4204	; 0x106c
  402ae2:	4b16      	ldr	r3, [pc, #88]	; (402b3c <hif_send+0x1b8>)
  402ae4:	4798      	blx	r3
  402ae6:	4683      	mov	fp, r0
  402ae8:	b9f0      	cbnz	r0, 402b28 <hif_send+0x1a4>
  402aea:	4b17      	ldr	r3, [pc, #92]	; (402b48 <hif_send+0x1c4>)
  402aec:	4798      	blx	r3
  402aee:	4683      	mov	fp, r0
  402af0:	e01a      	b.n	402b28 <hif_send+0x1a4>
  402af2:	f8bd 3016 	ldrh.w	r3, [sp, #22]
  402af6:	fa19 f383 	uxtah	r3, r9, r3
  402afa:	b29b      	uxth	r3, r3
  402afc:	f8ad 3016 	strh.w	r3, [sp, #22]
  402b00:	e760      	b.n	4029c4 <hif_send+0x40>
  402b02:	a903      	add	r1, sp, #12
  402b04:	4811      	ldr	r0, [pc, #68]	; (402b4c <hif_send+0x1c8>)
  402b06:	4b0e      	ldr	r3, [pc, #56]	; (402b40 <hif_send+0x1bc>)
  402b08:	4798      	blx	r3
  402b0a:	2800      	cmp	r0, #0
  402b0c:	d0ab      	beq.n	402a66 <hif_send+0xe2>
  402b0e:	2300      	movs	r3, #0
  402b10:	9303      	str	r3, [sp, #12]
  402b12:	e7a8      	b.n	402a66 <hif_send+0xe2>
  402b14:	f240 129f 	movw	r2, #415	; 0x19f
  402b18:	490d      	ldr	r1, [pc, #52]	; (402b50 <hif_send+0x1cc>)
  402b1a:	480e      	ldr	r0, [pc, #56]	; (402b54 <hif_send+0x1d0>)
  402b1c:	4c0e      	ldr	r4, [pc, #56]	; (402b58 <hif_send+0x1d4>)
  402b1e:	47a0      	blx	r4
  402b20:	480e      	ldr	r0, [pc, #56]	; (402b5c <hif_send+0x1d8>)
  402b22:	47a0      	blx	r4
  402b24:	480e      	ldr	r0, [pc, #56]	; (402b60 <hif_send+0x1dc>)
  402b26:	47a0      	blx	r4
  402b28:	4658      	mov	r0, fp
  402b2a:	b007      	add	sp, #28
  402b2c:	e8bd 8ff0 	ldmia.w	sp!, {r4, r5, r6, r7, r8, r9, sl, fp, pc}
  402b30:	f06f 0b02 	mvn.w	fp, #2
  402b34:	e7f8      	b.n	402b28 <hif_send+0x1a4>
  402b36:	bf00      	nop
  402b38:	0040289d 	.word	0x0040289d
  402b3c:	00403b55 	.word	0x00403b55
  402b40:	00403b49 	.word	0x00403b49
  402b44:	00403bbd 	.word	0x00403bbd
  402b48:	004028f9 	.word	0x004028f9
  402b4c:	00150400 	.word	0x00150400
  402b50:	0040d2e8 	.word	0x0040d2e8
  402b54:	0040d2b8 	.word	0x0040d2b8
  402b58:	004075b5 	.word	0x004075b5
  402b5c:	0040d53c 	.word	0x0040d53c
  402b60:	0040d2e4 	.word	0x0040d2e4

00402b64 <hif_handle_isr>:
  402b64:	e92d 43f0 	stmdb	sp!, {r4, r5, r6, r7, r8, r9, lr}
  402b68:	b087      	sub	sp, #28
  402b6a:	f8df 92f8 	ldr.w	r9, [pc, #760]	; 402e64 <hif_handle_isr+0x300>
  402b6e:	4fa2      	ldr	r7, [pc, #648]	; (402df8 <hif_handle_isr+0x294>)
  402b70:	4ea2      	ldr	r6, [pc, #648]	; (402dfc <hif_handle_isr+0x298>)
  402b72:	f8df 82f4 	ldr.w	r8, [pc, #756]	; 402e68 <hif_handle_isr+0x304>
  402b76:	e0d5      	b.n	402d24 <hif_handle_isr+0x1c0>
  402b78:	2204      	movs	r2, #4
  402b7a:	a904      	add	r1, sp, #16
  402b7c:	9805      	ldr	r0, [sp, #20]
  402b7e:	4ba0      	ldr	r3, [pc, #640]	; (402e00 <hif_handle_isr+0x29c>)
  402b80:	4798      	blx	r3
  402b82:	f8bd 3012 	ldrh.w	r3, [sp, #18]
  402b86:	b29b      	uxth	r3, r3
  402b88:	f8ad 3012 	strh.w	r3, [sp, #18]
  402b8c:	4604      	mov	r4, r0
  402b8e:	2800      	cmp	r0, #0
  402b90:	d130      	bne.n	402bf4 <hif_handle_isr+0x90>
  402b92:	f8bd 3012 	ldrh.w	r3, [sp, #18]
  402b96:	b29b      	uxth	r3, r3
  402b98:	429d      	cmp	r5, r3
  402b9a:	d005      	beq.n	402ba8 <hif_handle_isr+0x44>
  402b9c:	f8bd 3012 	ldrh.w	r3, [sp, #18]
  402ba0:	b29b      	uxth	r3, r3
  402ba2:	1aeb      	subs	r3, r5, r3
  402ba4:	2b04      	cmp	r3, #4
  402ba6:	dc33      	bgt.n	402c10 <hif_handle_isr+0xac>
  402ba8:	f89d 3010 	ldrb.w	r3, [sp, #16]
  402bac:	b2db      	uxtb	r3, r3
  402bae:	2b01      	cmp	r3, #1
  402bb0:	d047      	beq.n	402c42 <hif_handle_isr+0xde>
  402bb2:	f89d 3010 	ldrb.w	r3, [sp, #16]
  402bb6:	b2db      	uxtb	r3, r3
  402bb8:	2b02      	cmp	r3, #2
  402bba:	d05f      	beq.n	402c7c <hif_handle_isr+0x118>
  402bbc:	f89d 3010 	ldrb.w	r3, [sp, #16]
  402bc0:	b2db      	uxtb	r3, r3
  402bc2:	2b04      	cmp	r3, #4
  402bc4:	d068      	beq.n	402c98 <hif_handle_isr+0x134>
  402bc6:	f89d 3010 	ldrb.w	r3, [sp, #16]
  402bca:	b2db      	uxtb	r3, r3
  402bcc:	2b06      	cmp	r3, #6
  402bce:	d071      	beq.n	402cb4 <hif_handle_isr+0x150>
  402bd0:	f89d 3010 	ldrb.w	r3, [sp, #16]
  402bd4:	b2db      	uxtb	r3, r3
  402bd6:	2b07      	cmp	r3, #7
  402bd8:	d07a      	beq.n	402cd0 <hif_handle_isr+0x16c>
  402bda:	f240 2202 	movw	r2, #514	; 0x202
  402bde:	4641      	mov	r1, r8
  402be0:	4630      	mov	r0, r6
  402be2:	4c88      	ldr	r4, [pc, #544]	; (402e04 <hif_handle_isr+0x2a0>)
  402be4:	47a0      	blx	r4
  402be6:	4888      	ldr	r0, [pc, #544]	; (402e08 <hif_handle_isr+0x2a4>)
  402be8:	47a0      	blx	r4
  402bea:	4888      	ldr	r0, [pc, #544]	; (402e0c <hif_handle_isr+0x2a8>)
  402bec:	47a0      	blx	r4
  402bee:	f06f 0405 	mvn.w	r4, #5
  402bf2:	e096      	b.n	402d22 <hif_handle_isr+0x1be>
  402bf4:	f44f 72eb 	mov.w	r2, #470	; 0x1d6
  402bf8:	4641      	mov	r1, r8
  402bfa:	4630      	mov	r0, r6
  402bfc:	4d81      	ldr	r5, [pc, #516]	; (402e04 <hif_handle_isr+0x2a0>)
  402bfe:	47a8      	blx	r5
  402c00:	4883      	ldr	r0, [pc, #524]	; (402e10 <hif_handle_isr+0x2ac>)
  402c02:	47a8      	blx	r5
  402c04:	4881      	ldr	r0, [pc, #516]	; (402e0c <hif_handle_isr+0x2a8>)
  402c06:	47a8      	blx	r5
  402c08:	2001      	movs	r0, #1
  402c0a:	4b82      	ldr	r3, [pc, #520]	; (402e14 <hif_handle_isr+0x2b0>)
  402c0c:	4798      	blx	r3
  402c0e:	e088      	b.n	402d22 <hif_handle_isr+0x1be>
  402c10:	f240 12df 	movw	r2, #479	; 0x1df
  402c14:	4641      	mov	r1, r8
  402c16:	4630      	mov	r0, r6
  402c18:	4c7a      	ldr	r4, [pc, #488]	; (402e04 <hif_handle_isr+0x2a0>)
  402c1a:	47a0      	blx	r4
  402c1c:	f8bd 2012 	ldrh.w	r2, [sp, #18]
  402c20:	f89d 3010 	ldrb.w	r3, [sp, #16]
  402c24:	f89d 1011 	ldrb.w	r1, [sp, #17]
  402c28:	9100      	str	r1, [sp, #0]
  402c2a:	b292      	uxth	r2, r2
  402c2c:	4629      	mov	r1, r5
  402c2e:	487a      	ldr	r0, [pc, #488]	; (402e18 <hif_handle_isr+0x2b4>)
  402c30:	47a0      	blx	r4
  402c32:	4876      	ldr	r0, [pc, #472]	; (402e0c <hif_handle_isr+0x2a8>)
  402c34:	47a0      	blx	r4
  402c36:	2001      	movs	r0, #1
  402c38:	4b76      	ldr	r3, [pc, #472]	; (402e14 <hif_handle_isr+0x2b0>)
  402c3a:	4798      	blx	r3
  402c3c:	f06f 0405 	mvn.w	r4, #5
  402c40:	e06f      	b.n	402d22 <hif_handle_isr+0x1be>
  402c42:	4b76      	ldr	r3, [pc, #472]	; (402e1c <hif_handle_isr+0x2b8>)
  402c44:	681b      	ldr	r3, [r3, #0]
  402c46:	b143      	cbz	r3, 402c5a <hif_handle_isr+0xf6>
  402c48:	f89d 0011 	ldrb.w	r0, [sp, #17]
  402c4c:	f8bd 1012 	ldrh.w	r1, [sp, #18]
  402c50:	3908      	subs	r1, #8
  402c52:	9a05      	ldr	r2, [sp, #20]
  402c54:	3208      	adds	r2, #8
  402c56:	b289      	uxth	r1, r1
  402c58:	4798      	blx	r3
  402c5a:	4b71      	ldr	r3, [pc, #452]	; (402e20 <hif_handle_isr+0x2bc>)
  402c5c:	781b      	ldrb	r3, [r3, #0]
  402c5e:	2b00      	cmp	r3, #0
  402c60:	d15c      	bne.n	402d1c <hif_handle_isr+0x1b8>
  402c62:	f240 2209 	movw	r2, #521	; 0x209
  402c66:	4641      	mov	r1, r8
  402c68:	4630      	mov	r0, r6
  402c6a:	4c66      	ldr	r4, [pc, #408]	; (402e04 <hif_handle_isr+0x2a0>)
  402c6c:	47a0      	blx	r4
  402c6e:	486d      	ldr	r0, [pc, #436]	; (402e24 <hif_handle_isr+0x2c0>)
  402c70:	47a0      	blx	r4
  402c72:	4866      	ldr	r0, [pc, #408]	; (402e0c <hif_handle_isr+0x2a8>)
  402c74:	47a0      	blx	r4
  402c76:	4b6c      	ldr	r3, [pc, #432]	; (402e28 <hif_handle_isr+0x2c4>)
  402c78:	4798      	blx	r3
  402c7a:	e04f      	b.n	402d1c <hif_handle_isr+0x1b8>
  402c7c:	4b6b      	ldr	r3, [pc, #428]	; (402e2c <hif_handle_isr+0x2c8>)
  402c7e:	681b      	ldr	r3, [r3, #0]
  402c80:	2b00      	cmp	r3, #0
  402c82:	d0ea      	beq.n	402c5a <hif_handle_isr+0xf6>
  402c84:	f89d 0011 	ldrb.w	r0, [sp, #17]
  402c88:	f8bd 1012 	ldrh.w	r1, [sp, #18]
  402c8c:	3908      	subs	r1, #8
  402c8e:	9a05      	ldr	r2, [sp, #20]
  402c90:	3208      	adds	r2, #8
  402c92:	b289      	uxth	r1, r1
  402c94:	4798      	blx	r3
  402c96:	e7e0      	b.n	402c5a <hif_handle_isr+0xf6>
  402c98:	4b65      	ldr	r3, [pc, #404]	; (402e30 <hif_handle_isr+0x2cc>)
  402c9a:	681b      	ldr	r3, [r3, #0]
  402c9c:	2b00      	cmp	r3, #0
  402c9e:	d0dc      	beq.n	402c5a <hif_handle_isr+0xf6>
  402ca0:	f89d 0011 	ldrb.w	r0, [sp, #17]
  402ca4:	f8bd 1012 	ldrh.w	r1, [sp, #18]
  402ca8:	3908      	subs	r1, #8
  402caa:	9a05      	ldr	r2, [sp, #20]
  402cac:	3208      	adds	r2, #8
  402cae:	b289      	uxth	r1, r1
  402cb0:	4798      	blx	r3
  402cb2:	e7d2      	b.n	402c5a <hif_handle_isr+0xf6>
  402cb4:	4b5f      	ldr	r3, [pc, #380]	; (402e34 <hif_handle_isr+0x2d0>)
  402cb6:	681b      	ldr	r3, [r3, #0]
  402cb8:	2b00      	cmp	r3, #0
  402cba:	d0ce      	beq.n	402c5a <hif_handle_isr+0xf6>
  402cbc:	f89d 0011 	ldrb.w	r0, [sp, #17]
  402cc0:	f8bd 1012 	ldrh.w	r1, [sp, #18]
  402cc4:	3908      	subs	r1, #8
  402cc6:	9a05      	ldr	r2, [sp, #20]
  402cc8:	3208      	adds	r2, #8
  402cca:	b289      	uxth	r1, r1
  402ccc:	4798      	blx	r3
  402cce:	e7c4      	b.n	402c5a <hif_handle_isr+0xf6>
  402cd0:	4b59      	ldr	r3, [pc, #356]	; (402e38 <hif_handle_isr+0x2d4>)
  402cd2:	681b      	ldr	r3, [r3, #0]
  402cd4:	2b00      	cmp	r3, #0
  402cd6:	d0c0      	beq.n	402c5a <hif_handle_isr+0xf6>
  402cd8:	f89d 0011 	ldrb.w	r0, [sp, #17]
  402cdc:	f8bd 1012 	ldrh.w	r1, [sp, #18]
  402ce0:	3908      	subs	r1, #8
  402ce2:	9a05      	ldr	r2, [sp, #20]
  402ce4:	3208      	adds	r2, #8
  402ce6:	b289      	uxth	r1, r1
  402ce8:	4798      	blx	r3
  402cea:	e7b6      	b.n	402c5a <hif_handle_isr+0xf6>
  402cec:	f240 2211 	movw	r2, #529	; 0x211
  402cf0:	4641      	mov	r1, r8
  402cf2:	4630      	mov	r0, r6
  402cf4:	4c43      	ldr	r4, [pc, #268]	; (402e04 <hif_handle_isr+0x2a0>)
  402cf6:	47a0      	blx	r4
  402cf8:	4850      	ldr	r0, [pc, #320]	; (402e3c <hif_handle_isr+0x2d8>)
  402cfa:	47a0      	blx	r4
  402cfc:	4843      	ldr	r0, [pc, #268]	; (402e0c <hif_handle_isr+0x2a8>)
  402cfe:	47a0      	blx	r4
  402d00:	f06f 0401 	mvn.w	r4, #1
  402d04:	e02f      	b.n	402d66 <hif_handle_isr+0x202>
  402d06:	f44f 7206 	mov.w	r2, #536	; 0x218
  402d0a:	4641      	mov	r1, r8
  402d0c:	4630      	mov	r0, r6
  402d0e:	4c3d      	ldr	r4, [pc, #244]	; (402e04 <hif_handle_isr+0x2a0>)
  402d10:	47a0      	blx	r4
  402d12:	9903      	ldr	r1, [sp, #12]
  402d14:	484a      	ldr	r0, [pc, #296]	; (402e40 <hif_handle_isr+0x2dc>)
  402d16:	47a0      	blx	r4
  402d18:	483c      	ldr	r0, [pc, #240]	; (402e0c <hif_handle_isr+0x2a8>)
  402d1a:	47a0      	blx	r4
  402d1c:	4b49      	ldr	r3, [pc, #292]	; (402e44 <hif_handle_isr+0x2e0>)
  402d1e:	4798      	blx	r3
  402d20:	4604      	mov	r4, r0
  402d22:	bb04      	cbnz	r4, 402d66 <hif_handle_isr+0x202>
  402d24:	f899 3000 	ldrb.w	r3, [r9]
  402d28:	2b00      	cmp	r3, #0
  402d2a:	f000 809f 	beq.w	402e6c <hif_handle_isr+0x308>
  402d2e:	f899 3000 	ldrb.w	r3, [r9]
  402d32:	3b01      	subs	r3, #1
  402d34:	b2db      	uxtb	r3, r3
  402d36:	f889 3000 	strb.w	r3, [r9]
  402d3a:	e01f      	b.n	402d7c <hif_handle_isr+0x218>
  402d3c:	f240 221e 	movw	r2, #542	; 0x21e
  402d40:	4641      	mov	r1, r8
  402d42:	4630      	mov	r0, r6
  402d44:	4d2f      	ldr	r5, [pc, #188]	; (402e04 <hif_handle_isr+0x2a0>)
  402d46:	47a8      	blx	r5
  402d48:	483f      	ldr	r0, [pc, #252]	; (402e48 <hif_handle_isr+0x2e4>)
  402d4a:	47a8      	blx	r5
  402d4c:	482f      	ldr	r0, [pc, #188]	; (402e0c <hif_handle_isr+0x2a8>)
  402d4e:	47a8      	blx	r5
  402d50:	e009      	b.n	402d66 <hif_handle_isr+0x202>
  402d52:	f44f 7209 	mov.w	r2, #548	; 0x224
  402d56:	4641      	mov	r1, r8
  402d58:	4630      	mov	r0, r6
  402d5a:	4d2a      	ldr	r5, [pc, #168]	; (402e04 <hif_handle_isr+0x2a0>)
  402d5c:	47a8      	blx	r5
  402d5e:	483b      	ldr	r0, [pc, #236]	; (402e4c <hif_handle_isr+0x2e8>)
  402d60:	47a8      	blx	r5
  402d62:	482a      	ldr	r0, [pc, #168]	; (402e0c <hif_handle_isr+0x2a8>)
  402d64:	47a8      	blx	r5
  402d66:	f240 2243 	movw	r2, #579	; 0x243
  402d6a:	4939      	ldr	r1, [pc, #228]	; (402e50 <hif_handle_isr+0x2ec>)
  402d6c:	4630      	mov	r0, r6
  402d6e:	4d25      	ldr	r5, [pc, #148]	; (402e04 <hif_handle_isr+0x2a0>)
  402d70:	47a8      	blx	r5
  402d72:	4621      	mov	r1, r4
  402d74:	4837      	ldr	r0, [pc, #220]	; (402e54 <hif_handle_isr+0x2f0>)
  402d76:	47a8      	blx	r5
  402d78:	4824      	ldr	r0, [pc, #144]	; (402e0c <hif_handle_isr+0x2a8>)
  402d7a:	47a8      	blx	r5
  402d7c:	47b8      	blx	r7
  402d7e:	4604      	mov	r4, r0
  402d80:	2800      	cmp	r0, #0
  402d82:	d1e6      	bne.n	402d52 <hif_handle_isr+0x1ee>
  402d84:	a903      	add	r1, sp, #12
  402d86:	f241 0070 	movw	r0, #4208	; 0x1070
  402d8a:	4b33      	ldr	r3, [pc, #204]	; (402e58 <hif_handle_isr+0x2f4>)
  402d8c:	4798      	blx	r3
  402d8e:	4604      	mov	r4, r0
  402d90:	2800      	cmp	r0, #0
  402d92:	d1d3      	bne.n	402d3c <hif_handle_isr+0x1d8>
  402d94:	9b03      	ldr	r3, [sp, #12]
  402d96:	f013 0f01 	tst.w	r3, #1
  402d9a:	d0b4      	beq.n	402d06 <hif_handle_isr+0x1a2>
  402d9c:	4b1d      	ldr	r3, [pc, #116]	; (402e14 <hif_handle_isr+0x2b0>)
  402d9e:	4798      	blx	r3
  402da0:	9903      	ldr	r1, [sp, #12]
  402da2:	f021 0101 	bic.w	r1, r1, #1
  402da6:	9103      	str	r1, [sp, #12]
  402da8:	f241 0070 	movw	r0, #4208	; 0x1070
  402dac:	4b2b      	ldr	r3, [pc, #172]	; (402e5c <hif_handle_isr+0x2f8>)
  402dae:	4798      	blx	r3
  402db0:	4604      	mov	r4, r0
  402db2:	2800      	cmp	r0, #0
  402db4:	d1d7      	bne.n	402d66 <hif_handle_isr+0x202>
  402db6:	2200      	movs	r2, #0
  402db8:	4b19      	ldr	r3, [pc, #100]	; (402e20 <hif_handle_isr+0x2bc>)
  402dba:	701a      	strb	r2, [r3, #0]
  402dbc:	9d03      	ldr	r5, [sp, #12]
  402dbe:	f3c5 058b 	ubfx	r5, r5, #2, #12
  402dc2:	2d00      	cmp	r5, #0
  402dc4:	d092      	beq.n	402cec <hif_handle_isr+0x188>
  402dc6:	a906      	add	r1, sp, #24
  402dc8:	f841 2d04 	str.w	r2, [r1, #-4]!
  402dcc:	f241 0084 	movw	r0, #4228	; 0x1084
  402dd0:	4b21      	ldr	r3, [pc, #132]	; (402e58 <hif_handle_isr+0x2f4>)
  402dd2:	4798      	blx	r3
  402dd4:	4604      	mov	r4, r0
  402dd6:	2800      	cmp	r0, #0
  402dd8:	f43f aece 	beq.w	402b78 <hif_handle_isr+0x14>
  402ddc:	f44f 72e7 	mov.w	r2, #462	; 0x1ce
  402de0:	4641      	mov	r1, r8
  402de2:	4630      	mov	r0, r6
  402de4:	4d07      	ldr	r5, [pc, #28]	; (402e04 <hif_handle_isr+0x2a0>)
  402de6:	47a8      	blx	r5
  402de8:	481d      	ldr	r0, [pc, #116]	; (402e60 <hif_handle_isr+0x2fc>)
  402dea:	47a8      	blx	r5
  402dec:	4807      	ldr	r0, [pc, #28]	; (402e0c <hif_handle_isr+0x2a8>)
  402dee:	47a8      	blx	r5
  402df0:	2001      	movs	r0, #1
  402df2:	4b08      	ldr	r3, [pc, #32]	; (402e14 <hif_handle_isr+0x2b0>)
  402df4:	4798      	blx	r3
  402df6:	e794      	b.n	402d22 <hif_handle_isr+0x1be>
  402df8:	0040289d 	.word	0x0040289d
  402dfc:	0040d2b8 	.word	0x0040d2b8
  402e00:	00403b61 	.word	0x00403b61
  402e04:	004075b5 	.word	0x004075b5
  402e08:	0040d3a8 	.word	0x0040d3a8
  402e0c:	0040d2e4 	.word	0x0040d2e4
  402e10:	0040d350 	.word	0x0040d350
  402e14:	004025b5 	.word	0x004025b5
  402e18:	0040d368 	.word	0x0040d368
  402e1c:	2040c358 	.word	0x2040c358
  402e20:	2040c342 	.word	0x2040c342
  402e24:	0040d3c0 	.word	0x0040d3c0
  402e28:	0040285d 	.word	0x0040285d
  402e2c:	2040c34c 	.word	0x2040c34c
  402e30:	2040c350 	.word	0x2040c350
  402e34:	2040c344 	.word	0x2040c344
  402e38:	2040c354 	.word	0x2040c354
  402e3c:	0040d3e4 	.word	0x0040d3e4
  402e40:	0040d3f8 	.word	0x0040d3f8
  402e44:	004028f9 	.word	0x004028f9
  402e48:	0040d414 	.word	0x0040d414
  402e4c:	0040d438 	.word	0x0040d438
  402e50:	0040d2fc 	.word	0x0040d2fc
  402e54:	0040d458 	.word	0x0040d458
  402e58:	00403b49 	.word	0x00403b49
  402e5c:	00403b55 	.word	0x00403b55
  402e60:	0040d328 	.word	0x0040d328
  402e64:	2040c343 	.word	0x2040c343
  402e68:	0040d2f4 	.word	0x0040d2f4
  402e6c:	2000      	movs	r0, #0
  402e6e:	b007      	add	sp, #28
  402e70:	e8bd 83f0 	ldmia.w	sp!, {r4, r5, r6, r7, r8, r9, pc}

00402e74 <hif_receive>:
  402e74:	e92d 43f0 	stmdb	sp!, {r4, r5, r6, r7, r8, r9, lr}
  402e78:	b083      	sub	sp, #12
  402e7a:	461c      	mov	r4, r3
  402e7c:	2a00      	cmp	r2, #0
  402e7e:	bf18      	it	ne
  402e80:	2900      	cmpne	r1, #0
  402e82:	d003      	beq.n	402e8c <hif_receive+0x18>
  402e84:	4605      	mov	r5, r0
  402e86:	460f      	mov	r7, r1
  402e88:	4616      	mov	r6, r2
  402e8a:	b9b8      	cbnz	r0, 402ebc <hif_receive+0x48>
  402e8c:	b14c      	cbz	r4, 402ea2 <hif_receive+0x2e>
  402e8e:	2201      	movs	r2, #1
  402e90:	4b32      	ldr	r3, [pc, #200]	; (402f5c <hif_receive+0xe8>)
  402e92:	701a      	strb	r2, [r3, #0]
  402e94:	4b32      	ldr	r3, [pc, #200]	; (402f60 <hif_receive+0xec>)
  402e96:	4798      	blx	r3
  402e98:	4603      	mov	r3, r0
  402e9a:	4618      	mov	r0, r3
  402e9c:	b003      	add	sp, #12
  402e9e:	e8bd 83f0 	ldmia.w	sp!, {r4, r5, r6, r7, r8, r9, pc}
  402ea2:	f240 2269 	movw	r2, #617	; 0x269
  402ea6:	492f      	ldr	r1, [pc, #188]	; (402f64 <hif_receive+0xf0>)
  402ea8:	482f      	ldr	r0, [pc, #188]	; (402f68 <hif_receive+0xf4>)
  402eaa:	4c30      	ldr	r4, [pc, #192]	; (402f6c <hif_receive+0xf8>)
  402eac:	47a0      	blx	r4
  402eae:	4830      	ldr	r0, [pc, #192]	; (402f70 <hif_receive+0xfc>)
  402eb0:	47a0      	blx	r4
  402eb2:	4830      	ldr	r0, [pc, #192]	; (402f74 <hif_receive+0x100>)
  402eb4:	47a0      	blx	r4
  402eb6:	f06f 030b 	mvn.w	r3, #11
  402eba:	e7ee      	b.n	402e9a <hif_receive+0x26>
  402ebc:	4669      	mov	r1, sp
  402ebe:	f241 0070 	movw	r0, #4208	; 0x1070
  402ec2:	4b2d      	ldr	r3, [pc, #180]	; (402f78 <hif_receive+0x104>)
  402ec4:	4798      	blx	r3
  402ec6:	4603      	mov	r3, r0
  402ec8:	2800      	cmp	r0, #0
  402eca:	d1e6      	bne.n	402e9a <hif_receive+0x26>
  402ecc:	f8dd 8000 	ldr.w	r8, [sp]
  402ed0:	a901      	add	r1, sp, #4
  402ed2:	f241 0084 	movw	r0, #4228	; 0x1084
  402ed6:	4b28      	ldr	r3, [pc, #160]	; (402f78 <hif_receive+0x104>)
  402ed8:	4798      	blx	r3
  402eda:	4603      	mov	r3, r0
  402edc:	2800      	cmp	r0, #0
  402ede:	d1dc      	bne.n	402e9a <hif_receive+0x26>
  402ee0:	f3c8 088b 	ubfx	r8, r8, #2, #12
  402ee4:	4546      	cmp	r6, r8
  402ee6:	d81c      	bhi.n	402f22 <hif_receive+0xae>
  402ee8:	9b01      	ldr	r3, [sp, #4]
  402eea:	429d      	cmp	r5, r3
  402eec:	d328      	bcc.n	402f40 <hif_receive+0xcc>
  402eee:	eb05 0906 	add.w	r9, r5, r6
  402ef2:	4443      	add	r3, r8
  402ef4:	4599      	cmp	r9, r3
  402ef6:	d823      	bhi.n	402f40 <hif_receive+0xcc>
  402ef8:	4632      	mov	r2, r6
  402efa:	4639      	mov	r1, r7
  402efc:	4628      	mov	r0, r5
  402efe:	4b1f      	ldr	r3, [pc, #124]	; (402f7c <hif_receive+0x108>)
  402f00:	4798      	blx	r3
  402f02:	4603      	mov	r3, r0
  402f04:	2800      	cmp	r0, #0
  402f06:	d1c8      	bne.n	402e9a <hif_receive+0x26>
  402f08:	9a01      	ldr	r2, [sp, #4]
  402f0a:	4490      	add	r8, r2
  402f0c:	45c8      	cmp	r8, r9
  402f0e:	d001      	beq.n	402f14 <hif_receive+0xa0>
  402f10:	2c00      	cmp	r4, #0
  402f12:	d0c2      	beq.n	402e9a <hif_receive+0x26>
  402f14:	2201      	movs	r2, #1
  402f16:	4b11      	ldr	r3, [pc, #68]	; (402f5c <hif_receive+0xe8>)
  402f18:	701a      	strb	r2, [r3, #0]
  402f1a:	4b11      	ldr	r3, [pc, #68]	; (402f60 <hif_receive+0xec>)
  402f1c:	4798      	blx	r3
  402f1e:	4603      	mov	r3, r0
  402f20:	e7bb      	b.n	402e9a <hif_receive+0x26>
  402f22:	f240 227a 	movw	r2, #634	; 0x27a
  402f26:	490f      	ldr	r1, [pc, #60]	; (402f64 <hif_receive+0xf0>)
  402f28:	480f      	ldr	r0, [pc, #60]	; (402f68 <hif_receive+0xf4>)
  402f2a:	4c10      	ldr	r4, [pc, #64]	; (402f6c <hif_receive+0xf8>)
  402f2c:	47a0      	blx	r4
  402f2e:	4642      	mov	r2, r8
  402f30:	4631      	mov	r1, r6
  402f32:	4813      	ldr	r0, [pc, #76]	; (402f80 <hif_receive+0x10c>)
  402f34:	47a0      	blx	r4
  402f36:	480f      	ldr	r0, [pc, #60]	; (402f74 <hif_receive+0x100>)
  402f38:	47a0      	blx	r4
  402f3a:	f06f 030b 	mvn.w	r3, #11
  402f3e:	e7ac      	b.n	402e9a <hif_receive+0x26>
  402f40:	f44f 7220 	mov.w	r2, #640	; 0x280
  402f44:	4907      	ldr	r1, [pc, #28]	; (402f64 <hif_receive+0xf0>)
  402f46:	4808      	ldr	r0, [pc, #32]	; (402f68 <hif_receive+0xf4>)
  402f48:	4c08      	ldr	r4, [pc, #32]	; (402f6c <hif_receive+0xf8>)
  402f4a:	47a0      	blx	r4
  402f4c:	480d      	ldr	r0, [pc, #52]	; (402f84 <hif_receive+0x110>)
  402f4e:	47a0      	blx	r4
  402f50:	4808      	ldr	r0, [pc, #32]	; (402f74 <hif_receive+0x100>)
  402f52:	47a0      	blx	r4
  402f54:	f06f 030b 	mvn.w	r3, #11
  402f58:	e79f      	b.n	402e9a <hif_receive+0x26>
  402f5a:	bf00      	nop
  402f5c:	2040c342 	.word	0x2040c342
  402f60:	0040285d 	.word	0x0040285d
  402f64:	0040d30c 	.word	0x0040d30c
  402f68:	0040d2b8 	.word	0x0040d2b8
  402f6c:	004075b5 	.word	0x004075b5
  402f70:	0040d488 	.word	0x0040d488
  402f74:	0040d2e4 	.word	0x0040d2e4
  402f78:	00403b49 	.word	0x00403b49
  402f7c:	00403b61 	.word	0x00403b61
  402f80:	0040d4a8 	.word	0x0040d4a8
  402f84:	0040d4ec 	.word	0x0040d4ec

00402f88 <hif_register_cb>:
  402f88:	b538      	push	{r3, r4, r5, lr}
  402f8a:	1e43      	subs	r3, r0, #1
  402f8c:	2b06      	cmp	r3, #6
  402f8e:	d81d      	bhi.n	402fcc <hif_register_cb+0x44>
  402f90:	e8df f003 	tbb	[pc, r3]
  402f94:	0c100408 	.word	0x0c100408
  402f98:	141c      	.short	0x141c
  402f9a:	18          	.byte	0x18
  402f9b:	00          	.byte	0x00
  402f9c:	4b13      	ldr	r3, [pc, #76]	; (402fec <hif_register_cb+0x64>)
  402f9e:	6019      	str	r1, [r3, #0]
  402fa0:	2000      	movs	r0, #0
  402fa2:	bd38      	pop	{r3, r4, r5, pc}
  402fa4:	4b12      	ldr	r3, [pc, #72]	; (402ff0 <hif_register_cb+0x68>)
  402fa6:	6019      	str	r1, [r3, #0]
  402fa8:	2000      	movs	r0, #0
  402faa:	bd38      	pop	{r3, r4, r5, pc}
  402fac:	4b11      	ldr	r3, [pc, #68]	; (402ff4 <hif_register_cb+0x6c>)
  402fae:	6019      	str	r1, [r3, #0]
  402fb0:	2000      	movs	r0, #0
  402fb2:	bd38      	pop	{r3, r4, r5, pc}
  402fb4:	4b10      	ldr	r3, [pc, #64]	; (402ff8 <hif_register_cb+0x70>)
  402fb6:	6019      	str	r1, [r3, #0]
  402fb8:	2000      	movs	r0, #0
  402fba:	bd38      	pop	{r3, r4, r5, pc}
  402fbc:	4b0f      	ldr	r3, [pc, #60]	; (402ffc <hif_register_cb+0x74>)
  402fbe:	6019      	str	r1, [r3, #0]
  402fc0:	2000      	movs	r0, #0
  402fc2:	bd38      	pop	{r3, r4, r5, pc}
  402fc4:	4b0e      	ldr	r3, [pc, #56]	; (403000 <hif_register_cb+0x78>)
  402fc6:	6019      	str	r1, [r3, #0]
  402fc8:	2000      	movs	r0, #0
  402fca:	bd38      	pop	{r3, r4, r5, pc}
  402fcc:	4604      	mov	r4, r0
  402fce:	f240 22b9 	movw	r2, #697	; 0x2b9
  402fd2:	490c      	ldr	r1, [pc, #48]	; (403004 <hif_register_cb+0x7c>)
  402fd4:	480c      	ldr	r0, [pc, #48]	; (403008 <hif_register_cb+0x80>)
  402fd6:	4d0d      	ldr	r5, [pc, #52]	; (40300c <hif_register_cb+0x84>)
  402fd8:	47a8      	blx	r5
  402fda:	4621      	mov	r1, r4
  402fdc:	480c      	ldr	r0, [pc, #48]	; (403010 <hif_register_cb+0x88>)
  402fde:	47a8      	blx	r5
  402fe0:	480c      	ldr	r0, [pc, #48]	; (403014 <hif_register_cb+0x8c>)
  402fe2:	47a8      	blx	r5
  402fe4:	f06f 000b 	mvn.w	r0, #11
  402fe8:	bd38      	pop	{r3, r4, r5, pc}
  402fea:	bf00      	nop
  402fec:	2040c34c 	.word	0x2040c34c
  402ff0:	2040c358 	.word	0x2040c358
  402ff4:	2040c350 	.word	0x2040c350
  402ff8:	2040c348 	.word	0x2040c348
  402ffc:	2040c344 	.word	0x2040c344
  403000:	2040c354 	.word	0x2040c354
  403004:	0040d318 	.word	0x0040d318
  403008:	0040d2b8 	.word	0x0040d2b8
  40300c:	004075b5 	.word	0x004075b5
  403010:	0040d530 	.word	0x0040d530
  403014:	0040d2e4 	.word	0x0040d2e4

00403018 <hif_init>:
  403018:	b510      	push	{r4, lr}
  40301a:	2400      	movs	r4, #0
  40301c:	4b09      	ldr	r3, [pc, #36]	; (403044 <hif_init+0x2c>)
  40301e:	601c      	str	r4, [r3, #0]
  403020:	4b09      	ldr	r3, [pc, #36]	; (403048 <hif_init+0x30>)
  403022:	601c      	str	r4, [r3, #0]
  403024:	4b09      	ldr	r3, [pc, #36]	; (40304c <hif_init+0x34>)
  403026:	701c      	strb	r4, [r3, #0]
  403028:	4b09      	ldr	r3, [pc, #36]	; (403050 <hif_init+0x38>)
  40302a:	701c      	strb	r4, [r3, #0]
  40302c:	4b09      	ldr	r3, [pc, #36]	; (403054 <hif_init+0x3c>)
  40302e:	701c      	strb	r4, [r3, #0]
  403030:	4809      	ldr	r0, [pc, #36]	; (403058 <hif_init+0x40>)
  403032:	4b0a      	ldr	r3, [pc, #40]	; (40305c <hif_init+0x44>)
  403034:	4798      	blx	r3
  403036:	490a      	ldr	r1, [pc, #40]	; (403060 <hif_init+0x48>)
  403038:	2003      	movs	r0, #3
  40303a:	4b0a      	ldr	r3, [pc, #40]	; (403064 <hif_init+0x4c>)
  40303c:	4798      	blx	r3
  40303e:	4620      	mov	r0, r4
  403040:	bd10      	pop	{r4, pc}
  403042:	bf00      	nop
  403044:	2040c358 	.word	0x2040c358
  403048:	2040c34c 	.word	0x2040c34c
  40304c:	2040c341 	.word	0x2040c341
  403050:	2040c340 	.word	0x2040c340
  403054:	2040c343 	.word	0x2040c343
  403058:	00402849 	.word	0x00402849
  40305c:	00402535 	.word	0x00402535
  403060:	00402859 	.word	0x00402859
  403064:	00402f89 	.word	0x00402f89

00403068 <m2m_wifi_cb>:
  403068:	b530      	push	{r4, r5, lr}
  40306a:	b09f      	sub	sp, #124	; 0x7c
  40306c:	4615      	mov	r5, r2
  40306e:	282c      	cmp	r0, #44	; 0x2c
  403070:	d02e      	beq.n	4030d0 <m2m_wifi_cb+0x68>
  403072:	4604      	mov	r4, r0
  403074:	281b      	cmp	r0, #27
  403076:	d03b      	beq.n	4030f0 <m2m_wifi_cb+0x88>
  403078:	2806      	cmp	r0, #6
  40307a:	d049      	beq.n	403110 <m2m_wifi_cb+0xa8>
  40307c:	280e      	cmp	r0, #14
  40307e:	d025      	beq.n	4030cc <m2m_wifi_cb+0x64>
  403080:	2832      	cmp	r0, #50	; 0x32
  403082:	d055      	beq.n	403130 <m2m_wifi_cb+0xc8>
  403084:	282f      	cmp	r0, #47	; 0x2f
  403086:	d063      	beq.n	403150 <m2m_wifi_cb+0xe8>
  403088:	2834      	cmp	r0, #52	; 0x34
  40308a:	d076      	beq.n	40317a <m2m_wifi_cb+0x112>
  40308c:	2811      	cmp	r0, #17
  40308e:	f000 8093 	beq.w	4031b8 <m2m_wifi_cb+0x150>
  403092:	2813      	cmp	r0, #19
  403094:	f000 80a8 	beq.w	4031e8 <m2m_wifi_cb+0x180>
  403098:	2804      	cmp	r0, #4
  40309a:	f000 80b7 	beq.w	40320c <m2m_wifi_cb+0x1a4>
  40309e:	2865      	cmp	r0, #101	; 0x65
  4030a0:	f000 80c6 	beq.w	403230 <m2m_wifi_cb+0x1c8>
  4030a4:	2809      	cmp	r0, #9
  4030a6:	f000 80d5 	beq.w	403254 <m2m_wifi_cb+0x1ec>
  4030aa:	282a      	cmp	r0, #42	; 0x2a
  4030ac:	f000 80e4 	beq.w	403278 <m2m_wifi_cb+0x210>
  4030b0:	2820      	cmp	r0, #32
  4030b2:	f000 80f3 	beq.w	40329c <m2m_wifi_cb+0x234>
  4030b6:	f44f 7295 	mov.w	r2, #298	; 0x12a
  4030ba:	4986      	ldr	r1, [pc, #536]	; (4032d4 <m2m_wifi_cb+0x26c>)
  4030bc:	4886      	ldr	r0, [pc, #536]	; (4032d8 <m2m_wifi_cb+0x270>)
  4030be:	4d87      	ldr	r5, [pc, #540]	; (4032dc <m2m_wifi_cb+0x274>)
  4030c0:	47a8      	blx	r5
  4030c2:	4621      	mov	r1, r4
  4030c4:	4886      	ldr	r0, [pc, #536]	; (4032e0 <m2m_wifi_cb+0x278>)
  4030c6:	47a8      	blx	r5
  4030c8:	4886      	ldr	r0, [pc, #536]	; (4032e4 <m2m_wifi_cb+0x27c>)
  4030ca:	47a8      	blx	r5
  4030cc:	b01f      	add	sp, #124	; 0x7c
  4030ce:	bd30      	pop	{r4, r5, pc}
  4030d0:	2300      	movs	r3, #0
  4030d2:	2204      	movs	r2, #4
  4030d4:	a903      	add	r1, sp, #12
  4030d6:	4628      	mov	r0, r5
  4030d8:	4c83      	ldr	r4, [pc, #524]	; (4032e8 <m2m_wifi_cb+0x280>)
  4030da:	47a0      	blx	r4
  4030dc:	2800      	cmp	r0, #0
  4030de:	d1f5      	bne.n	4030cc <m2m_wifi_cb+0x64>
  4030e0:	4b82      	ldr	r3, [pc, #520]	; (4032ec <m2m_wifi_cb+0x284>)
  4030e2:	681b      	ldr	r3, [r3, #0]
  4030e4:	2b00      	cmp	r3, #0
  4030e6:	d0f1      	beq.n	4030cc <m2m_wifi_cb+0x64>
  4030e8:	a903      	add	r1, sp, #12
  4030ea:	202c      	movs	r0, #44	; 0x2c
  4030ec:	4798      	blx	r3
  4030ee:	e7ed      	b.n	4030cc <m2m_wifi_cb+0x64>
  4030f0:	2300      	movs	r3, #0
  4030f2:	2208      	movs	r2, #8
  4030f4:	a903      	add	r1, sp, #12
  4030f6:	4628      	mov	r0, r5
  4030f8:	4c7b      	ldr	r4, [pc, #492]	; (4032e8 <m2m_wifi_cb+0x280>)
  4030fa:	47a0      	blx	r4
  4030fc:	2800      	cmp	r0, #0
  4030fe:	d1e5      	bne.n	4030cc <m2m_wifi_cb+0x64>
  403100:	4b7a      	ldr	r3, [pc, #488]	; (4032ec <m2m_wifi_cb+0x284>)
  403102:	681b      	ldr	r3, [r3, #0]
  403104:	2b00      	cmp	r3, #0
  403106:	d0e1      	beq.n	4030cc <m2m_wifi_cb+0x64>
  403108:	a903      	add	r1, sp, #12
  40310a:	201b      	movs	r0, #27
  40310c:	4798      	blx	r3
  40310e:	e7dd      	b.n	4030cc <m2m_wifi_cb+0x64>
  403110:	2301      	movs	r3, #1
  403112:	2230      	movs	r2, #48	; 0x30
  403114:	a903      	add	r1, sp, #12
  403116:	4628      	mov	r0, r5
  403118:	4c73      	ldr	r4, [pc, #460]	; (4032e8 <m2m_wifi_cb+0x280>)
  40311a:	47a0      	blx	r4
  40311c:	2800      	cmp	r0, #0
  40311e:	d1d5      	bne.n	4030cc <m2m_wifi_cb+0x64>
  403120:	4b72      	ldr	r3, [pc, #456]	; (4032ec <m2m_wifi_cb+0x284>)
  403122:	681b      	ldr	r3, [r3, #0]
  403124:	2b00      	cmp	r3, #0
  403126:	d0d1      	beq.n	4030cc <m2m_wifi_cb+0x64>
  403128:	a903      	add	r1, sp, #12
  40312a:	2006      	movs	r0, #6
  40312c:	4798      	blx	r3
  40312e:	e7cd      	b.n	4030cc <m2m_wifi_cb+0x64>
  403130:	2300      	movs	r3, #0
  403132:	2210      	movs	r2, #16
  403134:	a903      	add	r1, sp, #12
  403136:	4628      	mov	r0, r5
  403138:	4c6b      	ldr	r4, [pc, #428]	; (4032e8 <m2m_wifi_cb+0x280>)
  40313a:	47a0      	blx	r4
  40313c:	2800      	cmp	r0, #0
  40313e:	d1c5      	bne.n	4030cc <m2m_wifi_cb+0x64>
  403140:	4b6a      	ldr	r3, [pc, #424]	; (4032ec <m2m_wifi_cb+0x284>)
  403142:	681b      	ldr	r3, [r3, #0]
  403144:	2b00      	cmp	r3, #0
  403146:	d0c1      	beq.n	4030cc <m2m_wifi_cb+0x64>
  403148:	a903      	add	r1, sp, #12
  40314a:	2032      	movs	r0, #50	; 0x32
  40314c:	4798      	blx	r3
  40314e:	e7bd      	b.n	4030cc <m2m_wifi_cb+0x64>
  403150:	2264      	movs	r2, #100	; 0x64
  403152:	2100      	movs	r1, #0
  403154:	a803      	add	r0, sp, #12
  403156:	4b66      	ldr	r3, [pc, #408]	; (4032f0 <m2m_wifi_cb+0x288>)
  403158:	4798      	blx	r3
  40315a:	2300      	movs	r3, #0
  40315c:	2264      	movs	r2, #100	; 0x64
  40315e:	a903      	add	r1, sp, #12
  403160:	4628      	mov	r0, r5
  403162:	4c61      	ldr	r4, [pc, #388]	; (4032e8 <m2m_wifi_cb+0x280>)
  403164:	47a0      	blx	r4
  403166:	2800      	cmp	r0, #0
  403168:	d1b0      	bne.n	4030cc <m2m_wifi_cb+0x64>
  40316a:	4b60      	ldr	r3, [pc, #384]	; (4032ec <m2m_wifi_cb+0x284>)
  40316c:	681b      	ldr	r3, [r3, #0]
  40316e:	2b00      	cmp	r3, #0
  403170:	d0ac      	beq.n	4030cc <m2m_wifi_cb+0x64>
  403172:	a903      	add	r1, sp, #12
  403174:	202f      	movs	r0, #47	; 0x2f
  403176:	4798      	blx	r3
  403178:	e7a8      	b.n	4030cc <m2m_wifi_cb+0x64>
  40317a:	2300      	movs	r3, #0
  40317c:	2204      	movs	r2, #4
  40317e:	a903      	add	r1, sp, #12
  403180:	4628      	mov	r0, r5
  403182:	4c59      	ldr	r4, [pc, #356]	; (4032e8 <m2m_wifi_cb+0x280>)
  403184:	47a0      	blx	r4
  403186:	2800      	cmp	r0, #0
  403188:	d1a0      	bne.n	4030cc <m2m_wifi_cb+0x64>
  40318a:	485a      	ldr	r0, [pc, #360]	; (4032f4 <m2m_wifi_cb+0x28c>)
  40318c:	4c53      	ldr	r4, [pc, #332]	; (4032dc <m2m_wifi_cb+0x274>)
  40318e:	47a0      	blx	r4
  403190:	9903      	ldr	r1, [sp, #12]
  403192:	b2cb      	uxtb	r3, r1
  403194:	9300      	str	r3, [sp, #0]
  403196:	f3c1 2307 	ubfx	r3, r1, #8, #8
  40319a:	f3c1 4207 	ubfx	r2, r1, #16, #8
  40319e:	0e09      	lsrs	r1, r1, #24
  4031a0:	4855      	ldr	r0, [pc, #340]	; (4032f8 <m2m_wifi_cb+0x290>)
  4031a2:	47a0      	blx	r4
  4031a4:	484f      	ldr	r0, [pc, #316]	; (4032e4 <m2m_wifi_cb+0x27c>)
  4031a6:	47a0      	blx	r4
  4031a8:	4b50      	ldr	r3, [pc, #320]	; (4032ec <m2m_wifi_cb+0x284>)
  4031aa:	681b      	ldr	r3, [r3, #0]
  4031ac:	2b00      	cmp	r3, #0
  4031ae:	d08d      	beq.n	4030cc <m2m_wifi_cb+0x64>
  4031b0:	2100      	movs	r1, #0
  4031b2:	2034      	movs	r0, #52	; 0x34
  4031b4:	4798      	blx	r3
  4031b6:	e789      	b.n	4030cc <m2m_wifi_cb+0x64>
  4031b8:	2300      	movs	r3, #0
  4031ba:	4a50      	ldr	r2, [pc, #320]	; (4032fc <m2m_wifi_cb+0x294>)
  4031bc:	7013      	strb	r3, [r2, #0]
  4031be:	2204      	movs	r2, #4
  4031c0:	a903      	add	r1, sp, #12
  4031c2:	4628      	mov	r0, r5
  4031c4:	4c48      	ldr	r4, [pc, #288]	; (4032e8 <m2m_wifi_cb+0x280>)
  4031c6:	47a0      	blx	r4
  4031c8:	2800      	cmp	r0, #0
  4031ca:	f47f af7f 	bne.w	4030cc <m2m_wifi_cb+0x64>
  4031ce:	f89d 200c 	ldrb.w	r2, [sp, #12]
  4031d2:	4b4b      	ldr	r3, [pc, #300]	; (403300 <m2m_wifi_cb+0x298>)
  4031d4:	701a      	strb	r2, [r3, #0]
  4031d6:	4b45      	ldr	r3, [pc, #276]	; (4032ec <m2m_wifi_cb+0x284>)
  4031d8:	681b      	ldr	r3, [r3, #0]
  4031da:	2b00      	cmp	r3, #0
  4031dc:	f43f af76 	beq.w	4030cc <m2m_wifi_cb+0x64>
  4031e0:	a903      	add	r1, sp, #12
  4031e2:	2011      	movs	r0, #17
  4031e4:	4798      	blx	r3
  4031e6:	e771      	b.n	4030cc <m2m_wifi_cb+0x64>
  4031e8:	2300      	movs	r3, #0
  4031ea:	222c      	movs	r2, #44	; 0x2c
  4031ec:	a903      	add	r1, sp, #12
  4031ee:	4628      	mov	r0, r5
  4031f0:	4c3d      	ldr	r4, [pc, #244]	; (4032e8 <m2m_wifi_cb+0x280>)
  4031f2:	47a0      	blx	r4
  4031f4:	2800      	cmp	r0, #0
  4031f6:	f47f af69 	bne.w	4030cc <m2m_wifi_cb+0x64>
  4031fa:	4b3c      	ldr	r3, [pc, #240]	; (4032ec <m2m_wifi_cb+0x284>)
  4031fc:	681b      	ldr	r3, [r3, #0]
  4031fe:	2b00      	cmp	r3, #0
  403200:	f43f af64 	beq.w	4030cc <m2m_wifi_cb+0x64>
  403204:	a903      	add	r1, sp, #12
  403206:	2013      	movs	r0, #19
  403208:	4798      	blx	r3
  40320a:	e75f      	b.n	4030cc <m2m_wifi_cb+0x64>
  40320c:	2300      	movs	r3, #0
  40320e:	2204      	movs	r2, #4
  403210:	a91c      	add	r1, sp, #112	; 0x70
  403212:	4628      	mov	r0, r5
  403214:	4c34      	ldr	r4, [pc, #208]	; (4032e8 <m2m_wifi_cb+0x280>)
  403216:	47a0      	blx	r4
  403218:	2800      	cmp	r0, #0
  40321a:	f47f af57 	bne.w	4030cc <m2m_wifi_cb+0x64>
  40321e:	4b33      	ldr	r3, [pc, #204]	; (4032ec <m2m_wifi_cb+0x284>)
  403220:	681b      	ldr	r3, [r3, #0]
  403222:	2b00      	cmp	r3, #0
  403224:	f43f af52 	beq.w	4030cc <m2m_wifi_cb+0x64>
  403228:	a91c      	add	r1, sp, #112	; 0x70
  40322a:	2004      	movs	r0, #4
  40322c:	4798      	blx	r3
  40322e:	e74d      	b.n	4030cc <m2m_wifi_cb+0x64>
  403230:	2300      	movs	r3, #0
  403232:	2204      	movs	r2, #4
  403234:	a91c      	add	r1, sp, #112	; 0x70
  403236:	4628      	mov	r0, r5
  403238:	4c2b      	ldr	r4, [pc, #172]	; (4032e8 <m2m_wifi_cb+0x280>)
  40323a:	47a0      	blx	r4
  40323c:	2800      	cmp	r0, #0
  40323e:	f47f af45 	bne.w	4030cc <m2m_wifi_cb+0x64>
  403242:	4b2a      	ldr	r3, [pc, #168]	; (4032ec <m2m_wifi_cb+0x284>)
  403244:	681b      	ldr	r3, [r3, #0]
  403246:	2b00      	cmp	r3, #0
  403248:	f43f af40 	beq.w	4030cc <m2m_wifi_cb+0x64>
  40324c:	a91c      	add	r1, sp, #112	; 0x70
  40324e:	2065      	movs	r0, #101	; 0x65
  403250:	4798      	blx	r3
  403252:	e73b      	b.n	4030cc <m2m_wifi_cb+0x64>
  403254:	2301      	movs	r3, #1
  403256:	2264      	movs	r2, #100	; 0x64
  403258:	a903      	add	r1, sp, #12
  40325a:	4628      	mov	r0, r5
  40325c:	4c22      	ldr	r4, [pc, #136]	; (4032e8 <m2m_wifi_cb+0x280>)
  40325e:	47a0      	blx	r4
  403260:	2800      	cmp	r0, #0
  403262:	f47f af33 	bne.w	4030cc <m2m_wifi_cb+0x64>
  403266:	4b21      	ldr	r3, [pc, #132]	; (4032ec <m2m_wifi_cb+0x284>)
  403268:	681b      	ldr	r3, [r3, #0]
  40326a:	2b00      	cmp	r3, #0
  40326c:	f43f af2e 	beq.w	4030cc <m2m_wifi_cb+0x64>
  403270:	a903      	add	r1, sp, #12
  403272:	2009      	movs	r0, #9
  403274:	4798      	blx	r3
  403276:	e729      	b.n	4030cc <m2m_wifi_cb+0x64>
  403278:	2301      	movs	r3, #1
  40327a:	2204      	movs	r2, #4
  40327c:	a903      	add	r1, sp, #12
  40327e:	4628      	mov	r0, r5
  403280:	4c19      	ldr	r4, [pc, #100]	; (4032e8 <m2m_wifi_cb+0x280>)
  403282:	47a0      	blx	r4
  403284:	2800      	cmp	r0, #0
  403286:	f47f af21 	bne.w	4030cc <m2m_wifi_cb+0x64>
  40328a:	4b18      	ldr	r3, [pc, #96]	; (4032ec <m2m_wifi_cb+0x284>)
  40328c:	681b      	ldr	r3, [r3, #0]
  40328e:	2b00      	cmp	r3, #0
  403290:	f43f af1c 	beq.w	4030cc <m2m_wifi_cb+0x64>
  403294:	a903      	add	r1, sp, #12
  403296:	202a      	movs	r0, #42	; 0x2a
  403298:	4798      	blx	r3
  40329a:	e717      	b.n	4030cc <m2m_wifi_cb+0x64>
  40329c:	2300      	movs	r3, #0
  40329e:	2208      	movs	r2, #8
  4032a0:	a903      	add	r1, sp, #12
  4032a2:	4628      	mov	r0, r5
  4032a4:	4c10      	ldr	r4, [pc, #64]	; (4032e8 <m2m_wifi_cb+0x280>)
  4032a6:	47a0      	blx	r4
  4032a8:	2800      	cmp	r0, #0
  4032aa:	f47f af0f 	bne.w	4030cc <m2m_wifi_cb+0x64>
  4032ae:	2301      	movs	r3, #1
  4032b0:	f8bd 2010 	ldrh.w	r2, [sp, #16]
  4032b4:	9903      	ldr	r1, [sp, #12]
  4032b6:	f105 0008 	add.w	r0, r5, #8
  4032ba:	47a0      	blx	r4
  4032bc:	2800      	cmp	r0, #0
  4032be:	f47f af05 	bne.w	4030cc <m2m_wifi_cb+0x64>
  4032c2:	4b0a      	ldr	r3, [pc, #40]	; (4032ec <m2m_wifi_cb+0x284>)
  4032c4:	681b      	ldr	r3, [r3, #0]
  4032c6:	2b00      	cmp	r3, #0
  4032c8:	f43f af00 	beq.w	4030cc <m2m_wifi_cb+0x64>
  4032cc:	a903      	add	r1, sp, #12
  4032ce:	2020      	movs	r0, #32
  4032d0:	4798      	blx	r3
  4032d2:	e6fb      	b.n	4030cc <m2m_wifi_cb+0x64>
  4032d4:	0040d55c 	.word	0x0040d55c
  4032d8:	0040d2b8 	.word	0x0040d2b8
  4032dc:	004075b5 	.word	0x004075b5
  4032e0:	0040d5b8 	.word	0x0040d5b8
  4032e4:	0040d2e4 	.word	0x0040d2e4
  4032e8:	00402e75 	.word	0x00402e75
  4032ec:	2040c35c 	.word	0x2040c35c
  4032f0:	00402821 	.word	0x00402821
  4032f4:	0040d58c 	.word	0x0040d58c
  4032f8:	0040d598 	.word	0x0040d598
  4032fc:	2040c361 	.word	0x2040c361
  403300:	2040c360 	.word	0x2040c360

00403304 <m2m_wifi_init>:
  403304:	b5f0      	push	{r4, r5, r6, r7, lr}
  403306:	b08b      	sub	sp, #44	; 0x2c
  403308:	2301      	movs	r3, #1
  40330a:	f88d 3007 	strb.w	r3, [sp, #7]
  40330e:	2800      	cmp	r0, #0
  403310:	d050      	beq.n	4033b4 <m2m_wifi_init+0xb0>
  403312:	6802      	ldr	r2, [r0, #0]
  403314:	4b29      	ldr	r3, [pc, #164]	; (4033bc <m2m_wifi_init+0xb8>)
  403316:	601a      	str	r2, [r3, #0]
  403318:	2200      	movs	r2, #0
  40331a:	4b29      	ldr	r3, [pc, #164]	; (4033c0 <m2m_wifi_init+0xbc>)
  40331c:	701a      	strb	r2, [r3, #0]
  40331e:	f10d 0007 	add.w	r0, sp, #7
  403322:	4b28      	ldr	r3, [pc, #160]	; (4033c4 <m2m_wifi_init+0xc0>)
  403324:	4798      	blx	r3
  403326:	4604      	mov	r4, r0
  403328:	b110      	cbz	r0, 403330 <m2m_wifi_init+0x2c>
  40332a:	4620      	mov	r0, r4
  40332c:	b00b      	add	sp, #44	; 0x2c
  40332e:	bdf0      	pop	{r4, r5, r6, r7, pc}
  403330:	4b25      	ldr	r3, [pc, #148]	; (4033c8 <m2m_wifi_init+0xc4>)
  403332:	4798      	blx	r3
  403334:	4604      	mov	r4, r0
  403336:	2800      	cmp	r0, #0
  403338:	d138      	bne.n	4033ac <m2m_wifi_init+0xa8>
  40333a:	4924      	ldr	r1, [pc, #144]	; (4033cc <m2m_wifi_init+0xc8>)
  40333c:	2001      	movs	r0, #1
  40333e:	4b24      	ldr	r3, [pc, #144]	; (4033d0 <m2m_wifi_init+0xcc>)
  403340:	4798      	blx	r3
  403342:	a802      	add	r0, sp, #8
  403344:	4b23      	ldr	r3, [pc, #140]	; (4033d4 <m2m_wifi_init+0xd0>)
  403346:	4798      	blx	r3
  403348:	4604      	mov	r4, r0
  40334a:	4f23      	ldr	r7, [pc, #140]	; (4033d8 <m2m_wifi_init+0xd4>)
  40334c:	4638      	mov	r0, r7
  40334e:	4d23      	ldr	r5, [pc, #140]	; (4033dc <m2m_wifi_init+0xd8>)
  403350:	47a8      	blx	r5
  403352:	f89d 300e 	ldrb.w	r3, [sp, #14]
  403356:	f89d 200d 	ldrb.w	r2, [sp, #13]
  40335a:	f89d 100c 	ldrb.w	r1, [sp, #12]
  40335e:	4820      	ldr	r0, [pc, #128]	; (4033e0 <m2m_wifi_init+0xdc>)
  403360:	47a8      	blx	r5
  403362:	4e20      	ldr	r6, [pc, #128]	; (4033e4 <m2m_wifi_init+0xe0>)
  403364:	4630      	mov	r0, r6
  403366:	47a8      	blx	r5
  403368:	4638      	mov	r0, r7
  40336a:	47a8      	blx	r5
  40336c:	f89d 3011 	ldrb.w	r3, [sp, #17]
  403370:	f89d 2010 	ldrb.w	r2, [sp, #16]
  403374:	f89d 100f 	ldrb.w	r1, [sp, #15]
  403378:	481b      	ldr	r0, [pc, #108]	; (4033e8 <m2m_wifi_init+0xe4>)
  40337a:	47a8      	blx	r5
  40337c:	4630      	mov	r0, r6
  40337e:	47a8      	blx	r5
  403380:	4638      	mov	r0, r7
  403382:	47a8      	blx	r5
  403384:	2300      	movs	r3, #0
  403386:	2203      	movs	r2, #3
  403388:	2113      	movs	r1, #19
  40338a:	4818      	ldr	r0, [pc, #96]	; (4033ec <m2m_wifi_init+0xe8>)
  40338c:	47a8      	blx	r5
  40338e:	4630      	mov	r0, r6
  403390:	47a8      	blx	r5
  403392:	f114 0f0d 	cmn.w	r4, #13
  403396:	d1c8      	bne.n	40332a <m2m_wifi_init+0x26>
  403398:	f240 12d5 	movw	r2, #469	; 0x1d5
  40339c:	4914      	ldr	r1, [pc, #80]	; (4033f0 <m2m_wifi_init+0xec>)
  40339e:	4815      	ldr	r0, [pc, #84]	; (4033f4 <m2m_wifi_init+0xf0>)
  4033a0:	47a8      	blx	r5
  4033a2:	4815      	ldr	r0, [pc, #84]	; (4033f8 <m2m_wifi_init+0xf4>)
  4033a4:	47a8      	blx	r5
  4033a6:	4630      	mov	r0, r6
  4033a8:	47a8      	blx	r5
  4033aa:	e7be      	b.n	40332a <m2m_wifi_init+0x26>
  4033ac:	2000      	movs	r0, #0
  4033ae:	4b13      	ldr	r3, [pc, #76]	; (4033fc <m2m_wifi_init+0xf8>)
  4033b0:	4798      	blx	r3
  4033b2:	e7ba      	b.n	40332a <m2m_wifi_init+0x26>
  4033b4:	f06f 040b 	mvn.w	r4, #11
  4033b8:	e7b7      	b.n	40332a <m2m_wifi_init+0x26>
  4033ba:	bf00      	nop
  4033bc:	2040c35c 	.word	0x2040c35c
  4033c0:	2040c361 	.word	0x2040c361
  4033c4:	00403cc9 	.word	0x00403cc9
  4033c8:	00403019 	.word	0x00403019
  4033cc:	00403069 	.word	0x00403069
  4033d0:	00402f89 	.word	0x00402f89
  4033d4:	00403c19 	.word	0x00403c19
  4033d8:	0040d58c 	.word	0x0040d58c
  4033dc:	004075b5 	.word	0x004075b5
  4033e0:	0040d678 	.word	0x0040d678
  4033e4:	0040d2e4 	.word	0x0040d2e4
  4033e8:	0040d694 	.word	0x0040d694
  4033ec:	0040d6b0 	.word	0x0040d6b0
  4033f0:	0040d568 	.word	0x0040d568
  4033f4:	0040d2b8 	.word	0x0040d2b8
  4033f8:	0040d6cc 	.word	0x0040d6cc
  4033fc:	00403d95 	.word	0x00403d95

00403400 <m2m_wifi_handle_events>:
  403400:	b508      	push	{r3, lr}
  403402:	4b01      	ldr	r3, [pc, #4]	; (403408 <m2m_wifi_handle_events+0x8>)
  403404:	4798      	blx	r3
  403406:	bd08      	pop	{r3, pc}
  403408:	00402b65 	.word	0x00402b65

0040340c <m2m_wifi_connect_sc>:
  40340c:	e92d 41f0 	stmdb	sp!, {r4, r5, r6, r7, r8, lr}
  403410:	b0a0      	sub	sp, #128	; 0x80
  403412:	4680      	mov	r8, r0
  403414:	460d      	mov	r5, r1
  403416:	4614      	mov	r4, r2
  403418:	461e      	mov	r6, r3
  40341a:	f8bd 7098 	ldrh.w	r7, [sp, #152]	; 0x98
  40341e:	2a01      	cmp	r2, #1
  403420:	d003      	beq.n	40342a <m2m_wifi_connect_sc+0x1e>
  403422:	2b00      	cmp	r3, #0
  403424:	d037      	beq.n	403496 <m2m_wifi_connect_sc+0x8a>
  403426:	2a02      	cmp	r2, #2
  403428:	d042      	beq.n	4034b0 <m2m_wifi_connect_sc+0xa4>
  40342a:	1e6b      	subs	r3, r5, #1
  40342c:	b2db      	uxtb	r3, r3
  40342e:	2b1f      	cmp	r3, #31
  403430:	d875      	bhi.n	40351e <m2m_wifi_connect_sc+0x112>
  403432:	2fff      	cmp	r7, #255	; 0xff
  403434:	d001      	beq.n	40343a <m2m_wifi_connect_sc+0x2e>
  403436:	2f0d      	cmp	r7, #13
  403438:	d87e      	bhi.n	403538 <m2m_wifi_connect_sc+0x12c>
  40343a:	462a      	mov	r2, r5
  40343c:	4641      	mov	r1, r8
  40343e:	f10d 005a 	add.w	r0, sp, #90	; 0x5a
  403442:	4b77      	ldr	r3, [pc, #476]	; (403620 <m2m_wifi_connect_sc+0x214>)
  403444:	4798      	blx	r3
  403446:	ab20      	add	r3, sp, #128	; 0x80
  403448:	441d      	add	r5, r3
  40344a:	2300      	movs	r3, #0
  40344c:	f805 3c26 	strb.w	r3, [r5, #-38]
  403450:	f8ad 7058 	strh.w	r7, [sp, #88]	; 0x58
  403454:	f89d 309c 	ldrb.w	r3, [sp, #156]	; 0x9c
  403458:	3300      	adds	r3, #0
  40345a:	bf18      	it	ne
  40345c:	2301      	movne	r3, #1
  40345e:	f88d 307b 	strb.w	r3, [sp, #123]	; 0x7b
  403462:	f88d 4055 	strb.w	r4, [sp, #85]	; 0x55
  403466:	2c03      	cmp	r4, #3
  403468:	d073      	beq.n	403552 <m2m_wifi_connect_sc+0x146>
  40346a:	2c02      	cmp	r4, #2
  40346c:	f000 80aa 	beq.w	4035c4 <m2m_wifi_connect_sc+0x1b8>
  403470:	2c04      	cmp	r4, #4
  403472:	f000 80c1 	beq.w	4035f8 <m2m_wifi_connect_sc+0x1ec>
  403476:	2c01      	cmp	r4, #1
  403478:	f040 80c4 	bne.w	403604 <m2m_wifi_connect_sc+0x1f8>
  40347c:	2300      	movs	r3, #0
  40347e:	9302      	str	r3, [sp, #8]
  403480:	9301      	str	r3, [sp, #4]
  403482:	9300      	str	r3, [sp, #0]
  403484:	236c      	movs	r3, #108	; 0x6c
  403486:	aa05      	add	r2, sp, #20
  403488:	2128      	movs	r1, #40	; 0x28
  40348a:	2001      	movs	r0, #1
  40348c:	4c65      	ldr	r4, [pc, #404]	; (403624 <m2m_wifi_connect_sc+0x218>)
  40348e:	47a0      	blx	r4
  403490:	b020      	add	sp, #128	; 0x80
  403492:	e8bd 81f0 	ldmia.w	sp!, {r4, r5, r6, r7, r8, pc}
  403496:	f240 2203 	movw	r2, #515	; 0x203
  40349a:	4963      	ldr	r1, [pc, #396]	; (403628 <m2m_wifi_connect_sc+0x21c>)
  40349c:	4863      	ldr	r0, [pc, #396]	; (40362c <m2m_wifi_connect_sc+0x220>)
  40349e:	4c64      	ldr	r4, [pc, #400]	; (403630 <m2m_wifi_connect_sc+0x224>)
  4034a0:	47a0      	blx	r4
  4034a2:	4864      	ldr	r0, [pc, #400]	; (403634 <m2m_wifi_connect_sc+0x228>)
  4034a4:	47a0      	blx	r4
  4034a6:	4864      	ldr	r0, [pc, #400]	; (403638 <m2m_wifi_connect_sc+0x22c>)
  4034a8:	47a0      	blx	r4
  4034aa:	f06f 000b 	mvn.w	r0, #11
  4034ae:	e7ef      	b.n	403490 <m2m_wifi_connect_sc+0x84>
  4034b0:	4618      	mov	r0, r3
  4034b2:	4b62      	ldr	r3, [pc, #392]	; (40363c <m2m_wifi_connect_sc+0x230>)
  4034b4:	4798      	blx	r3
  4034b6:	2840      	cmp	r0, #64	; 0x40
  4034b8:	d1b7      	bne.n	40342a <m2m_wifi_connect_sc+0x1e>
  4034ba:	7833      	ldrb	r3, [r6, #0]
  4034bc:	f1a3 023a 	sub.w	r2, r3, #58	; 0x3a
  4034c0:	b2d2      	uxtb	r2, r2
  4034c2:	2a06      	cmp	r2, #6
  4034c4:	d91e      	bls.n	403504 <m2m_wifi_connect_sc+0xf8>
  4034c6:	f1a3 0230 	sub.w	r2, r3, #48	; 0x30
  4034ca:	b2d2      	uxtb	r2, r2
  4034cc:	2a36      	cmp	r2, #54	; 0x36
  4034ce:	d819      	bhi.n	403504 <m2m_wifi_connect_sc+0xf8>
  4034d0:	3b47      	subs	r3, #71	; 0x47
  4034d2:	b2db      	uxtb	r3, r3
  4034d4:	2b19      	cmp	r3, #25
  4034d6:	d915      	bls.n	403504 <m2m_wifi_connect_sc+0xf8>
  4034d8:	4631      	mov	r1, r6
  4034da:	f106 003f 	add.w	r0, r6, #63	; 0x3f
  4034de:	f811 3f01 	ldrb.w	r3, [r1, #1]!
  4034e2:	f1a3 023a 	sub.w	r2, r3, #58	; 0x3a
  4034e6:	b2d2      	uxtb	r2, r2
  4034e8:	2a06      	cmp	r2, #6
  4034ea:	d90b      	bls.n	403504 <m2m_wifi_connect_sc+0xf8>
  4034ec:	f1a3 0230 	sub.w	r2, r3, #48	; 0x30
  4034f0:	b2d2      	uxtb	r2, r2
  4034f2:	2a36      	cmp	r2, #54	; 0x36
  4034f4:	d806      	bhi.n	403504 <m2m_wifi_connect_sc+0xf8>
  4034f6:	3b47      	subs	r3, #71	; 0x47
  4034f8:	b2db      	uxtb	r3, r3
  4034fa:	2b19      	cmp	r3, #25
  4034fc:	d902      	bls.n	403504 <m2m_wifi_connect_sc+0xf8>
  4034fe:	4288      	cmp	r0, r1
  403500:	d1ed      	bne.n	4034de <m2m_wifi_connect_sc+0xd2>
  403502:	e792      	b.n	40342a <m2m_wifi_connect_sc+0x1e>
  403504:	f240 220f 	movw	r2, #527	; 0x20f
  403508:	4947      	ldr	r1, [pc, #284]	; (403628 <m2m_wifi_connect_sc+0x21c>)
  40350a:	4848      	ldr	r0, [pc, #288]	; (40362c <m2m_wifi_connect_sc+0x220>)
  40350c:	4c48      	ldr	r4, [pc, #288]	; (403630 <m2m_wifi_connect_sc+0x224>)
  40350e:	47a0      	blx	r4
  403510:	484b      	ldr	r0, [pc, #300]	; (403640 <m2m_wifi_connect_sc+0x234>)
  403512:	47a0      	blx	r4
  403514:	4848      	ldr	r0, [pc, #288]	; (403638 <m2m_wifi_connect_sc+0x22c>)
  403516:	47a0      	blx	r4
  403518:	f06f 000b 	mvn.w	r0, #11
  40351c:	e7b8      	b.n	403490 <m2m_wifi_connect_sc+0x84>
  40351e:	f240 2219 	movw	r2, #537	; 0x219
  403522:	4941      	ldr	r1, [pc, #260]	; (403628 <m2m_wifi_connect_sc+0x21c>)
  403524:	4841      	ldr	r0, [pc, #260]	; (40362c <m2m_wifi_connect_sc+0x220>)
  403526:	4c42      	ldr	r4, [pc, #264]	; (403630 <m2m_wifi_connect_sc+0x224>)
  403528:	47a0      	blx	r4
  40352a:	4846      	ldr	r0, [pc, #280]	; (403644 <m2m_wifi_connect_sc+0x238>)
  40352c:	47a0      	blx	r4
  40352e:	4842      	ldr	r0, [pc, #264]	; (403638 <m2m_wifi_connect_sc+0x22c>)
  403530:	47a0      	blx	r4
  403532:	f06f 000b 	mvn.w	r0, #11
  403536:	e7ab      	b.n	403490 <m2m_wifi_connect_sc+0x84>
  403538:	f240 2222 	movw	r2, #546	; 0x222
  40353c:	493a      	ldr	r1, [pc, #232]	; (403628 <m2m_wifi_connect_sc+0x21c>)
  40353e:	483b      	ldr	r0, [pc, #236]	; (40362c <m2m_wifi_connect_sc+0x220>)
  403540:	4c3b      	ldr	r4, [pc, #236]	; (403630 <m2m_wifi_connect_sc+0x224>)
  403542:	47a0      	blx	r4
  403544:	4840      	ldr	r0, [pc, #256]	; (403648 <m2m_wifi_connect_sc+0x23c>)
  403546:	47a0      	blx	r4
  403548:	483b      	ldr	r0, [pc, #236]	; (403638 <m2m_wifi_connect_sc+0x22c>)
  40354a:	47a0      	blx	r4
  40354c:	f06f 000b 	mvn.w	r0, #11
  403550:	e79e      	b.n	403490 <m2m_wifi_connect_sc+0x84>
  403552:	7833      	ldrb	r3, [r6, #0]
  403554:	3b01      	subs	r3, #1
  403556:	b2db      	uxtb	r3, r3
  403558:	f88d 3014 	strb.w	r3, [sp, #20]
  40355c:	2b03      	cmp	r3, #3
  40355e:	d813      	bhi.n	403588 <m2m_wifi_connect_sc+0x17c>
  403560:	7872      	ldrb	r2, [r6, #1]
  403562:	1e53      	subs	r3, r2, #1
  403564:	f88d 3015 	strb.w	r3, [sp, #21]
  403568:	f002 03ef 	and.w	r3, r2, #239	; 0xef
  40356c:	2b0b      	cmp	r3, #11
  40356e:	d11a      	bne.n	4035a6 <m2m_wifi_connect_sc+0x19a>
  403570:	1cb1      	adds	r1, r6, #2
  403572:	f10d 0016 	add.w	r0, sp, #22
  403576:	4b2a      	ldr	r3, [pc, #168]	; (403620 <m2m_wifi_connect_sc+0x214>)
  403578:	4798      	blx	r3
  40357a:	7873      	ldrb	r3, [r6, #1]
  40357c:	aa20      	add	r2, sp, #128	; 0x80
  40357e:	4413      	add	r3, r2
  403580:	2200      	movs	r2, #0
  403582:	f803 2c6a 	strb.w	r2, [r3, #-106]
  403586:	e779      	b.n	40347c <m2m_wifi_connect_sc+0x70>
  403588:	f240 2239 	movw	r2, #569	; 0x239
  40358c:	4926      	ldr	r1, [pc, #152]	; (403628 <m2m_wifi_connect_sc+0x21c>)
  40358e:	4827      	ldr	r0, [pc, #156]	; (40362c <m2m_wifi_connect_sc+0x220>)
  403590:	4c27      	ldr	r4, [pc, #156]	; (403630 <m2m_wifi_connect_sc+0x224>)
  403592:	47a0      	blx	r4
  403594:	f89d 1014 	ldrb.w	r1, [sp, #20]
  403598:	482c      	ldr	r0, [pc, #176]	; (40364c <m2m_wifi_connect_sc+0x240>)
  40359a:	47a0      	blx	r4
  40359c:	4826      	ldr	r0, [pc, #152]	; (403638 <m2m_wifi_connect_sc+0x22c>)
  40359e:	47a0      	blx	r4
  4035a0:	f06f 000b 	mvn.w	r0, #11
  4035a4:	e774      	b.n	403490 <m2m_wifi_connect_sc+0x84>
  4035a6:	f44f 7210 	mov.w	r2, #576	; 0x240
  4035aa:	491f      	ldr	r1, [pc, #124]	; (403628 <m2m_wifi_connect_sc+0x21c>)
  4035ac:	481f      	ldr	r0, [pc, #124]	; (40362c <m2m_wifi_connect_sc+0x220>)
  4035ae:	4c20      	ldr	r4, [pc, #128]	; (403630 <m2m_wifi_connect_sc+0x224>)
  4035b0:	47a0      	blx	r4
  4035b2:	f89d 1015 	ldrb.w	r1, [sp, #21]
  4035b6:	4826      	ldr	r0, [pc, #152]	; (403650 <m2m_wifi_connect_sc+0x244>)
  4035b8:	47a0      	blx	r4
  4035ba:	481f      	ldr	r0, [pc, #124]	; (403638 <m2m_wifi_connect_sc+0x22c>)
  4035bc:	47a0      	blx	r4
  4035be:	f06f 000b 	mvn.w	r0, #11
  4035c2:	e765      	b.n	403490 <m2m_wifi_connect_sc+0x84>
  4035c4:	4630      	mov	r0, r6
  4035c6:	4b1d      	ldr	r3, [pc, #116]	; (40363c <m2m_wifi_connect_sc+0x230>)
  4035c8:	4798      	blx	r3
  4035ca:	1e43      	subs	r3, r0, #1
  4035cc:	b29b      	uxth	r3, r3
  4035ce:	2b3f      	cmp	r3, #63	; 0x3f
  4035d0:	d805      	bhi.n	4035de <m2m_wifi_connect_sc+0x1d2>
  4035d2:	1c42      	adds	r2, r0, #1
  4035d4:	4631      	mov	r1, r6
  4035d6:	a805      	add	r0, sp, #20
  4035d8:	4b11      	ldr	r3, [pc, #68]	; (403620 <m2m_wifi_connect_sc+0x214>)
  4035da:	4798      	blx	r3
  4035dc:	e74e      	b.n	40347c <m2m_wifi_connect_sc+0x70>
  4035de:	f240 224f 	movw	r2, #591	; 0x24f
  4035e2:	4911      	ldr	r1, [pc, #68]	; (403628 <m2m_wifi_connect_sc+0x21c>)
  4035e4:	4811      	ldr	r0, [pc, #68]	; (40362c <m2m_wifi_connect_sc+0x220>)
  4035e6:	4c12      	ldr	r4, [pc, #72]	; (403630 <m2m_wifi_connect_sc+0x224>)
  4035e8:	47a0      	blx	r4
  4035ea:	481a      	ldr	r0, [pc, #104]	; (403654 <m2m_wifi_connect_sc+0x248>)
  4035ec:	47a0      	blx	r4
  4035ee:	4812      	ldr	r0, [pc, #72]	; (403638 <m2m_wifi_connect_sc+0x22c>)
  4035f0:	47a0      	blx	r4
  4035f2:	f06f 000b 	mvn.w	r0, #11
  4035f6:	e74b      	b.n	403490 <m2m_wifi_connect_sc+0x84>
  4035f8:	223e      	movs	r2, #62	; 0x3e
  4035fa:	4631      	mov	r1, r6
  4035fc:	a805      	add	r0, sp, #20
  4035fe:	4b08      	ldr	r3, [pc, #32]	; (403620 <m2m_wifi_connect_sc+0x214>)
  403600:	4798      	blx	r3
  403602:	e73b      	b.n	40347c <m2m_wifi_connect_sc+0x70>
  403604:	f240 225f 	movw	r2, #607	; 0x25f
  403608:	4907      	ldr	r1, [pc, #28]	; (403628 <m2m_wifi_connect_sc+0x21c>)
  40360a:	4808      	ldr	r0, [pc, #32]	; (40362c <m2m_wifi_connect_sc+0x220>)
  40360c:	4c08      	ldr	r4, [pc, #32]	; (403630 <m2m_wifi_connect_sc+0x224>)
  40360e:	47a0      	blx	r4
  403610:	4811      	ldr	r0, [pc, #68]	; (403658 <m2m_wifi_connect_sc+0x24c>)
  403612:	47a0      	blx	r4
  403614:	4808      	ldr	r0, [pc, #32]	; (403638 <m2m_wifi_connect_sc+0x22c>)
  403616:	47a0      	blx	r4
  403618:	f06f 000b 	mvn.w	r0, #11
  40361c:	e738      	b.n	403490 <m2m_wifi_connect_sc+0x84>
  40361e:	bf00      	nop
  403620:	0040280d 	.word	0x0040280d
  403624:	00402985 	.word	0x00402985
  403628:	0040d578 	.word	0x0040d578
  40362c:	0040d2b8 	.word	0x0040d2b8
  403630:	004075b5 	.word	0x004075b5
  403634:	0040d5cc 	.word	0x0040d5cc
  403638:	0040d2e4 	.word	0x0040d2e4
  40363c:	0040282f 	.word	0x0040282f
  403640:	0040d5e0 	.word	0x0040d5e0
  403644:	0040d5f0 	.word	0x0040d5f0
  403648:	0040d604 	.word	0x0040d604
  40364c:	0040d610 	.word	0x0040d610
  403650:	0040d62c 	.word	0x0040d62c
  403654:	0040d648 	.word	0x0040d648
  403658:	0040d664 	.word	0x0040d664

0040365c <m2m_wifi_connect>:
  40365c:	b510      	push	{r4, lr}
  40365e:	b082      	sub	sp, #8
  403660:	2400      	movs	r4, #0
  403662:	9401      	str	r4, [sp, #4]
  403664:	f8bd 4010 	ldrh.w	r4, [sp, #16]
  403668:	9400      	str	r4, [sp, #0]
  40366a:	4c02      	ldr	r4, [pc, #8]	; (403674 <m2m_wifi_connect+0x18>)
  40366c:	47a0      	blx	r4
  40366e:	b002      	add	sp, #8
  403670:	bd10      	pop	{r4, pc}
  403672:	bf00      	nop
  403674:	0040340d 	.word	0x0040340d

00403678 <m2m_wifi_request_dhcp_client>:
  403678:	2000      	movs	r0, #0
  40367a:	4770      	bx	lr

0040367c <chip_apply_conf>:
  40367c:	b5f0      	push	{r4, r5, r6, r7, lr}
  40367e:	b083      	sub	sp, #12
  403680:	4604      	mov	r4, r0
  403682:	f44f 55a5 	mov.w	r5, #5280	; 0x14a0
  403686:	4e0a      	ldr	r6, [pc, #40]	; (4036b0 <chip_apply_conf+0x34>)
  403688:	4f0a      	ldr	r7, [pc, #40]	; (4036b4 <chip_apply_conf+0x38>)
  40368a:	4621      	mov	r1, r4
  40368c:	4628      	mov	r0, r5
  40368e:	47b0      	blx	r6
  403690:	b154      	cbz	r4, 4036a8 <chip_apply_conf+0x2c>
  403692:	a902      	add	r1, sp, #8
  403694:	2300      	movs	r3, #0
  403696:	f841 3d04 	str.w	r3, [r1, #-4]!
  40369a:	4628      	mov	r0, r5
  40369c:	47b8      	blx	r7
  40369e:	2800      	cmp	r0, #0
  4036a0:	d1f3      	bne.n	40368a <chip_apply_conf+0xe>
  4036a2:	9b01      	ldr	r3, [sp, #4]
  4036a4:	429c      	cmp	r4, r3
  4036a6:	d1f0      	bne.n	40368a <chip_apply_conf+0xe>
  4036a8:	2000      	movs	r0, #0
  4036aa:	b003      	add	sp, #12
  4036ac:	bdf0      	pop	{r4, r5, r6, r7, pc}
  4036ae:	bf00      	nop
  4036b0:	00403b55 	.word	0x00403b55
  4036b4:	00403b49 	.word	0x00403b49

004036b8 <nm_clkless_wake>:
  4036b8:	e92d 4ff0 	stmdb	sp!, {r4, r5, r6, r7, r8, r9, sl, fp, lr}
  4036bc:	b083      	sub	sp, #12
  4036be:	2001      	movs	r0, #1
  4036c0:	4b3c      	ldr	r3, [pc, #240]	; (4037b4 <nm_clkless_wake+0xfc>)
  4036c2:	4798      	blx	r3
  4036c4:	a901      	add	r1, sp, #4
  4036c6:	2001      	movs	r0, #1
  4036c8:	4b3b      	ldr	r3, [pc, #236]	; (4037b8 <nm_clkless_wake+0x100>)
  4036ca:	4798      	blx	r3
  4036cc:	4682      	mov	sl, r0
  4036ce:	b938      	cbnz	r0, 4036e0 <nm_clkless_wake+0x28>
  4036d0:	2400      	movs	r4, #0
  4036d2:	f04f 0801 	mov.w	r8, #1
  4036d6:	f8df 9108 	ldr.w	r9, [pc, #264]	; 4037e0 <nm_clkless_wake+0x128>
  4036da:	4d36      	ldr	r5, [pc, #216]	; (4037b4 <nm_clkless_wake+0xfc>)
  4036dc:	4f37      	ldr	r7, [pc, #220]	; (4037bc <nm_clkless_wake+0x104>)
  4036de:	e020      	b.n	403722 <nm_clkless_wake+0x6a>
  4036e0:	2272      	movs	r2, #114	; 0x72
  4036e2:	4937      	ldr	r1, [pc, #220]	; (4037c0 <nm_clkless_wake+0x108>)
  4036e4:	4837      	ldr	r0, [pc, #220]	; (4037c4 <nm_clkless_wake+0x10c>)
  4036e6:	4c38      	ldr	r4, [pc, #224]	; (4037c8 <nm_clkless_wake+0x110>)
  4036e8:	47a0      	blx	r4
  4036ea:	4838      	ldr	r0, [pc, #224]	; (4037cc <nm_clkless_wake+0x114>)
  4036ec:	47a0      	blx	r4
  4036ee:	4838      	ldr	r0, [pc, #224]	; (4037d0 <nm_clkless_wake+0x118>)
  4036f0:	47a0      	blx	r4
  4036f2:	e009      	b.n	403708 <nm_clkless_wake+0x50>
  4036f4:	2296      	movs	r2, #150	; 0x96
  4036f6:	4932      	ldr	r1, [pc, #200]	; (4037c0 <nm_clkless_wake+0x108>)
  4036f8:	4832      	ldr	r0, [pc, #200]	; (4037c4 <nm_clkless_wake+0x10c>)
  4036fa:	4c33      	ldr	r4, [pc, #204]	; (4037c8 <nm_clkless_wake+0x110>)
  4036fc:	47a0      	blx	r4
  4036fe:	4835      	ldr	r0, [pc, #212]	; (4037d4 <nm_clkless_wake+0x11c>)
  403700:	47a0      	blx	r4
  403702:	4833      	ldr	r0, [pc, #204]	; (4037d0 <nm_clkless_wake+0x118>)
  403704:	47a0      	blx	r4
  403706:	46b2      	mov	sl, r6
  403708:	4650      	mov	r0, sl
  40370a:	b003      	add	sp, #12
  40370c:	e8bd 8ff0 	ldmia.w	sp!, {r4, r5, r6, r7, r8, r9, sl, fp, pc}
  403710:	9901      	ldr	r1, [sp, #4]
  403712:	f041 0102 	orr.w	r1, r1, #2
  403716:	4640      	mov	r0, r8
  403718:	47c8      	blx	r9
  40371a:	9b00      	ldr	r3, [sp, #0]
  40371c:	f013 0f04 	tst.w	r3, #4
  403720:	d1f2      	bne.n	403708 <nm_clkless_wake+0x50>
  403722:	9901      	ldr	r1, [sp, #4]
  403724:	f041 0102 	orr.w	r1, r1, #2
  403728:	4640      	mov	r0, r8
  40372a:	47c8      	blx	r9
  40372c:	4640      	mov	r0, r8
  40372e:	47a8      	blx	r5
  403730:	4669      	mov	r1, sp
  403732:	4b29      	ldr	r3, [pc, #164]	; (4037d8 <nm_clkless_wake+0x120>)
  403734:	6818      	ldr	r0, [r3, #0]
  403736:	4b20      	ldr	r3, [pc, #128]	; (4037b8 <nm_clkless_wake+0x100>)
  403738:	4798      	blx	r3
  40373a:	b908      	cbnz	r0, 403740 <nm_clkless_wake+0x88>
  40373c:	9b00      	ldr	r3, [sp, #0]
  40373e:	b9bb      	cbnz	r3, 403770 <nm_clkless_wake+0xb8>
  403740:	4e25      	ldr	r6, [pc, #148]	; (4037d8 <nm_clkless_wake+0x120>)
  403742:	230e      	movs	r3, #14
  403744:	6033      	str	r3, [r6, #0]
  403746:	4640      	mov	r0, r8
  403748:	47a8      	blx	r5
  40374a:	4669      	mov	r1, sp
  40374c:	6830      	ldr	r0, [r6, #0]
  40374e:	4b1a      	ldr	r3, [pc, #104]	; (4037b8 <nm_clkless_wake+0x100>)
  403750:	4798      	blx	r3
  403752:	b908      	cbnz	r0, 403758 <nm_clkless_wake+0xa0>
  403754:	9b00      	ldr	r3, [sp, #0]
  403756:	b95b      	cbnz	r3, 403770 <nm_clkless_wake+0xb8>
  403758:	4e1f      	ldr	r6, [pc, #124]	; (4037d8 <nm_clkless_wake+0x120>)
  40375a:	2313      	movs	r3, #19
  40375c:	6033      	str	r3, [r6, #0]
  40375e:	4640      	mov	r0, r8
  403760:	47a8      	blx	r5
  403762:	4669      	mov	r1, sp
  403764:	6830      	ldr	r0, [r6, #0]
  403766:	4b14      	ldr	r3, [pc, #80]	; (4037b8 <nm_clkless_wake+0x100>)
  403768:	4798      	blx	r3
  40376a:	4606      	mov	r6, r0
  40376c:	2800      	cmp	r0, #0
  40376e:	d1c1      	bne.n	4036f4 <nm_clkless_wake+0x3c>
  403770:	4e19      	ldr	r6, [pc, #100]	; (4037d8 <nm_clkless_wake+0x120>)
  403772:	9b00      	ldr	r3, [sp, #0]
  403774:	f013 0f04 	tst.w	r3, #4
  403778:	d1c6      	bne.n	403708 <nm_clkless_wake+0x50>
  40377a:	3401      	adds	r4, #1
  40377c:	fba7 2304 	umull	r2, r3, r7, r4
  403780:	085b      	lsrs	r3, r3, #1
  403782:	eb03 0343 	add.w	r3, r3, r3, lsl #1
  403786:	429c      	cmp	r4, r3
  403788:	d1c2      	bne.n	403710 <nm_clkless_wake+0x58>
  40378a:	2002      	movs	r0, #2
  40378c:	47a8      	blx	r5
  40378e:	4669      	mov	r1, sp
  403790:	6830      	ldr	r0, [r6, #0]
  403792:	4b09      	ldr	r3, [pc, #36]	; (4037b8 <nm_clkless_wake+0x100>)
  403794:	4798      	blx	r3
  403796:	9b00      	ldr	r3, [sp, #0]
  403798:	f013 0f04 	tst.w	r3, #4
  40379c:	d1e9      	bne.n	403772 <nm_clkless_wake+0xba>
  40379e:	22aa      	movs	r2, #170	; 0xaa
  4037a0:	4907      	ldr	r1, [pc, #28]	; (4037c0 <nm_clkless_wake+0x108>)
  4037a2:	4808      	ldr	r0, [pc, #32]	; (4037c4 <nm_clkless_wake+0x10c>)
  4037a4:	f8df b020 	ldr.w	fp, [pc, #32]	; 4037c8 <nm_clkless_wake+0x110>
  4037a8:	47d8      	blx	fp
  4037aa:	480c      	ldr	r0, [pc, #48]	; (4037dc <nm_clkless_wake+0x124>)
  4037ac:	47d8      	blx	fp
  4037ae:	4808      	ldr	r0, [pc, #32]	; (4037d0 <nm_clkless_wake+0x118>)
  4037b0:	47d8      	blx	fp
  4037b2:	e7de      	b.n	403772 <nm_clkless_wake+0xba>
  4037b4:	00402469 	.word	0x00402469
  4037b8:	00403b49 	.word	0x00403b49
  4037bc:	aaaaaaab 	.word	0xaaaaaaab
  4037c0:	0040d6e8 	.word	0x0040d6e8
  4037c4:	0040d2b8 	.word	0x0040d2b8
  4037c8:	004075b5 	.word	0x004075b5
  4037cc:	0040d758 	.word	0x0040d758
  4037d0:	0040d2e4 	.word	0x0040d2e4
  4037d4:	0040d778 	.word	0x0040d778
  4037d8:	20400014 	.word	0x20400014
  4037dc:	0040d798 	.word	0x0040d798
  4037e0:	00403b55 	.word	0x00403b55

004037e4 <enable_interrupts>:
  4037e4:	b500      	push	{lr}
  4037e6:	b083      	sub	sp, #12
  4037e8:	a901      	add	r1, sp, #4
  4037ea:	f241 4008 	movw	r0, #5128	; 0x1408
  4037ee:	4b15      	ldr	r3, [pc, #84]	; (403844 <enable_interrupts+0x60>)
  4037f0:	4798      	blx	r3
  4037f2:	b9e8      	cbnz	r0, 403830 <enable_interrupts+0x4c>
  4037f4:	9901      	ldr	r1, [sp, #4]
  4037f6:	f441 7180 	orr.w	r1, r1, #256	; 0x100
  4037fa:	9101      	str	r1, [sp, #4]
  4037fc:	f241 4008 	movw	r0, #5128	; 0x1408
  403800:	4b11      	ldr	r3, [pc, #68]	; (403848 <enable_interrupts+0x64>)
  403802:	4798      	blx	r3
  403804:	b9b8      	cbnz	r0, 403836 <enable_interrupts+0x52>
  403806:	a901      	add	r1, sp, #4
  403808:	f44f 50d0 	mov.w	r0, #6656	; 0x1a00
  40380c:	4b0d      	ldr	r3, [pc, #52]	; (403844 <enable_interrupts+0x60>)
  40380e:	4798      	blx	r3
  403810:	b9a0      	cbnz	r0, 40383c <enable_interrupts+0x58>
  403812:	9901      	ldr	r1, [sp, #4]
  403814:	f441 3180 	orr.w	r1, r1, #65536	; 0x10000
  403818:	9101      	str	r1, [sp, #4]
  40381a:	f44f 50d0 	mov.w	r0, #6656	; 0x1a00
  40381e:	4b0a      	ldr	r3, [pc, #40]	; (403848 <enable_interrupts+0x64>)
  403820:	4798      	blx	r3
  403822:	2800      	cmp	r0, #0
  403824:	bf18      	it	ne
  403826:	f06f 0005 	mvnne.w	r0, #5
  40382a:	b003      	add	sp, #12
  40382c:	f85d fb04 	ldr.w	pc, [sp], #4
  403830:	f06f 0005 	mvn.w	r0, #5
  403834:	e7f9      	b.n	40382a <enable_interrupts+0x46>
  403836:	f06f 0005 	mvn.w	r0, #5
  40383a:	e7f6      	b.n	40382a <enable_interrupts+0x46>
  40383c:	f06f 0005 	mvn.w	r0, #5
  403840:	e7f3      	b.n	40382a <enable_interrupts+0x46>
  403842:	bf00      	nop
  403844:	00403b49 	.word	0x00403b49
  403848:	00403b55 	.word	0x00403b55

0040384c <nmi_get_chipid>:
  40384c:	b510      	push	{r4, lr}
  40384e:	b082      	sub	sp, #8
  403850:	4b25      	ldr	r3, [pc, #148]	; (4038e8 <nmi_get_chipid+0x9c>)
  403852:	681c      	ldr	r4, [r3, #0]
  403854:	b124      	cbz	r4, 403860 <nmi_get_chipid+0x14>
  403856:	4b24      	ldr	r3, [pc, #144]	; (4038e8 <nmi_get_chipid+0x9c>)
  403858:	681c      	ldr	r4, [r3, #0]
  40385a:	4620      	mov	r0, r4
  40385c:	b002      	add	sp, #8
  40385e:	bd10      	pop	{r4, pc}
  403860:	4619      	mov	r1, r3
  403862:	f44f 5080 	mov.w	r0, #4096	; 0x1000
  403866:	4b21      	ldr	r3, [pc, #132]	; (4038ec <nmi_get_chipid+0xa0>)
  403868:	4798      	blx	r3
  40386a:	b118      	cbz	r0, 403874 <nmi_get_chipid+0x28>
  40386c:	2200      	movs	r2, #0
  40386e:	4b1e      	ldr	r3, [pc, #120]	; (4038e8 <nmi_get_chipid+0x9c>)
  403870:	601a      	str	r2, [r3, #0]
  403872:	e7f2      	b.n	40385a <nmi_get_chipid+0xe>
  403874:	a901      	add	r1, sp, #4
  403876:	f241 30f4 	movw	r0, #5108	; 0x13f4
  40387a:	4b1c      	ldr	r3, [pc, #112]	; (4038ec <nmi_get_chipid+0xa0>)
  40387c:	4798      	blx	r3
  40387e:	b118      	cbz	r0, 403888 <nmi_get_chipid+0x3c>
  403880:	2200      	movs	r2, #0
  403882:	4b19      	ldr	r3, [pc, #100]	; (4038e8 <nmi_get_chipid+0x9c>)
  403884:	601a      	str	r2, [r3, #0]
  403886:	e7e8      	b.n	40385a <nmi_get_chipid+0xe>
  403888:	4b17      	ldr	r3, [pc, #92]	; (4038e8 <nmi_get_chipid+0x9c>)
  40388a:	681b      	ldr	r3, [r3, #0]
  40388c:	4a18      	ldr	r2, [pc, #96]	; (4038f0 <nmi_get_chipid+0xa4>)
  40388e:	4293      	cmp	r3, r2
  403890:	d00d      	beq.n	4038ae <nmi_get_chipid+0x62>
  403892:	4a18      	ldr	r2, [pc, #96]	; (4038f4 <nmi_get_chipid+0xa8>)
  403894:	4293      	cmp	r3, r2
  403896:	d011      	beq.n	4038bc <nmi_get_chipid+0x70>
  403898:	4a17      	ldr	r2, [pc, #92]	; (4038f8 <nmi_get_chipid+0xac>)
  40389a:	4293      	cmp	r3, r2
  40389c:	d018      	beq.n	4038d0 <nmi_get_chipid+0x84>
  40389e:	4a12      	ldr	r2, [pc, #72]	; (4038e8 <nmi_get_chipid+0x9c>)
  4038a0:	6813      	ldr	r3, [r2, #0]
  4038a2:	f423 2370 	bic.w	r3, r3, #983040	; 0xf0000
  4038a6:	f443 23a0 	orr.w	r3, r3, #327680	; 0x50000
  4038aa:	6013      	str	r3, [r2, #0]
  4038ac:	e7d3      	b.n	403856 <nmi_get_chipid+0xa>
  4038ae:	9b01      	ldr	r3, [sp, #4]
  4038b0:	2b01      	cmp	r3, #1
  4038b2:	d0f4      	beq.n	40389e <nmi_get_chipid+0x52>
  4038b4:	3201      	adds	r2, #1
  4038b6:	4b0c      	ldr	r3, [pc, #48]	; (4038e8 <nmi_get_chipid+0x9c>)
  4038b8:	601a      	str	r2, [r3, #0]
  4038ba:	e7f0      	b.n	40389e <nmi_get_chipid+0x52>
  4038bc:	9b01      	ldr	r3, [sp, #4]
  4038be:	2b03      	cmp	r3, #3
  4038c0:	d0ed      	beq.n	40389e <nmi_get_chipid+0x52>
  4038c2:	2b04      	cmp	r3, #4
  4038c4:	bf0c      	ite	eq
  4038c6:	3201      	addeq	r2, #1
  4038c8:	4a0c      	ldrne	r2, [pc, #48]	; (4038fc <nmi_get_chipid+0xb0>)
  4038ca:	4b07      	ldr	r3, [pc, #28]	; (4038e8 <nmi_get_chipid+0x9c>)
  4038cc:	601a      	str	r2, [r3, #0]
  4038ce:	e7e6      	b.n	40389e <nmi_get_chipid+0x52>
  4038d0:	4905      	ldr	r1, [pc, #20]	; (4038e8 <nmi_get_chipid+0x9c>)
  4038d2:	f44f 106c 	mov.w	r0, #3866624	; 0x3b0000
  4038d6:	4b05      	ldr	r3, [pc, #20]	; (4038ec <nmi_get_chipid+0xa0>)
  4038d8:	4798      	blx	r3
  4038da:	2800      	cmp	r0, #0
  4038dc:	d0df      	beq.n	40389e <nmi_get_chipid+0x52>
  4038de:	2200      	movs	r2, #0
  4038e0:	4b01      	ldr	r3, [pc, #4]	; (4038e8 <nmi_get_chipid+0x9c>)
  4038e2:	601a      	str	r2, [r3, #0]
  4038e4:	e7b9      	b.n	40385a <nmi_get_chipid+0xe>
  4038e6:	bf00      	nop
  4038e8:	2040c364 	.word	0x2040c364
  4038ec:	00403b49 	.word	0x00403b49
  4038f0:	001002a0 	.word	0x001002a0
  4038f4:	001002b0 	.word	0x001002b0
  4038f8:	001000f0 	.word	0x001000f0
  4038fc:	001002b2 	.word	0x001002b2

00403900 <wait_for_bootrom>:
  403900:	e92d 41f0 	stmdb	sp!, {r4, r5, r6, r7, r8, lr}
  403904:	4607      	mov	r7, r0
  403906:	f241 0514 	movw	r5, #4116	; 0x1014
  40390a:	4c28      	ldr	r4, [pc, #160]	; (4039ac <wait_for_bootrom+0xac>)
  40390c:	4e28      	ldr	r6, [pc, #160]	; (4039b0 <wait_for_bootrom+0xb0>)
  40390e:	4628      	mov	r0, r5
  403910:	47a0      	blx	r4
  403912:	2800      	cmp	r0, #0
  403914:	db02      	blt.n	40391c <wait_for_bootrom+0x1c>
  403916:	2001      	movs	r0, #1
  403918:	47b0      	blx	r6
  40391a:	e7f8      	b.n	40390e <wait_for_bootrom+0xe>
  40391c:	4825      	ldr	r0, [pc, #148]	; (4039b4 <wait_for_bootrom+0xb4>)
  40391e:	4b23      	ldr	r3, [pc, #140]	; (4039ac <wait_for_bootrom+0xac>)
  403920:	4798      	blx	r3
  403922:	f010 0f01 	tst.w	r0, #1
  403926:	d110      	bne.n	40394a <wait_for_bootrom+0x4a>
  403928:	f8df 8084 	ldr.w	r8, [pc, #132]	; 4039b0 <wait_for_bootrom+0xb0>
  40392c:	4e1f      	ldr	r6, [pc, #124]	; (4039ac <wait_for_bootrom+0xac>)
  40392e:	4d22      	ldr	r5, [pc, #136]	; (4039b8 <wait_for_bootrom+0xb8>)
  403930:	2001      	movs	r0, #1
  403932:	47c0      	blx	r8
  403934:	f04f 100c 	mov.w	r0, #786444	; 0xc000c
  403938:	47b0      	blx	r6
  40393a:	4604      	mov	r4, r0
  40393c:	462a      	mov	r2, r5
  40393e:	4601      	mov	r1, r0
  403940:	481e      	ldr	r0, [pc, #120]	; (4039bc <wait_for_bootrom+0xbc>)
  403942:	4b1f      	ldr	r3, [pc, #124]	; (4039c0 <wait_for_bootrom+0xc0>)
  403944:	4798      	blx	r3
  403946:	42ac      	cmp	r4, r5
  403948:	d1f2      	bne.n	403930 <wait_for_bootrom+0x30>
  40394a:	2f02      	cmp	r7, #2
  40394c:	d019      	beq.n	403982 <wait_for_bootrom+0x82>
  40394e:	2f03      	cmp	r7, #3
  403950:	d022      	beq.n	403998 <wait_for_bootrom+0x98>
  403952:	2f04      	cmp	r7, #4
  403954:	bf14      	ite	ne
  403956:	2400      	movne	r4, #0
  403958:	2480      	moveq	r4, #128	; 0x80
  40395a:	4b1a      	ldr	r3, [pc, #104]	; (4039c4 <wait_for_bootrom+0xc4>)
  40395c:	4798      	blx	r3
  40395e:	f3c0 000b 	ubfx	r0, r0, #0, #12
  403962:	f5b0 7f68 	cmp.w	r0, #928	; 0x3a0
  403966:	bf0c      	ite	eq
  403968:	f044 0002 	orreq.w	r0, r4, #2
  40396c:	4620      	movne	r0, r4
  40396e:	4b16      	ldr	r3, [pc, #88]	; (4039c8 <wait_for_bootrom+0xc8>)
  403970:	4798      	blx	r3
  403972:	4916      	ldr	r1, [pc, #88]	; (4039cc <wait_for_bootrom+0xcc>)
  403974:	f04f 100c 	mov.w	r0, #786444	; 0xc000c
  403978:	4b15      	ldr	r3, [pc, #84]	; (4039d0 <wait_for_bootrom+0xd0>)
  40397a:	4798      	blx	r3
  40397c:	2000      	movs	r0, #0
  40397e:	e8bd 81f0 	ldmia.w	sp!, {r4, r5, r6, r7, r8, pc}
  403982:	4914      	ldr	r1, [pc, #80]	; (4039d4 <wait_for_bootrom+0xd4>)
  403984:	4814      	ldr	r0, [pc, #80]	; (4039d8 <wait_for_bootrom+0xd8>)
  403986:	4c12      	ldr	r4, [pc, #72]	; (4039d0 <wait_for_bootrom+0xd0>)
  403988:	47a0      	blx	r4
  40398a:	f44f 1180 	mov.w	r1, #1048576	; 0x100000
  40398e:	f241 008c 	movw	r0, #4236	; 0x108c
  403992:	47a0      	blx	r4
  403994:	2400      	movs	r4, #0
  403996:	e7e0      	b.n	40395a <wait_for_bootrom+0x5a>
  403998:	490e      	ldr	r1, [pc, #56]	; (4039d4 <wait_for_bootrom+0xd4>)
  40399a:	480f      	ldr	r0, [pc, #60]	; (4039d8 <wait_for_bootrom+0xd8>)
  40399c:	4c0c      	ldr	r4, [pc, #48]	; (4039d0 <wait_for_bootrom+0xd0>)
  40399e:	47a0      	blx	r4
  4039a0:	2100      	movs	r1, #0
  4039a2:	f241 008c 	movw	r0, #4236	; 0x108c
  4039a6:	47a0      	blx	r4
  4039a8:	2400      	movs	r4, #0
  4039aa:	e7d6      	b.n	40395a <wait_for_bootrom+0x5a>
  4039ac:	00403b3d 	.word	0x00403b3d
  4039b0:	00402469 	.word	0x00402469
  4039b4:	000207bc 	.word	0x000207bc
  4039b8:	10add09e 	.word	0x10add09e
  4039bc:	0040d7bc 	.word	0x0040d7bc
  4039c0:	004075b5 	.word	0x004075b5
  4039c4:	0040384d 	.word	0x0040384d
  4039c8:	0040367d 	.word	0x0040367d
  4039cc:	ef522f61 	.word	0xef522f61
  4039d0:	00403b55 	.word	0x00403b55
  4039d4:	3c1cd57d 	.word	0x3c1cd57d
  4039d8:	000207ac 	.word	0x000207ac

004039dc <wait_for_firmware_start>:
  4039dc:	b5f0      	push	{r4, r5, r6, r7, lr}
  4039de:	b083      	sub	sp, #12
  4039e0:	f241 038c 	movw	r3, #4236	; 0x108c
  4039e4:	9301      	str	r3, [sp, #4]
  4039e6:	4b18      	ldr	r3, [pc, #96]	; (403a48 <wait_for_firmware_start+0x6c>)
  4039e8:	9300      	str	r3, [sp, #0]
  4039ea:	3802      	subs	r0, #2
  4039ec:	b2c0      	uxtb	r0, r0
  4039ee:	2801      	cmp	r0, #1
  4039f0:	d911      	bls.n	403a16 <wait_for_firmware_start+0x3a>
  4039f2:	f04f 34ff 	mov.w	r4, #4294967295
  4039f6:	2000      	movs	r0, #0
  4039f8:	2702      	movs	r7, #2
  4039fa:	4e14      	ldr	r6, [pc, #80]	; (403a4c <wait_for_firmware_start+0x70>)
  4039fc:	4d14      	ldr	r5, [pc, #80]	; (403a50 <wait_for_firmware_start+0x74>)
  4039fe:	9b00      	ldr	r3, [sp, #0]
  403a00:	4298      	cmp	r0, r3
  403a02:	d012      	beq.n	403a2a <wait_for_firmware_start+0x4e>
  403a04:	4638      	mov	r0, r7
  403a06:	47b0      	blx	r6
  403a08:	9801      	ldr	r0, [sp, #4]
  403a0a:	47a8      	blx	r5
  403a0c:	3c01      	subs	r4, #1
  403a0e:	d1f6      	bne.n	4039fe <wait_for_firmware_start+0x22>
  403a10:	f06f 0004 	mvn.w	r0, #4
  403a14:	e00e      	b.n	403a34 <wait_for_firmware_start+0x58>
  403a16:	4b0f      	ldr	r3, [pc, #60]	; (403a54 <wait_for_firmware_start+0x78>)
  403a18:	9301      	str	r3, [sp, #4]
  403a1a:	f1a3 5322 	sub.w	r3, r3, #679477248	; 0x28800000
  403a1e:	f5a3 1311 	sub.w	r3, r3, #2375680	; 0x244000
  403a22:	f2a3 53e9 	subw	r3, r3, #1513	; 0x5e9
  403a26:	9300      	str	r3, [sp, #0]
  403a28:	e7e3      	b.n	4039f2 <wait_for_firmware_start+0x16>
  403a2a:	9a00      	ldr	r2, [sp, #0]
  403a2c:	4b06      	ldr	r3, [pc, #24]	; (403a48 <wait_for_firmware_start+0x6c>)
  403a2e:	429a      	cmp	r2, r3
  403a30:	d002      	beq.n	403a38 <wait_for_firmware_start+0x5c>
  403a32:	2000      	movs	r0, #0
  403a34:	b003      	add	sp, #12
  403a36:	bdf0      	pop	{r4, r5, r6, r7, pc}
  403a38:	2100      	movs	r1, #0
  403a3a:	f241 008c 	movw	r0, #4236	; 0x108c
  403a3e:	4b06      	ldr	r3, [pc, #24]	; (403a58 <wait_for_firmware_start+0x7c>)
  403a40:	4798      	blx	r3
  403a42:	2000      	movs	r0, #0
  403a44:	e7f6      	b.n	403a34 <wait_for_firmware_start+0x58>
  403a46:	bf00      	nop
  403a48:	02532636 	.word	0x02532636
  403a4c:	00402469 	.word	0x00402469
  403a50:	00403b3d 	.word	0x00403b3d
  403a54:	000207ac 	.word	0x000207ac
  403a58:	00403b55 	.word	0x00403b55

00403a5c <chip_deinit>:
  403a5c:	b5f0      	push	{r4, r5, r6, r7, lr}
  403a5e:	b083      	sub	sp, #12
  403a60:	a902      	add	r1, sp, #8
  403a62:	2300      	movs	r3, #0
  403a64:	f841 3d04 	str.w	r3, [r1, #-4]!
  403a68:	f44f 50a0 	mov.w	r0, #5120	; 0x1400
  403a6c:	4b24      	ldr	r3, [pc, #144]	; (403b00 <chip_deinit+0xa4>)
  403a6e:	4798      	blx	r3
  403a70:	bb20      	cbnz	r0, 403abc <chip_deinit+0x60>
  403a72:	9901      	ldr	r1, [sp, #4]
  403a74:	f421 6180 	bic.w	r1, r1, #1024	; 0x400
  403a78:	9101      	str	r1, [sp, #4]
  403a7a:	f44f 50a0 	mov.w	r0, #5120	; 0x1400
  403a7e:	4b21      	ldr	r3, [pc, #132]	; (403b04 <chip_deinit+0xa8>)
  403a80:	4798      	blx	r3
  403a82:	4605      	mov	r5, r0
  403a84:	bb28      	cbnz	r0, 403ad2 <chip_deinit+0x76>
  403a86:	240a      	movs	r4, #10
  403a88:	4e1d      	ldr	r6, [pc, #116]	; (403b00 <chip_deinit+0xa4>)
  403a8a:	4f1e      	ldr	r7, [pc, #120]	; (403b04 <chip_deinit+0xa8>)
  403a8c:	a901      	add	r1, sp, #4
  403a8e:	f44f 50a0 	mov.w	r0, #5120	; 0x1400
  403a92:	47b0      	blx	r6
  403a94:	4605      	mov	r5, r0
  403a96:	bb38      	cbnz	r0, 403ae8 <chip_deinit+0x8c>
  403a98:	9901      	ldr	r1, [sp, #4]
  403a9a:	f411 6f80 	tst.w	r1, #1024	; 0x400
  403a9e:	d00a      	beq.n	403ab6 <chip_deinit+0x5a>
  403aa0:	f421 6180 	bic.w	r1, r1, #1024	; 0x400
  403aa4:	9101      	str	r1, [sp, #4]
  403aa6:	f44f 50a0 	mov.w	r0, #5120	; 0x1400
  403aaa:	47b8      	blx	r7
  403aac:	4605      	mov	r5, r0
  403aae:	1e63      	subs	r3, r4, #1
  403ab0:	f013 04ff 	ands.w	r4, r3, #255	; 0xff
  403ab4:	d1ea      	bne.n	403a8c <chip_deinit+0x30>
  403ab6:	4628      	mov	r0, r5
  403ab8:	b003      	add	sp, #12
  403aba:	bdf0      	pop	{r4, r5, r6, r7, pc}
  403abc:	f240 2231 	movw	r2, #561	; 0x231
  403ac0:	4911      	ldr	r1, [pc, #68]	; (403b08 <chip_deinit+0xac>)
  403ac2:	4812      	ldr	r0, [pc, #72]	; (403b0c <chip_deinit+0xb0>)
  403ac4:	4c12      	ldr	r4, [pc, #72]	; (403b10 <chip_deinit+0xb4>)
  403ac6:	47a0      	blx	r4
  403ac8:	4812      	ldr	r0, [pc, #72]	; (403b14 <chip_deinit+0xb8>)
  403aca:	47a0      	blx	r4
  403acc:	4812      	ldr	r0, [pc, #72]	; (403b18 <chip_deinit+0xbc>)
  403ace:	47a0      	blx	r4
  403ad0:	e7cf      	b.n	403a72 <chip_deinit+0x16>
  403ad2:	f240 2237 	movw	r2, #567	; 0x237
  403ad6:	490c      	ldr	r1, [pc, #48]	; (403b08 <chip_deinit+0xac>)
  403ad8:	480c      	ldr	r0, [pc, #48]	; (403b0c <chip_deinit+0xb0>)
  403ada:	4c0d      	ldr	r4, [pc, #52]	; (403b10 <chip_deinit+0xb4>)
  403adc:	47a0      	blx	r4
  403ade:	480f      	ldr	r0, [pc, #60]	; (403b1c <chip_deinit+0xc0>)
  403ae0:	47a0      	blx	r4
  403ae2:	480d      	ldr	r0, [pc, #52]	; (403b18 <chip_deinit+0xbc>)
  403ae4:	47a0      	blx	r4
  403ae6:	e7e6      	b.n	403ab6 <chip_deinit+0x5a>
  403ae8:	f240 223e 	movw	r2, #574	; 0x23e
  403aec:	4906      	ldr	r1, [pc, #24]	; (403b08 <chip_deinit+0xac>)
  403aee:	4807      	ldr	r0, [pc, #28]	; (403b0c <chip_deinit+0xb0>)
  403af0:	4c07      	ldr	r4, [pc, #28]	; (403b10 <chip_deinit+0xb4>)
  403af2:	47a0      	blx	r4
  403af4:	480a      	ldr	r0, [pc, #40]	; (403b20 <chip_deinit+0xc4>)
  403af6:	47a0      	blx	r4
  403af8:	4807      	ldr	r0, [pc, #28]	; (403b18 <chip_deinit+0xbc>)
  403afa:	47a0      	blx	r4
  403afc:	e7db      	b.n	403ab6 <chip_deinit+0x5a>
  403afe:	bf00      	nop
  403b00:	00403b49 	.word	0x00403b49
  403b04:	00403b55 	.word	0x00403b55
  403b08:	0040d6f8 	.word	0x0040d6f8
  403b0c:	0040d2b8 	.word	0x0040d2b8
  403b10:	004075b5 	.word	0x004075b5
  403b14:	0040d704 	.word	0x0040d704
  403b18:	0040d2e4 	.word	0x0040d2e4
  403b1c:	0040d720 	.word	0x0040d720
  403b20:	0040d73c 	.word	0x0040d73c

00403b24 <nm_bus_iface_init>:
  403b24:	b508      	push	{r3, lr}
  403b26:	4b01      	ldr	r3, [pc, #4]	; (403b2c <nm_bus_iface_init+0x8>)
  403b28:	4798      	blx	r3
  403b2a:	bd08      	pop	{r3, pc}
  403b2c:	004025dd 	.word	0x004025dd

00403b30 <nm_bus_iface_deinit>:
  403b30:	b508      	push	{r3, lr}
  403b32:	4b01      	ldr	r3, [pc, #4]	; (403b38 <nm_bus_iface_deinit+0x8>)
  403b34:	4798      	blx	r3
  403b36:	bd08      	pop	{r3, pc}
  403b38:	004027cd 	.word	0x004027cd

00403b3c <nm_read_reg>:
  403b3c:	b508      	push	{r3, lr}
  403b3e:	4b01      	ldr	r3, [pc, #4]	; (403b44 <nm_read_reg+0x8>)
  403b40:	4798      	blx	r3
  403b42:	bd08      	pop	{r3, pc}
  403b44:	00404391 	.word	0x00404391

00403b48 <nm_read_reg_with_ret>:
  403b48:	b508      	push	{r3, lr}
  403b4a:	4b01      	ldr	r3, [pc, #4]	; (403b50 <nm_read_reg_with_ret+0x8>)
  403b4c:	4798      	blx	r3
  403b4e:	bd08      	pop	{r3, pc}
  403b50:	004043a9 	.word	0x004043a9

00403b54 <nm_write_reg>:
  403b54:	b508      	push	{r3, lr}
  403b56:	4b01      	ldr	r3, [pc, #4]	; (403b5c <nm_write_reg+0x8>)
  403b58:	4798      	blx	r3
  403b5a:	bd08      	pop	{r3, pc}
  403b5c:	004043c1 	.word	0x004043c1

00403b60 <nm_read_block>:
  403b60:	e92d 47f0 	stmdb	sp!, {r4, r5, r6, r7, r8, r9, sl, lr}
  403b64:	4607      	mov	r7, r0
  403b66:	4689      	mov	r9, r1
  403b68:	4615      	mov	r5, r2
  403b6a:	4b12      	ldr	r3, [pc, #72]	; (403bb4 <nm_read_block+0x54>)
  403b6c:	f8b3 8000 	ldrh.w	r8, [r3]
  403b70:	f1a8 0808 	sub.w	r8, r8, #8
  403b74:	fa1f f888 	uxth.w	r8, r8
  403b78:	4542      	cmp	r2, r8
  403b7a:	d919      	bls.n	403bb0 <nm_read_block+0x50>
  403b7c:	4644      	mov	r4, r8
  403b7e:	2600      	movs	r6, #0
  403b80:	f8df a034 	ldr.w	sl, [pc, #52]	; 403bb8 <nm_read_block+0x58>
  403b84:	4642      	mov	r2, r8
  403b86:	eb09 0106 	add.w	r1, r9, r6
  403b8a:	4638      	mov	r0, r7
  403b8c:	47d0      	blx	sl
  403b8e:	4603      	mov	r3, r0
  403b90:	b958      	cbnz	r0, 403baa <nm_read_block+0x4a>
  403b92:	1b2d      	subs	r5, r5, r4
  403b94:	4426      	add	r6, r4
  403b96:	4427      	add	r7, r4
  403b98:	42a5      	cmp	r5, r4
  403b9a:	d8f3      	bhi.n	403b84 <nm_read_block+0x24>
  403b9c:	b2aa      	uxth	r2, r5
  403b9e:	eb09 0106 	add.w	r1, r9, r6
  403ba2:	4638      	mov	r0, r7
  403ba4:	4b04      	ldr	r3, [pc, #16]	; (403bb8 <nm_read_block+0x58>)
  403ba6:	4798      	blx	r3
  403ba8:	4603      	mov	r3, r0
  403baa:	4618      	mov	r0, r3
  403bac:	e8bd 87f0 	ldmia.w	sp!, {r4, r5, r6, r7, r8, r9, sl, pc}
  403bb0:	2600      	movs	r6, #0
  403bb2:	e7f3      	b.n	403b9c <nm_read_block+0x3c>
  403bb4:	20400010 	.word	0x20400010
  403bb8:	004044ed 	.word	0x004044ed

00403bbc <nm_write_block>:
  403bbc:	e92d 47f0 	stmdb	sp!, {r4, r5, r6, r7, r8, r9, sl, lr}
  403bc0:	4607      	mov	r7, r0
  403bc2:	4689      	mov	r9, r1
  403bc4:	4615      	mov	r5, r2
  403bc6:	4b12      	ldr	r3, [pc, #72]	; (403c10 <nm_write_block+0x54>)
  403bc8:	f8b3 8000 	ldrh.w	r8, [r3]
  403bcc:	f1a8 0808 	sub.w	r8, r8, #8
  403bd0:	fa1f f888 	uxth.w	r8, r8
  403bd4:	4542      	cmp	r2, r8
  403bd6:	d919      	bls.n	403c0c <nm_write_block+0x50>
  403bd8:	4644      	mov	r4, r8
  403bda:	2600      	movs	r6, #0
  403bdc:	f8df a034 	ldr.w	sl, [pc, #52]	; 403c14 <nm_write_block+0x58>
  403be0:	4642      	mov	r2, r8
  403be2:	eb09 0106 	add.w	r1, r9, r6
  403be6:	4638      	mov	r0, r7
  403be8:	47d0      	blx	sl
  403bea:	4603      	mov	r3, r0
  403bec:	b958      	cbnz	r0, 403c06 <nm_write_block+0x4a>
  403bee:	1b2d      	subs	r5, r5, r4
  403bf0:	4426      	add	r6, r4
  403bf2:	4427      	add	r7, r4
  403bf4:	42a5      	cmp	r5, r4
  403bf6:	d8f3      	bhi.n	403be0 <nm_write_block+0x24>
  403bf8:	b2aa      	uxth	r2, r5
  403bfa:	eb09 0106 	add.w	r1, r9, r6
  403bfe:	4638      	mov	r0, r7
  403c00:	4b04      	ldr	r3, [pc, #16]	; (403c14 <nm_write_block+0x58>)
  403c02:	4798      	blx	r3
  403c04:	4603      	mov	r3, r0
  403c06:	4618      	mov	r0, r3
  403c08:	e8bd 87f0 	ldmia.w	sp!, {r4, r5, r6, r7, r8, r9, sl, pc}
  403c0c:	2600      	movs	r6, #0
  403c0e:	e7f3      	b.n	403bf8 <nm_write_block+0x3c>
  403c10:	20400010 	.word	0x20400010
  403c14:	004045b5 	.word	0x004045b5

00403c18 <nm_get_firmware_info>:
  403c18:	b530      	push	{r4, r5, lr}
  403c1a:	b083      	sub	sp, #12
  403c1c:	4604      	mov	r4, r0
  403c1e:	a902      	add	r1, sp, #8
  403c20:	2300      	movs	r3, #0
  403c22:	f841 3d04 	str.w	r3, [r1, #-4]!
  403c26:	4824      	ldr	r0, [pc, #144]	; (403cb8 <nm_get_firmware_info+0xa0>)
  403c28:	4b24      	ldr	r3, [pc, #144]	; (403cbc <nm_get_firmware_info+0xa4>)
  403c2a:	4798      	blx	r3
  403c2c:	4605      	mov	r5, r0
  403c2e:	9a01      	ldr	r2, [sp, #4]
  403c30:	4b23      	ldr	r3, [pc, #140]	; (403cc0 <nm_get_firmware_info+0xa8>)
  403c32:	429a      	cmp	r2, r3
  403c34:	d039      	beq.n	403caa <nm_get_firmware_info+0x92>
  403c36:	9b01      	ldr	r3, [sp, #4]
  403c38:	0c1a      	lsrs	r2, r3, #16
  403c3a:	b291      	uxth	r1, r2
  403c3c:	0a08      	lsrs	r0, r1, #8
  403c3e:	71e0      	strb	r0, [r4, #7]
  403c40:	f3c1 1103 	ubfx	r1, r1, #4, #4
  403c44:	7221      	strb	r1, [r4, #8]
  403c46:	f002 020f 	and.w	r2, r2, #15
  403c4a:	7262      	strb	r2, [r4, #9]
  403c4c:	b29a      	uxth	r2, r3
  403c4e:	0a11      	lsrs	r1, r2, #8
  403c50:	7121      	strb	r1, [r4, #4]
  403c52:	f3c2 1203 	ubfx	r2, r2, #4, #4
  403c56:	7162      	strb	r2, [r4, #5]
  403c58:	f003 030f 	and.w	r3, r3, #15
  403c5c:	71a3      	strb	r3, [r4, #6]
  403c5e:	4b19      	ldr	r3, [pc, #100]	; (403cc4 <nm_get_firmware_info+0xac>)
  403c60:	4798      	blx	r3
  403c62:	6020      	str	r0, [r4, #0]
  403c64:	7922      	ldrb	r2, [r4, #4]
  403c66:	79a3      	ldrb	r3, [r4, #6]
  403c68:	f003 030f 	and.w	r3, r3, #15
  403c6c:	ea43 2302 	orr.w	r3, r3, r2, lsl #8
  403c70:	7962      	ldrb	r2, [r4, #5]
  403c72:	0112      	lsls	r2, r2, #4
  403c74:	b2d2      	uxtb	r2, r2
  403c76:	4313      	orrs	r3, r2
  403c78:	79e1      	ldrb	r1, [r4, #7]
  403c7a:	7a62      	ldrb	r2, [r4, #9]
  403c7c:	f002 020f 	and.w	r2, r2, #15
  403c80:	ea42 2201 	orr.w	r2, r2, r1, lsl #8
  403c84:	7a21      	ldrb	r1, [r4, #8]
  403c86:	0109      	lsls	r1, r1, #4
  403c88:	b2c9      	uxtb	r1, r1
  403c8a:	430a      	orrs	r2, r1
  403c8c:	f241 3130 	movw	r1, #4912	; 0x1330
  403c90:	428a      	cmp	r2, r1
  403c92:	bf88      	it	hi
  403c94:	f06f 050c 	mvnhi.w	r5, #12
  403c98:	f241 322f 	movw	r2, #4911	; 0x132f
  403c9c:	4293      	cmp	r3, r2
  403c9e:	bf8c      	ite	hi
  403ca0:	4628      	movhi	r0, r5
  403ca2:	f06f 000c 	mvnls.w	r0, #12
  403ca6:	b003      	add	sp, #12
  403ca8:	bd30      	pop	{r4, r5, pc}
  403caa:	a901      	add	r1, sp, #4
  403cac:	f241 0048 	movw	r0, #4168	; 0x1048
  403cb0:	4b02      	ldr	r3, [pc, #8]	; (403cbc <nm_get_firmware_info+0xa4>)
  403cb2:	4798      	blx	r3
  403cb4:	4605      	mov	r5, r0
  403cb6:	e7be      	b.n	403c36 <nm_get_firmware_info+0x1e>
  403cb8:	000207ac 	.word	0x000207ac
  403cbc:	00403b49 	.word	0x00403b49
  403cc0:	d75dc1c3 	.word	0xd75dc1c3
  403cc4:	0040384d 	.word	0x0040384d

00403cc8 <nm_drv_init>:
  403cc8:	b538      	push	{r3, r4, r5, lr}
  403cca:	2800      	cmp	r0, #0
  403ccc:	d037      	beq.n	403d3e <nm_drv_init+0x76>
  403cce:	7804      	ldrb	r4, [r0, #0]
  403cd0:	1e63      	subs	r3, r4, #1
  403cd2:	b2db      	uxtb	r3, r3
  403cd4:	2b04      	cmp	r3, #4
  403cd6:	bf28      	it	cs
  403cd8:	2401      	movcs	r4, #1
  403cda:	2000      	movs	r0, #0
  403cdc:	4b1e      	ldr	r3, [pc, #120]	; (403d58 <nm_drv_init+0x90>)
  403cde:	4798      	blx	r3
  403ce0:	4605      	mov	r5, r0
  403ce2:	2800      	cmp	r0, #0
  403ce4:	d12d      	bne.n	403d42 <nm_drv_init+0x7a>
  403ce6:	481d      	ldr	r0, [pc, #116]	; (403d5c <nm_drv_init+0x94>)
  403ce8:	4d1d      	ldr	r5, [pc, #116]	; (403d60 <nm_drv_init+0x98>)
  403cea:	47a8      	blx	r5
  403cec:	4b1d      	ldr	r3, [pc, #116]	; (403d64 <nm_drv_init+0x9c>)
  403cee:	4798      	blx	r3
  403cf0:	4601      	mov	r1, r0
  403cf2:	481d      	ldr	r0, [pc, #116]	; (403d68 <nm_drv_init+0xa0>)
  403cf4:	47a8      	blx	r5
  403cf6:	481d      	ldr	r0, [pc, #116]	; (403d6c <nm_drv_init+0xa4>)
  403cf8:	47a8      	blx	r5
  403cfa:	4b1d      	ldr	r3, [pc, #116]	; (403d70 <nm_drv_init+0xa8>)
  403cfc:	4798      	blx	r3
  403cfe:	4620      	mov	r0, r4
  403d00:	4b1c      	ldr	r3, [pc, #112]	; (403d74 <nm_drv_init+0xac>)
  403d02:	4798      	blx	r3
  403d04:	4605      	mov	r5, r0
  403d06:	b9b0      	cbnz	r0, 403d36 <nm_drv_init+0x6e>
  403d08:	4620      	mov	r0, r4
  403d0a:	4b1b      	ldr	r3, [pc, #108]	; (403d78 <nm_drv_init+0xb0>)
  403d0c:	4798      	blx	r3
  403d0e:	4605      	mov	r5, r0
  403d10:	b988      	cbnz	r0, 403d36 <nm_drv_init+0x6e>
  403d12:	3c02      	subs	r4, #2
  403d14:	b2e4      	uxtb	r4, r4
  403d16:	2c01      	cmp	r4, #1
  403d18:	d90f      	bls.n	403d3a <nm_drv_init+0x72>
  403d1a:	4b18      	ldr	r3, [pc, #96]	; (403d7c <nm_drv_init+0xb4>)
  403d1c:	4798      	blx	r3
  403d1e:	4605      	mov	r5, r0
  403d20:	b158      	cbz	r0, 403d3a <nm_drv_init+0x72>
  403d22:	f44f 72ae 	mov.w	r2, #348	; 0x15c
  403d26:	4916      	ldr	r1, [pc, #88]	; (403d80 <nm_drv_init+0xb8>)
  403d28:	4816      	ldr	r0, [pc, #88]	; (403d84 <nm_drv_init+0xbc>)
  403d2a:	4c0d      	ldr	r4, [pc, #52]	; (403d60 <nm_drv_init+0x98>)
  403d2c:	47a0      	blx	r4
  403d2e:	4816      	ldr	r0, [pc, #88]	; (403d88 <nm_drv_init+0xc0>)
  403d30:	47a0      	blx	r4
  403d32:	480e      	ldr	r0, [pc, #56]	; (403d6c <nm_drv_init+0xa4>)
  403d34:	47a0      	blx	r4
  403d36:	4b15      	ldr	r3, [pc, #84]	; (403d8c <nm_drv_init+0xc4>)
  403d38:	4798      	blx	r3
  403d3a:	4628      	mov	r0, r5
  403d3c:	bd38      	pop	{r3, r4, r5, pc}
  403d3e:	2401      	movs	r4, #1
  403d40:	e7cb      	b.n	403cda <nm_drv_init+0x12>
  403d42:	f44f 7292 	mov.w	r2, #292	; 0x124
  403d46:	490e      	ldr	r1, [pc, #56]	; (403d80 <nm_drv_init+0xb8>)
  403d48:	480e      	ldr	r0, [pc, #56]	; (403d84 <nm_drv_init+0xbc>)
  403d4a:	4c05      	ldr	r4, [pc, #20]	; (403d60 <nm_drv_init+0x98>)
  403d4c:	47a0      	blx	r4
  403d4e:	4810      	ldr	r0, [pc, #64]	; (403d90 <nm_drv_init+0xc8>)
  403d50:	47a0      	blx	r4
  403d52:	4806      	ldr	r0, [pc, #24]	; (403d6c <nm_drv_init+0xa4>)
  403d54:	47a0      	blx	r4
  403d56:	e7f0      	b.n	403d3a <nm_drv_init+0x72>
  403d58:	00403b25 	.word	0x00403b25
  403d5c:	0040d58c 	.word	0x0040d58c
  403d60:	004075b5 	.word	0x004075b5
  403d64:	0040384d 	.word	0x0040384d
  403d68:	0040d884 	.word	0x0040d884
  403d6c:	0040d2e4 	.word	0x0040d2e4
  403d70:	004043d9 	.word	0x004043d9
  403d74:	00403901 	.word	0x00403901
  403d78:	004039dd 	.word	0x004039dd
  403d7c:	004037e5 	.word	0x004037e5
  403d80:	0040d7cc 	.word	0x0040d7cc
  403d84:	0040d2b8 	.word	0x0040d2b8
  403d88:	0040d848 	.word	0x0040d848
  403d8c:	00403b31 	.word	0x00403b31
  403d90:	0040d868 	.word	0x0040d868

00403d94 <nm_drv_deinit>:
  403d94:	b538      	push	{r3, r4, r5, lr}
  403d96:	4b19      	ldr	r3, [pc, #100]	; (403dfc <nm_drv_deinit+0x68>)
  403d98:	4798      	blx	r3
  403d9a:	b958      	cbnz	r0, 403db4 <nm_drv_deinit+0x20>
  403d9c:	2000      	movs	r0, #0
  403d9e:	4b18      	ldr	r3, [pc, #96]	; (403e00 <nm_drv_deinit+0x6c>)
  403da0:	4798      	blx	r3
  403da2:	4604      	mov	r4, r0
  403da4:	b998      	cbnz	r0, 403dce <nm_drv_deinit+0x3a>
  403da6:	4b17      	ldr	r3, [pc, #92]	; (403e04 <nm_drv_deinit+0x70>)
  403da8:	4798      	blx	r3
  403daa:	4604      	mov	r4, r0
  403dac:	b9d0      	cbnz	r0, 403de4 <nm_drv_deinit+0x50>
  403dae:	4b16      	ldr	r3, [pc, #88]	; (403e08 <nm_drv_deinit+0x74>)
  403db0:	4798      	blx	r3
  403db2:	e00a      	b.n	403dca <nm_drv_deinit+0x36>
  403db4:	4604      	mov	r4, r0
  403db6:	f44f 72ba 	mov.w	r2, #372	; 0x174
  403dba:	4914      	ldr	r1, [pc, #80]	; (403e0c <nm_drv_deinit+0x78>)
  403dbc:	4814      	ldr	r0, [pc, #80]	; (403e10 <nm_drv_deinit+0x7c>)
  403dbe:	4d15      	ldr	r5, [pc, #84]	; (403e14 <nm_drv_deinit+0x80>)
  403dc0:	47a8      	blx	r5
  403dc2:	4815      	ldr	r0, [pc, #84]	; (403e18 <nm_drv_deinit+0x84>)
  403dc4:	47a8      	blx	r5
  403dc6:	4815      	ldr	r0, [pc, #84]	; (403e1c <nm_drv_deinit+0x88>)
  403dc8:	47a8      	blx	r5
  403dca:	4620      	mov	r0, r4
  403dcc:	bd38      	pop	{r3, r4, r5, pc}
  403dce:	f240 127b 	movw	r2, #379	; 0x17b
  403dd2:	490e      	ldr	r1, [pc, #56]	; (403e0c <nm_drv_deinit+0x78>)
  403dd4:	480e      	ldr	r0, [pc, #56]	; (403e10 <nm_drv_deinit+0x7c>)
  403dd6:	4d0f      	ldr	r5, [pc, #60]	; (403e14 <nm_drv_deinit+0x80>)
  403dd8:	47a8      	blx	r5
  403dda:	4811      	ldr	r0, [pc, #68]	; (403e20 <nm_drv_deinit+0x8c>)
  403ddc:	47a8      	blx	r5
  403dde:	480f      	ldr	r0, [pc, #60]	; (403e1c <nm_drv_deinit+0x88>)
  403de0:	47a8      	blx	r5
  403de2:	e7f2      	b.n	403dca <nm_drv_deinit+0x36>
  403de4:	f240 1281 	movw	r2, #385	; 0x181
  403de8:	4908      	ldr	r1, [pc, #32]	; (403e0c <nm_drv_deinit+0x78>)
  403dea:	4809      	ldr	r0, [pc, #36]	; (403e10 <nm_drv_deinit+0x7c>)
  403dec:	4d09      	ldr	r5, [pc, #36]	; (403e14 <nm_drv_deinit+0x80>)
  403dee:	47a8      	blx	r5
  403df0:	480c      	ldr	r0, [pc, #48]	; (403e24 <nm_drv_deinit+0x90>)
  403df2:	47a8      	blx	r5
  403df4:	4809      	ldr	r0, [pc, #36]	; (403e1c <nm_drv_deinit+0x88>)
  403df6:	47a8      	blx	r5
  403df8:	e7e7      	b.n	403dca <nm_drv_deinit+0x36>
  403dfa:	bf00      	nop
  403dfc:	00403a5d 	.word	0x00403a5d
  403e00:	00404e39 	.word	0x00404e39
  403e04:	00403b31 	.word	0x00403b31
  403e08:	00404385 	.word	0x00404385
  403e0c:	0040d7d8 	.word	0x0040d7d8
  403e10:	0040d2b8 	.word	0x0040d2b8
  403e14:	004075b5 	.word	0x004075b5
  403e18:	0040d7e8 	.word	0x0040d7e8
  403e1c:	0040d2e4 	.word	0x0040d2e4
  403e20:	0040d808 	.word	0x0040d808
  403e24:	0040d82c 	.word	0x0040d82c

00403e28 <nmi_spi_read>:
  403e28:	b500      	push	{lr}
  403e2a:	b085      	sub	sp, #20
  403e2c:	2300      	movs	r3, #0
  403e2e:	9301      	str	r3, [sp, #4]
  403e30:	9002      	str	r0, [sp, #8]
  403e32:	f8ad 100c 	strh.w	r1, [sp, #12]
  403e36:	a901      	add	r1, sp, #4
  403e38:	2003      	movs	r0, #3
  403e3a:	4b02      	ldr	r3, [pc, #8]	; (403e44 <nmi_spi_read+0x1c>)
  403e3c:	4798      	blx	r3
  403e3e:	b005      	add	sp, #20
  403e40:	f85d fb04 	ldr.w	pc, [sp], #4
  403e44:	004026f9 	.word	0x004026f9

00403e48 <spi_cmd_rsp>:
  403e48:	e92d 41f0 	stmdb	sp!, {r4, r5, r6, r7, r8, lr}
  403e4c:	b082      	sub	sp, #8
  403e4e:	4605      	mov	r5, r0
  403e50:	f100 033b 	add.w	r3, r0, #59	; 0x3b
  403e54:	b2db      	uxtb	r3, r3
  403e56:	2b01      	cmp	r3, #1
  403e58:	d927      	bls.n	403eaa <spi_cmd_rsp+0x62>
  403e5a:	28cf      	cmp	r0, #207	; 0xcf
  403e5c:	d025      	beq.n	403eaa <spi_cmd_rsp+0x62>
  403e5e:	240b      	movs	r4, #11
  403e60:	f04f 0801 	mov.w	r8, #1
  403e64:	4f23      	ldr	r7, [pc, #140]	; (403ef4 <spi_cmd_rsp+0xac>)
  403e66:	4641      	mov	r1, r8
  403e68:	f10d 0007 	add.w	r0, sp, #7
  403e6c:	47b8      	blx	r7
  403e6e:	4606      	mov	r6, r0
  403e70:	bb20      	cbnz	r0, 403ebc <spi_cmd_rsp+0x74>
  403e72:	f89d 3007 	ldrb.w	r3, [sp, #7]
  403e76:	42ab      	cmp	r3, r5
  403e78:	d02c      	beq.n	403ed4 <spi_cmd_rsp+0x8c>
  403e7a:	1e63      	subs	r3, r4, #1
  403e7c:	f013 04ff 	ands.w	r4, r3, #255	; 0xff
  403e80:	d1f1      	bne.n	403e66 <spi_cmd_rsp+0x1e>
  403e82:	240b      	movs	r4, #11
  403e84:	2701      	movs	r7, #1
  403e86:	4d1b      	ldr	r5, [pc, #108]	; (403ef4 <spi_cmd_rsp+0xac>)
  403e88:	4639      	mov	r1, r7
  403e8a:	f10d 0007 	add.w	r0, sp, #7
  403e8e:	47a8      	blx	r5
  403e90:	bb10      	cbnz	r0, 403ed8 <spi_cmd_rsp+0x90>
  403e92:	f89d 3007 	ldrb.w	r3, [sp, #7]
  403e96:	b353      	cbz	r3, 403eee <spi_cmd_rsp+0xa6>
  403e98:	1e63      	subs	r3, r4, #1
  403e9a:	f013 04ff 	ands.w	r4, r3, #255	; 0xff
  403e9e:	d1f3      	bne.n	403e88 <spi_cmd_rsp+0x40>
  403ea0:	2601      	movs	r6, #1
  403ea2:	4630      	mov	r0, r6
  403ea4:	b002      	add	sp, #8
  403ea6:	e8bd 81f0 	ldmia.w	sp!, {r4, r5, r6, r7, r8, pc}
  403eaa:	2101      	movs	r1, #1
  403eac:	f10d 0007 	add.w	r0, sp, #7
  403eb0:	4b10      	ldr	r3, [pc, #64]	; (403ef4 <spi_cmd_rsp+0xac>)
  403eb2:	4798      	blx	r3
  403eb4:	2800      	cmp	r0, #0
  403eb6:	d0d2      	beq.n	403e5e <spi_cmd_rsp+0x16>
  403eb8:	2600      	movs	r6, #0
  403eba:	e7f2      	b.n	403ea2 <spi_cmd_rsp+0x5a>
  403ebc:	f240 1227 	movw	r2, #295	; 0x127
  403ec0:	490d      	ldr	r1, [pc, #52]	; (403ef8 <spi_cmd_rsp+0xb0>)
  403ec2:	480e      	ldr	r0, [pc, #56]	; (403efc <spi_cmd_rsp+0xb4>)
  403ec4:	4c0e      	ldr	r4, [pc, #56]	; (403f00 <spi_cmd_rsp+0xb8>)
  403ec6:	47a0      	blx	r4
  403ec8:	480e      	ldr	r0, [pc, #56]	; (403f04 <spi_cmd_rsp+0xbc>)
  403eca:	47a0      	blx	r4
  403ecc:	480e      	ldr	r0, [pc, #56]	; (403f08 <spi_cmd_rsp+0xc0>)
  403ece:	47a0      	blx	r4
  403ed0:	2600      	movs	r6, #0
  403ed2:	e7e6      	b.n	403ea2 <spi_cmd_rsp+0x5a>
  403ed4:	240b      	movs	r4, #11
  403ed6:	e7d5      	b.n	403e84 <spi_cmd_rsp+0x3c>
  403ed8:	f240 1235 	movw	r2, #309	; 0x135
  403edc:	4906      	ldr	r1, [pc, #24]	; (403ef8 <spi_cmd_rsp+0xb0>)
  403ede:	4807      	ldr	r0, [pc, #28]	; (403efc <spi_cmd_rsp+0xb4>)
  403ee0:	4c07      	ldr	r4, [pc, #28]	; (403f00 <spi_cmd_rsp+0xb8>)
  403ee2:	47a0      	blx	r4
  403ee4:	4807      	ldr	r0, [pc, #28]	; (403f04 <spi_cmd_rsp+0xbc>)
  403ee6:	47a0      	blx	r4
  403ee8:	4807      	ldr	r0, [pc, #28]	; (403f08 <spi_cmd_rsp+0xc0>)
  403eea:	47a0      	blx	r4
  403eec:	e7d9      	b.n	403ea2 <spi_cmd_rsp+0x5a>
  403eee:	2601      	movs	r6, #1
  403ef0:	e7d7      	b.n	403ea2 <spi_cmd_rsp+0x5a>
  403ef2:	bf00      	nop
  403ef4:	00403e29 	.word	0x00403e29
  403ef8:	0040d89c 	.word	0x0040d89c
  403efc:	0040d2b8 	.word	0x0040d2b8
  403f00:	004075b5 	.word	0x004075b5
  403f04:	0040dcdc 	.word	0x0040dcdc
  403f08:	0040d2e4 	.word	0x0040d2e4

00403f0c <spi_data_read>:
  403f0c:	e92d 4ff0 	stmdb	sp!, {r4, r5, r6, r7, r8, r9, sl, fp, lr}
  403f10:	b085      	sub	sp, #20
  403f12:	4683      	mov	fp, r0
  403f14:	468a      	mov	sl, r1
  403f16:	4617      	mov	r7, r2
  403f18:	f04f 0900 	mov.w	r9, #0
  403f1c:	4d37      	ldr	r5, [pc, #220]	; (403ffc <spi_data_read+0xf0>)
  403f1e:	e027      	b.n	403f70 <spi_data_read+0x64>
  403f20:	f240 1257 	movw	r2, #343	; 0x157
  403f24:	4936      	ldr	r1, [pc, #216]	; (404000 <spi_data_read+0xf4>)
  403f26:	4837      	ldr	r0, [pc, #220]	; (404004 <spi_data_read+0xf8>)
  403f28:	4c37      	ldr	r4, [pc, #220]	; (404008 <spi_data_read+0xfc>)
  403f2a:	47a0      	blx	r4
  403f2c:	4837      	ldr	r0, [pc, #220]	; (40400c <spi_data_read+0x100>)
  403f2e:	47a0      	blx	r4
  403f30:	4837      	ldr	r0, [pc, #220]	; (404010 <spi_data_read+0x104>)
  403f32:	47a0      	blx	r4
  403f34:	2300      	movs	r3, #0
  403f36:	9301      	str	r3, [sp, #4]
  403f38:	9801      	ldr	r0, [sp, #4]
  403f3a:	b005      	add	sp, #20
  403f3c:	e8bd 8ff0 	ldmia.w	sp!, {r4, r5, r6, r7, r8, r9, sl, fp, pc}
  403f40:	2c00      	cmp	r4, #0
  403f42:	dd2e      	ble.n	403fa2 <spi_data_read+0x96>
  403f44:	4641      	mov	r1, r8
  403f46:	eb0b 0009 	add.w	r0, fp, r9
  403f4a:	47a8      	blx	r5
  403f4c:	4604      	mov	r4, r0
  403f4e:	2800      	cmp	r0, #0
  403f50:	d134      	bne.n	403fbc <spi_data_read+0xb0>
  403f52:	b91f      	cbnz	r7, 403f5c <spi_data_read+0x50>
  403f54:	4b2f      	ldr	r3, [pc, #188]	; (404014 <spi_data_read+0x108>)
  403f56:	781b      	ldrb	r3, [r3, #0]
  403f58:	2b00      	cmp	r3, #0
  403f5a:	d03a      	beq.n	403fd2 <spi_data_read+0xc6>
  403f5c:	44c1      	add	r9, r8
  403f5e:	fa0f f989 	sxth.w	r9, r9
  403f62:	ebaa 0a08 	sub.w	sl, sl, r8
  403f66:	fa1f fa8a 	uxth.w	sl, sl
  403f6a:	f1ba 0f00 	cmp.w	sl, #0
  403f6e:	d041      	beq.n	403ff4 <spi_data_read+0xe8>
  403f70:	46d0      	mov	r8, sl
  403f72:	f5ba 5f00 	cmp.w	sl, #8192	; 0x2000
  403f76:	bf28      	it	cs
  403f78:	f44f 5800 	movcs.w	r8, #8192	; 0x2000
  403f7c:	240a      	movs	r4, #10
  403f7e:	2601      	movs	r6, #1
  403f80:	4631      	mov	r1, r6
  403f82:	f10d 000b 	add.w	r0, sp, #11
  403f86:	47a8      	blx	r5
  403f88:	9001      	str	r0, [sp, #4]
  403f8a:	2800      	cmp	r0, #0
  403f8c:	d1c8      	bne.n	403f20 <spi_data_read+0x14>
  403f8e:	f89d 300b 	ldrb.w	r3, [sp, #11]
  403f92:	091b      	lsrs	r3, r3, #4
  403f94:	2b0f      	cmp	r3, #15
  403f96:	d0d3      	beq.n	403f40 <spi_data_read+0x34>
  403f98:	3c01      	subs	r4, #1
  403f9a:	b224      	sxth	r4, r4
  403f9c:	f1b4 3fff 	cmp.w	r4, #4294967295
  403fa0:	d1ee      	bne.n	403f80 <spi_data_read+0x74>
  403fa2:	f240 1263 	movw	r2, #355	; 0x163
  403fa6:	4916      	ldr	r1, [pc, #88]	; (404000 <spi_data_read+0xf4>)
  403fa8:	4816      	ldr	r0, [pc, #88]	; (404004 <spi_data_read+0xf8>)
  403faa:	4c17      	ldr	r4, [pc, #92]	; (404008 <spi_data_read+0xfc>)
  403fac:	47a0      	blx	r4
  403fae:	f89d 100b 	ldrb.w	r1, [sp, #11]
  403fb2:	4819      	ldr	r0, [pc, #100]	; (404018 <spi_data_read+0x10c>)
  403fb4:	47a0      	blx	r4
  403fb6:	4816      	ldr	r0, [pc, #88]	; (404010 <spi_data_read+0x104>)
  403fb8:	47a0      	blx	r4
  403fba:	e7bd      	b.n	403f38 <spi_data_read+0x2c>
  403fbc:	f44f 72b6 	mov.w	r2, #364	; 0x16c
  403fc0:	490f      	ldr	r1, [pc, #60]	; (404000 <spi_data_read+0xf4>)
  403fc2:	4810      	ldr	r0, [pc, #64]	; (404004 <spi_data_read+0xf8>)
  403fc4:	4c10      	ldr	r4, [pc, #64]	; (404008 <spi_data_read+0xfc>)
  403fc6:	47a0      	blx	r4
  403fc8:	4814      	ldr	r0, [pc, #80]	; (40401c <spi_data_read+0x110>)
  403fca:	47a0      	blx	r4
  403fcc:	4810      	ldr	r0, [pc, #64]	; (404010 <spi_data_read+0x104>)
  403fce:	47a0      	blx	r4
  403fd0:	e7b2      	b.n	403f38 <spi_data_read+0x2c>
  403fd2:	2102      	movs	r1, #2
  403fd4:	a803      	add	r0, sp, #12
  403fd6:	47a8      	blx	r5
  403fd8:	2800      	cmp	r0, #0
  403fda:	d0bf      	beq.n	403f5c <spi_data_read+0x50>
  403fdc:	f240 1277 	movw	r2, #375	; 0x177
  403fe0:	4907      	ldr	r1, [pc, #28]	; (404000 <spi_data_read+0xf4>)
  403fe2:	4808      	ldr	r0, [pc, #32]	; (404004 <spi_data_read+0xf8>)
  403fe4:	4d08      	ldr	r5, [pc, #32]	; (404008 <spi_data_read+0xfc>)
  403fe6:	47a8      	blx	r5
  403fe8:	480d      	ldr	r0, [pc, #52]	; (404020 <spi_data_read+0x114>)
  403fea:	47a8      	blx	r5
  403fec:	4808      	ldr	r0, [pc, #32]	; (404010 <spi_data_read+0x104>)
  403fee:	47a8      	blx	r5
  403ff0:	9401      	str	r4, [sp, #4]
  403ff2:	e7a1      	b.n	403f38 <spi_data_read+0x2c>
  403ff4:	2301      	movs	r3, #1
  403ff6:	9301      	str	r3, [sp, #4]
  403ff8:	e79e      	b.n	403f38 <spi_data_read+0x2c>
  403ffa:	bf00      	nop
  403ffc:	00403e29 	.word	0x00403e29
  404000:	0040d8a8 	.word	0x0040d8a8
  404004:	0040d2b8 	.word	0x0040d2b8
  404008:	004075b5 	.word	0x004075b5
  40400c:	0040dd10 	.word	0x0040dd10
  404010:	0040d2e4 	.word	0x0040d2e4
  404014:	2040c368 	.word	0x2040c368
  404018:	0040dd44 	.word	0x0040dd44
  40401c:	0040dd74 	.word	0x0040dd74
  404020:	0040dda8 	.word	0x0040dda8

00404024 <nmi_spi_write>:
  404024:	b500      	push	{lr}
  404026:	b085      	sub	sp, #20
  404028:	9001      	str	r0, [sp, #4]
  40402a:	2300      	movs	r3, #0
  40402c:	9302      	str	r3, [sp, #8]
  40402e:	f8ad 100c 	strh.w	r1, [sp, #12]
  404032:	a901      	add	r1, sp, #4
  404034:	2003      	movs	r0, #3
  404036:	4b02      	ldr	r3, [pc, #8]	; (404040 <nmi_spi_write+0x1c>)
  404038:	4798      	blx	r3
  40403a:	b005      	add	sp, #20
  40403c:	f85d fb04 	ldr.w	pc, [sp], #4
  404040:	004026f9 	.word	0x004026f9

00404044 <spi_cmd>:
  404044:	b570      	push	{r4, r5, r6, lr}
  404046:	b084      	sub	sp, #16
  404048:	f89d 4020 	ldrb.w	r4, [sp, #32]
  40404c:	f88d 0004 	strb.w	r0, [sp, #4]
  404050:	38c1      	subs	r0, #193	; 0xc1
  404052:	280e      	cmp	r0, #14
  404054:	f200 80a2 	bhi.w	40419c <spi_cmd+0x158>
  404058:	e8df f000 	tbb	[pc, r0]
  40405c:	19664545 	.word	0x19664545
  404060:	5454332a 	.word	0x5454332a
  404064:	a0a0087f 	.word	0xa0a0087f
  404068:	a0a0      	.short	0xa0a0
  40406a:	3c          	.byte	0x3c
  40406b:	00          	.byte	0x00
  40406c:	0c0b      	lsrs	r3, r1, #16
  40406e:	f88d 3005 	strb.w	r3, [sp, #5]
  404072:	0a0b      	lsrs	r3, r1, #8
  404074:	f88d 3006 	strb.w	r3, [sp, #6]
  404078:	f88d 1007 	strb.w	r1, [sp, #7]
  40407c:	2105      	movs	r1, #5
  40407e:	4b55      	ldr	r3, [pc, #340]	; (4041d4 <spi_cmd+0x190>)
  404080:	781b      	ldrb	r3, [r3, #0]
  404082:	2b00      	cmp	r3, #0
  404084:	f000 808c 	beq.w	4041a0 <spi_cmd+0x15c>
  404088:	3901      	subs	r1, #1
  40408a:	b2c9      	uxtb	r1, r1
  40408c:	e09a      	b.n	4041c4 <spi_cmd+0x180>
  40408e:	f3c1 2307 	ubfx	r3, r1, #8, #8
  404092:	b944      	cbnz	r4, 4040a6 <spi_cmd+0x62>
  404094:	f88d 3005 	strb.w	r3, [sp, #5]
  404098:	f88d 1006 	strb.w	r1, [sp, #6]
  40409c:	2300      	movs	r3, #0
  40409e:	f88d 3007 	strb.w	r3, [sp, #7]
  4040a2:	2105      	movs	r1, #5
  4040a4:	e7eb      	b.n	40407e <spi_cmd+0x3a>
  4040a6:	f063 037f 	orn	r3, r3, #127	; 0x7f
  4040aa:	f88d 3005 	strb.w	r3, [sp, #5]
  4040ae:	e7f3      	b.n	404098 <spi_cmd+0x54>
  4040b0:	2300      	movs	r3, #0
  4040b2:	f88d 3005 	strb.w	r3, [sp, #5]
  4040b6:	f88d 3006 	strb.w	r3, [sp, #6]
  4040ba:	f88d 3007 	strb.w	r3, [sp, #7]
  4040be:	2105      	movs	r1, #5
  4040c0:	e7dd      	b.n	40407e <spi_cmd+0x3a>
  4040c2:	2300      	movs	r3, #0
  4040c4:	f88d 3005 	strb.w	r3, [sp, #5]
  4040c8:	f88d 3006 	strb.w	r3, [sp, #6]
  4040cc:	f88d 3007 	strb.w	r3, [sp, #7]
  4040d0:	2105      	movs	r1, #5
  4040d2:	e7d4      	b.n	40407e <spi_cmd+0x3a>
  4040d4:	23ff      	movs	r3, #255	; 0xff
  4040d6:	f88d 3005 	strb.w	r3, [sp, #5]
  4040da:	f88d 3006 	strb.w	r3, [sp, #6]
  4040de:	f88d 3007 	strb.w	r3, [sp, #7]
  4040e2:	2105      	movs	r1, #5
  4040e4:	e7cb      	b.n	40407e <spi_cmd+0x3a>
  4040e6:	0c0a      	lsrs	r2, r1, #16
  4040e8:	f88d 2005 	strb.w	r2, [sp, #5]
  4040ec:	0a0a      	lsrs	r2, r1, #8
  4040ee:	f88d 2006 	strb.w	r2, [sp, #6]
  4040f2:	f88d 1007 	strb.w	r1, [sp, #7]
  4040f6:	0a1a      	lsrs	r2, r3, #8
  4040f8:	f88d 2008 	strb.w	r2, [sp, #8]
  4040fc:	f88d 3009 	strb.w	r3, [sp, #9]
  404100:	2107      	movs	r1, #7
  404102:	e7bc      	b.n	40407e <spi_cmd+0x3a>
  404104:	0c0a      	lsrs	r2, r1, #16
  404106:	f88d 2005 	strb.w	r2, [sp, #5]
  40410a:	0a0a      	lsrs	r2, r1, #8
  40410c:	f88d 2006 	strb.w	r2, [sp, #6]
  404110:	f88d 1007 	strb.w	r1, [sp, #7]
  404114:	0c1a      	lsrs	r2, r3, #16
  404116:	f88d 2008 	strb.w	r2, [sp, #8]
  40411a:	0a1a      	lsrs	r2, r3, #8
  40411c:	f88d 2009 	strb.w	r2, [sp, #9]
  404120:	f88d 300a 	strb.w	r3, [sp, #10]
  404124:	2108      	movs	r1, #8
  404126:	e7aa      	b.n	40407e <spi_cmd+0x3a>
  404128:	f3c1 2307 	ubfx	r3, r1, #8, #8
  40412c:	b984      	cbnz	r4, 404150 <spi_cmd+0x10c>
  40412e:	f88d 3005 	strb.w	r3, [sp, #5]
  404132:	f88d 1006 	strb.w	r1, [sp, #6]
  404136:	0e13      	lsrs	r3, r2, #24
  404138:	f88d 3007 	strb.w	r3, [sp, #7]
  40413c:	0c13      	lsrs	r3, r2, #16
  40413e:	f88d 3008 	strb.w	r3, [sp, #8]
  404142:	0a13      	lsrs	r3, r2, #8
  404144:	f88d 3009 	strb.w	r3, [sp, #9]
  404148:	f88d 200a 	strb.w	r2, [sp, #10]
  40414c:	2108      	movs	r1, #8
  40414e:	e796      	b.n	40407e <spi_cmd+0x3a>
  404150:	f063 037f 	orn	r3, r3, #127	; 0x7f
  404154:	f88d 3005 	strb.w	r3, [sp, #5]
  404158:	e7eb      	b.n	404132 <spi_cmd+0xee>
  40415a:	0c0b      	lsrs	r3, r1, #16
  40415c:	f88d 3005 	strb.w	r3, [sp, #5]
  404160:	0a0b      	lsrs	r3, r1, #8
  404162:	f88d 3006 	strb.w	r3, [sp, #6]
  404166:	f88d 1007 	strb.w	r1, [sp, #7]
  40416a:	0e13      	lsrs	r3, r2, #24
  40416c:	f88d 3008 	strb.w	r3, [sp, #8]
  404170:	0c13      	lsrs	r3, r2, #16
  404172:	f88d 3009 	strb.w	r3, [sp, #9]
  404176:	0a13      	lsrs	r3, r2, #8
  404178:	f88d 300a 	strb.w	r3, [sp, #10]
  40417c:	f88d 200b 	strb.w	r2, [sp, #11]
  404180:	2109      	movs	r1, #9
  404182:	e77c      	b.n	40407e <spi_cmd+0x3a>
  404184:	f44f 7284 	mov.w	r2, #264	; 0x108
  404188:	4913      	ldr	r1, [pc, #76]	; (4041d8 <spi_cmd+0x194>)
  40418a:	4814      	ldr	r0, [pc, #80]	; (4041dc <spi_cmd+0x198>)
  40418c:	4c14      	ldr	r4, [pc, #80]	; (4041e0 <spi_cmd+0x19c>)
  40418e:	47a0      	blx	r4
  404190:	4814      	ldr	r0, [pc, #80]	; (4041e4 <spi_cmd+0x1a0>)
  404192:	47a0      	blx	r4
  404194:	4814      	ldr	r0, [pc, #80]	; (4041e8 <spi_cmd+0x1a4>)
  404196:	47a0      	blx	r4
  404198:	2000      	movs	r0, #0
  40419a:	e019      	b.n	4041d0 <spi_cmd+0x18c>
  40419c:	2000      	movs	r0, #0
  40419e:	e017      	b.n	4041d0 <spi_cmd+0x18c>
  4041a0:	1e4e      	subs	r6, r1, #1
  4041a2:	ab01      	add	r3, sp, #4
  4041a4:	199d      	adds	r5, r3, r6
  4041a6:	207f      	movs	r0, #127	; 0x7f
  4041a8:	461a      	mov	r2, r3
  4041aa:	4c10      	ldr	r4, [pc, #64]	; (4041ec <spi_cmd+0x1a8>)
  4041ac:	f812 3b01 	ldrb.w	r3, [r2], #1
  4041b0:	ea83 0340 	eor.w	r3, r3, r0, lsl #1
  4041b4:	5ce0      	ldrb	r0, [r4, r3]
  4041b6:	4295      	cmp	r5, r2
  4041b8:	d1f8      	bne.n	4041ac <spi_cmd+0x168>
  4041ba:	ab04      	add	r3, sp, #16
  4041bc:	441e      	add	r6, r3
  4041be:	0043      	lsls	r3, r0, #1
  4041c0:	f806 3c0c 	strb.w	r3, [r6, #-12]
  4041c4:	a801      	add	r0, sp, #4
  4041c6:	4b0a      	ldr	r3, [pc, #40]	; (4041f0 <spi_cmd+0x1ac>)
  4041c8:	4798      	blx	r3
  4041ca:	2800      	cmp	r0, #0
  4041cc:	d1da      	bne.n	404184 <spi_cmd+0x140>
  4041ce:	2001      	movs	r0, #1
  4041d0:	b004      	add	sp, #16
  4041d2:	bd70      	pop	{r4, r5, r6, pc}
  4041d4:	2040c368 	.word	0x2040c368
  4041d8:	0040d894 	.word	0x0040d894
  4041dc:	0040d2b8 	.word	0x0040d2b8
  4041e0:	004075b5 	.word	0x004075b5
  4041e4:	0040dcb0 	.word	0x0040dcb0
  4041e8:	0040d2e4 	.word	0x0040d2e4
  4041ec:	0040d910 	.word	0x0040d910
  4041f0:	00404025 	.word	0x00404025

004041f4 <spi_write_reg>:
  4041f4:	b570      	push	{r4, r5, r6, lr}
  4041f6:	b082      	sub	sp, #8
  4041f8:	4604      	mov	r4, r0
  4041fa:	2831      	cmp	r0, #49	; 0x31
  4041fc:	bf35      	itete	cc
  4041fe:	2301      	movcc	r3, #1
  404200:	2300      	movcs	r3, #0
  404202:	25c3      	movcc	r5, #195	; 0xc3
  404204:	25c9      	movcs	r5, #201	; 0xc9
  404206:	9300      	str	r3, [sp, #0]
  404208:	2304      	movs	r3, #4
  40420a:	460a      	mov	r2, r1
  40420c:	4601      	mov	r1, r0
  40420e:	4628      	mov	r0, r5
  404210:	4e15      	ldr	r6, [pc, #84]	; (404268 <spi_write_reg+0x74>)
  404212:	47b0      	blx	r6
  404214:	2801      	cmp	r0, #1
  404216:	d00d      	beq.n	404234 <spi_write_reg+0x40>
  404218:	f240 12eb 	movw	r2, #491	; 0x1eb
  40421c:	4913      	ldr	r1, [pc, #76]	; (40426c <spi_write_reg+0x78>)
  40421e:	4814      	ldr	r0, [pc, #80]	; (404270 <spi_write_reg+0x7c>)
  404220:	4d14      	ldr	r5, [pc, #80]	; (404274 <spi_write_reg+0x80>)
  404222:	47a8      	blx	r5
  404224:	4621      	mov	r1, r4
  404226:	4814      	ldr	r0, [pc, #80]	; (404278 <spi_write_reg+0x84>)
  404228:	47a8      	blx	r5
  40422a:	4814      	ldr	r0, [pc, #80]	; (40427c <spi_write_reg+0x88>)
  40422c:	47a8      	blx	r5
  40422e:	2000      	movs	r0, #0
  404230:	b002      	add	sp, #8
  404232:	bd70      	pop	{r4, r5, r6, pc}
  404234:	4628      	mov	r0, r5
  404236:	4b12      	ldr	r3, [pc, #72]	; (404280 <spi_write_reg+0x8c>)
  404238:	4798      	blx	r3
  40423a:	2801      	cmp	r0, #1
  40423c:	d0f8      	beq.n	404230 <spi_write_reg+0x3c>
  40423e:	f240 12f1 	movw	r2, #497	; 0x1f1
  404242:	490a      	ldr	r1, [pc, #40]	; (40426c <spi_write_reg+0x78>)
  404244:	480a      	ldr	r0, [pc, #40]	; (404270 <spi_write_reg+0x7c>)
  404246:	4d0b      	ldr	r5, [pc, #44]	; (404274 <spi_write_reg+0x80>)
  404248:	47a8      	blx	r5
  40424a:	4621      	mov	r1, r4
  40424c:	480d      	ldr	r0, [pc, #52]	; (404284 <spi_write_reg+0x90>)
  40424e:	47a8      	blx	r5
  404250:	480a      	ldr	r0, [pc, #40]	; (40427c <spi_write_reg+0x88>)
  404252:	47a8      	blx	r5
  404254:	2400      	movs	r4, #0
  404256:	9400      	str	r4, [sp, #0]
  404258:	4623      	mov	r3, r4
  40425a:	4622      	mov	r2, r4
  40425c:	4621      	mov	r1, r4
  40425e:	20cf      	movs	r0, #207	; 0xcf
  404260:	4d01      	ldr	r5, [pc, #4]	; (404268 <spi_write_reg+0x74>)
  404262:	47a8      	blx	r5
  404264:	4620      	mov	r0, r4
  404266:	e7e3      	b.n	404230 <spi_write_reg+0x3c>
  404268:	00404045 	.word	0x00404045
  40426c:	0040d8c8 	.word	0x0040d8c8
  404270:	0040d2b8 	.word	0x0040d2b8
  404274:	004075b5 	.word	0x004075b5
  404278:	0040de60 	.word	0x0040de60
  40427c:	0040d2e4 	.word	0x0040d2e4
  404280:	00403e49 	.word	0x00403e49
  404284:	0040de8c 	.word	0x0040de8c

00404288 <spi_read_reg>:
  404288:	e92d 41f0 	stmdb	sp!, {r4, r5, r6, r7, r8, lr}
  40428c:	b084      	sub	sp, #16
  40428e:	4604      	mov	r4, r0
  404290:	4688      	mov	r8, r1
  404292:	f5b0 7f80 	cmp.w	r0, #256	; 0x100
  404296:	bf35      	itete	cc
  404298:	2601      	movcc	r6, #1
  40429a:	2600      	movcs	r6, #0
  40429c:	25c4      	movcc	r5, #196	; 0xc4
  40429e:	25ca      	movcs	r5, #202	; 0xca
  4042a0:	9600      	str	r6, [sp, #0]
  4042a2:	2304      	movs	r3, #4
  4042a4:	2200      	movs	r2, #0
  4042a6:	4601      	mov	r1, r0
  4042a8:	4628      	mov	r0, r5
  4042aa:	4f2c      	ldr	r7, [pc, #176]	; (40435c <spi_read_reg+0xd4>)
  4042ac:	47b8      	blx	r7
  4042ae:	2801      	cmp	r0, #1
  4042b0:	d00e      	beq.n	4042d0 <spi_read_reg+0x48>
  4042b2:	f240 2245 	movw	r2, #581	; 0x245
  4042b6:	492a      	ldr	r1, [pc, #168]	; (404360 <spi_read_reg+0xd8>)
  4042b8:	482a      	ldr	r0, [pc, #168]	; (404364 <spi_read_reg+0xdc>)
  4042ba:	4d2b      	ldr	r5, [pc, #172]	; (404368 <spi_read_reg+0xe0>)
  4042bc:	47a8      	blx	r5
  4042be:	4621      	mov	r1, r4
  4042c0:	482a      	ldr	r0, [pc, #168]	; (40436c <spi_read_reg+0xe4>)
  4042c2:	47a8      	blx	r5
  4042c4:	482a      	ldr	r0, [pc, #168]	; (404370 <spi_read_reg+0xe8>)
  4042c6:	47a8      	blx	r5
  4042c8:	2000      	movs	r0, #0
  4042ca:	b004      	add	sp, #16
  4042cc:	e8bd 81f0 	ldmia.w	sp!, {r4, r5, r6, r7, r8, pc}
  4042d0:	4628      	mov	r0, r5
  4042d2:	4b28      	ldr	r3, [pc, #160]	; (404374 <spi_read_reg+0xec>)
  4042d4:	4798      	blx	r3
  4042d6:	2801      	cmp	r0, #1
  4042d8:	d014      	beq.n	404304 <spi_read_reg+0x7c>
  4042da:	f240 224b 	movw	r2, #587	; 0x24b
  4042de:	4920      	ldr	r1, [pc, #128]	; (404360 <spi_read_reg+0xd8>)
  4042e0:	4820      	ldr	r0, [pc, #128]	; (404364 <spi_read_reg+0xdc>)
  4042e2:	4d21      	ldr	r5, [pc, #132]	; (404368 <spi_read_reg+0xe0>)
  4042e4:	47a8      	blx	r5
  4042e6:	4621      	mov	r1, r4
  4042e8:	4823      	ldr	r0, [pc, #140]	; (404378 <spi_read_reg+0xf0>)
  4042ea:	47a8      	blx	r5
  4042ec:	4820      	ldr	r0, [pc, #128]	; (404370 <spi_read_reg+0xe8>)
  4042ee:	47a8      	blx	r5
  4042f0:	2400      	movs	r4, #0
  4042f2:	9400      	str	r4, [sp, #0]
  4042f4:	4623      	mov	r3, r4
  4042f6:	4622      	mov	r2, r4
  4042f8:	4621      	mov	r1, r4
  4042fa:	20cf      	movs	r0, #207	; 0xcf
  4042fc:	4d17      	ldr	r5, [pc, #92]	; (40435c <spi_read_reg+0xd4>)
  4042fe:	47a8      	blx	r5
  404300:	4620      	mov	r0, r4
  404302:	e7e2      	b.n	4042ca <spi_read_reg+0x42>
  404304:	4632      	mov	r2, r6
  404306:	2104      	movs	r1, #4
  404308:	a803      	add	r0, sp, #12
  40430a:	4b1c      	ldr	r3, [pc, #112]	; (40437c <spi_read_reg+0xf4>)
  40430c:	4798      	blx	r3
  40430e:	2801      	cmp	r0, #1
  404310:	d110      	bne.n	404334 <spi_read_reg+0xac>
  404312:	f89d 200d 	ldrb.w	r2, [sp, #13]
  404316:	f89d 300e 	ldrb.w	r3, [sp, #14]
  40431a:	041b      	lsls	r3, r3, #16
  40431c:	ea43 2302 	orr.w	r3, r3, r2, lsl #8
  404320:	f89d 200c 	ldrb.w	r2, [sp, #12]
  404324:	4313      	orrs	r3, r2
  404326:	f89d 200f 	ldrb.w	r2, [sp, #15]
  40432a:	ea43 6302 	orr.w	r3, r3, r2, lsl #24
  40432e:	f8c8 3000 	str.w	r3, [r8]
  404332:	e7ca      	b.n	4042ca <spi_read_reg+0x42>
  404334:	f240 2253 	movw	r2, #595	; 0x253
  404338:	4909      	ldr	r1, [pc, #36]	; (404360 <spi_read_reg+0xd8>)
  40433a:	480a      	ldr	r0, [pc, #40]	; (404364 <spi_read_reg+0xdc>)
  40433c:	4c0a      	ldr	r4, [pc, #40]	; (404368 <spi_read_reg+0xe0>)
  40433e:	47a0      	blx	r4
  404340:	480f      	ldr	r0, [pc, #60]	; (404380 <spi_read_reg+0xf8>)
  404342:	47a0      	blx	r4
  404344:	480a      	ldr	r0, [pc, #40]	; (404370 <spi_read_reg+0xe8>)
  404346:	47a0      	blx	r4
  404348:	2400      	movs	r4, #0
  40434a:	9400      	str	r4, [sp, #0]
  40434c:	4623      	mov	r3, r4
  40434e:	4622      	mov	r2, r4
  404350:	4621      	mov	r1, r4
  404352:	20cf      	movs	r0, #207	; 0xcf
  404354:	4d01      	ldr	r5, [pc, #4]	; (40435c <spi_read_reg+0xd4>)
  404356:	47a8      	blx	r5
  404358:	4620      	mov	r0, r4
  40435a:	e7b6      	b.n	4042ca <spi_read_reg+0x42>
  40435c:	00404045 	.word	0x00404045
  404360:	0040d8e8 	.word	0x0040d8e8
  404364:	0040d2b8 	.word	0x0040d2b8
  404368:	004075b5 	.word	0x004075b5
  40436c:	0040dde0 	.word	0x0040dde0
  404370:	0040d2e4 	.word	0x0040d2e4
  404374:	00403e49 	.word	0x00403e49
  404378:	0040de0c 	.word	0x0040de0c
  40437c:	00403f0d 	.word	0x00403f0d
  404380:	0040de40 	.word	0x0040de40

00404384 <nm_spi_deinit>:
  404384:	2000      	movs	r0, #0
  404386:	4b01      	ldr	r3, [pc, #4]	; (40438c <nm_spi_deinit+0x8>)
  404388:	7018      	strb	r0, [r3, #0]
  40438a:	4770      	bx	lr
  40438c:	2040c368 	.word	0x2040c368

00404390 <nm_spi_read_reg>:
  404390:	b500      	push	{lr}
  404392:	b083      	sub	sp, #12
  404394:	a901      	add	r1, sp, #4
  404396:	4b03      	ldr	r3, [pc, #12]	; (4043a4 <nm_spi_read_reg+0x14>)
  404398:	4798      	blx	r3
  40439a:	9801      	ldr	r0, [sp, #4]
  40439c:	b003      	add	sp, #12
  40439e:	f85d fb04 	ldr.w	pc, [sp], #4
  4043a2:	bf00      	nop
  4043a4:	00404289 	.word	0x00404289

004043a8 <nm_spi_read_reg_with_ret>:
  4043a8:	b508      	push	{r3, lr}
  4043aa:	4b04      	ldr	r3, [pc, #16]	; (4043bc <nm_spi_read_reg_with_ret+0x14>)
  4043ac:	4798      	blx	r3
  4043ae:	2801      	cmp	r0, #1
  4043b0:	bf0c      	ite	eq
  4043b2:	2000      	moveq	r0, #0
  4043b4:	f06f 0005 	mvnne.w	r0, #5
  4043b8:	bd08      	pop	{r3, pc}
  4043ba:	bf00      	nop
  4043bc:	00404289 	.word	0x00404289

004043c0 <nm_spi_write_reg>:
  4043c0:	b508      	push	{r3, lr}
  4043c2:	4b04      	ldr	r3, [pc, #16]	; (4043d4 <nm_spi_write_reg+0x14>)
  4043c4:	4798      	blx	r3
  4043c6:	2801      	cmp	r0, #1
  4043c8:	bf0c      	ite	eq
  4043ca:	2000      	moveq	r0, #0
  4043cc:	f06f 0005 	mvnne.w	r0, #5
  4043d0:	bd08      	pop	{r3, pc}
  4043d2:	bf00      	nop
  4043d4:	004041f5 	.word	0x004041f5

004043d8 <nm_spi_init>:
  4043d8:	b530      	push	{r4, r5, lr}
  4043da:	b083      	sub	sp, #12
  4043dc:	2300      	movs	r3, #0
  4043de:	a902      	add	r1, sp, #8
  4043e0:	f841 3d08 	str.w	r3, [r1, #-8]!
  4043e4:	4a34      	ldr	r2, [pc, #208]	; (4044b8 <nm_spi_init+0xe0>)
  4043e6:	7013      	strb	r3, [r2, #0]
  4043e8:	f64e 0024 	movw	r0, #59428	; 0xe824
  4043ec:	4b33      	ldr	r3, [pc, #204]	; (4044bc <nm_spi_init+0xe4>)
  4043ee:	4798      	blx	r3
  4043f0:	b348      	cbz	r0, 404446 <nm_spi_init+0x6e>
  4043f2:	4b31      	ldr	r3, [pc, #196]	; (4044b8 <nm_spi_init+0xe0>)
  4043f4:	781b      	ldrb	r3, [r3, #0]
  4043f6:	b97b      	cbnz	r3, 404418 <nm_spi_init+0x40>
  4043f8:	9900      	ldr	r1, [sp, #0]
  4043fa:	f021 017c 	bic.w	r1, r1, #124	; 0x7c
  4043fe:	f041 0150 	orr.w	r1, r1, #80	; 0x50
  404402:	9100      	str	r1, [sp, #0]
  404404:	f64e 0024 	movw	r0, #59428	; 0xe824
  404408:	4b2d      	ldr	r3, [pc, #180]	; (4044c0 <nm_spi_init+0xe8>)
  40440a:	4798      	blx	r3
  40440c:	4604      	mov	r4, r0
  40440e:	2800      	cmp	r0, #0
  404410:	d039      	beq.n	404486 <nm_spi_init+0xae>
  404412:	2201      	movs	r2, #1
  404414:	4b28      	ldr	r3, [pc, #160]	; (4044b8 <nm_spi_init+0xe0>)
  404416:	701a      	strb	r2, [r3, #0]
  404418:	a901      	add	r1, sp, #4
  40441a:	f44f 5080 	mov.w	r0, #4096	; 0x1000
  40441e:	4b27      	ldr	r3, [pc, #156]	; (4044bc <nm_spi_init+0xe4>)
  404420:	4798      	blx	r3
  404422:	2800      	cmp	r0, #0
  404424:	d03a      	beq.n	40449c <nm_spi_init+0xc4>
  404426:	f64e 0024 	movw	r0, #59428	; 0xe824
  40442a:	4b26      	ldr	r3, [pc, #152]	; (4044c4 <nm_spi_init+0xec>)
  40442c:	4798      	blx	r3
  40442e:	f020 0170 	bic.w	r1, r0, #112	; 0x70
  404432:	f041 0150 	orr.w	r1, r1, #80	; 0x50
  404436:	f64e 0024 	movw	r0, #59428	; 0xe824
  40443a:	4b23      	ldr	r3, [pc, #140]	; (4044c8 <nm_spi_init+0xf0>)
  40443c:	4798      	blx	r3
  40443e:	2400      	movs	r4, #0
  404440:	4620      	mov	r0, r4
  404442:	b003      	add	sp, #12
  404444:	bd30      	pop	{r4, r5, pc}
  404446:	2201      	movs	r2, #1
  404448:	4b1b      	ldr	r3, [pc, #108]	; (4044b8 <nm_spi_init+0xe0>)
  40444a:	701a      	strb	r2, [r3, #0]
  40444c:	f240 22c5 	movw	r2, #709	; 0x2c5
  404450:	491e      	ldr	r1, [pc, #120]	; (4044cc <nm_spi_init+0xf4>)
  404452:	481f      	ldr	r0, [pc, #124]	; (4044d0 <nm_spi_init+0xf8>)
  404454:	4c1f      	ldr	r4, [pc, #124]	; (4044d4 <nm_spi_init+0xfc>)
  404456:	47a0      	blx	r4
  404458:	481f      	ldr	r0, [pc, #124]	; (4044d8 <nm_spi_init+0x100>)
  40445a:	47a0      	blx	r4
  40445c:	481f      	ldr	r0, [pc, #124]	; (4044dc <nm_spi_init+0x104>)
  40445e:	47a0      	blx	r4
  404460:	4669      	mov	r1, sp
  404462:	f64e 0024 	movw	r0, #59428	; 0xe824
  404466:	4b15      	ldr	r3, [pc, #84]	; (4044bc <nm_spi_init+0xe4>)
  404468:	4798      	blx	r3
  40446a:	4604      	mov	r4, r0
  40446c:	2800      	cmp	r0, #0
  40446e:	d1c0      	bne.n	4043f2 <nm_spi_init+0x1a>
  404470:	f44f 7232 	mov.w	r2, #712	; 0x2c8
  404474:	4915      	ldr	r1, [pc, #84]	; (4044cc <nm_spi_init+0xf4>)
  404476:	4816      	ldr	r0, [pc, #88]	; (4044d0 <nm_spi_init+0xf8>)
  404478:	4d16      	ldr	r5, [pc, #88]	; (4044d4 <nm_spi_init+0xfc>)
  40447a:	47a8      	blx	r5
  40447c:	4818      	ldr	r0, [pc, #96]	; (4044e0 <nm_spi_init+0x108>)
  40447e:	47a8      	blx	r5
  404480:	4816      	ldr	r0, [pc, #88]	; (4044dc <nm_spi_init+0x104>)
  404482:	47a8      	blx	r5
  404484:	e7dc      	b.n	404440 <nm_spi_init+0x68>
  404486:	f240 22d2 	movw	r2, #722	; 0x2d2
  40448a:	4910      	ldr	r1, [pc, #64]	; (4044cc <nm_spi_init+0xf4>)
  40448c:	4810      	ldr	r0, [pc, #64]	; (4044d0 <nm_spi_init+0xf8>)
  40448e:	4d11      	ldr	r5, [pc, #68]	; (4044d4 <nm_spi_init+0xfc>)
  404490:	47a8      	blx	r5
  404492:	4814      	ldr	r0, [pc, #80]	; (4044e4 <nm_spi_init+0x10c>)
  404494:	47a8      	blx	r5
  404496:	4811      	ldr	r0, [pc, #68]	; (4044dc <nm_spi_init+0x104>)
  404498:	47a8      	blx	r5
  40449a:	e7d1      	b.n	404440 <nm_spi_init+0x68>
  40449c:	f44f 7237 	mov.w	r2, #732	; 0x2dc
  4044a0:	490a      	ldr	r1, [pc, #40]	; (4044cc <nm_spi_init+0xf4>)
  4044a2:	480b      	ldr	r0, [pc, #44]	; (4044d0 <nm_spi_init+0xf8>)
  4044a4:	4c0b      	ldr	r4, [pc, #44]	; (4044d4 <nm_spi_init+0xfc>)
  4044a6:	47a0      	blx	r4
  4044a8:	480f      	ldr	r0, [pc, #60]	; (4044e8 <nm_spi_init+0x110>)
  4044aa:	47a0      	blx	r4
  4044ac:	480b      	ldr	r0, [pc, #44]	; (4044dc <nm_spi_init+0x104>)
  4044ae:	47a0      	blx	r4
  4044b0:	f06f 0405 	mvn.w	r4, #5
  4044b4:	e7c4      	b.n	404440 <nm_spi_init+0x68>
  4044b6:	bf00      	nop
  4044b8:	2040c368 	.word	0x2040c368
  4044bc:	00404289 	.word	0x00404289
  4044c0:	004041f5 	.word	0x004041f5
  4044c4:	00404391 	.word	0x00404391
  4044c8:	004043c1 	.word	0x004043c1
  4044cc:	0040d904 	.word	0x0040d904
  4044d0:	0040d2b8 	.word	0x0040d2b8
  4044d4:	004075b5 	.word	0x004075b5
  4044d8:	0040da10 	.word	0x0040da10
  4044dc:	0040d2e4 	.word	0x0040d2e4
  4044e0:	0040da60 	.word	0x0040da60
  4044e4:	0040da90 	.word	0x0040da90
  4044e8:	0040dac4 	.word	0x0040dac4

004044ec <nm_spi_read_block>:
  4044ec:	b5f0      	push	{r4, r5, r6, r7, lr}
  4044ee:	b083      	sub	sp, #12
  4044f0:	4604      	mov	r4, r0
  4044f2:	460f      	mov	r7, r1
  4044f4:	4615      	mov	r5, r2
  4044f6:	2200      	movs	r2, #0
  4044f8:	9200      	str	r2, [sp, #0]
  4044fa:	462b      	mov	r3, r5
  4044fc:	4601      	mov	r1, r0
  4044fe:	20c8      	movs	r0, #200	; 0xc8
  404500:	4e22      	ldr	r6, [pc, #136]	; (40458c <nm_spi_read_block+0xa0>)
  404502:	47b0      	blx	r6
  404504:	2801      	cmp	r0, #1
  404506:	d00e      	beq.n	404526 <nm_spi_read_block+0x3a>
  404508:	f44f 721d 	mov.w	r2, #628	; 0x274
  40450c:	4920      	ldr	r1, [pc, #128]	; (404590 <nm_spi_read_block+0xa4>)
  40450e:	4821      	ldr	r0, [pc, #132]	; (404594 <nm_spi_read_block+0xa8>)
  404510:	4d21      	ldr	r5, [pc, #132]	; (404598 <nm_spi_read_block+0xac>)
  404512:	47a8      	blx	r5
  404514:	4621      	mov	r1, r4
  404516:	4821      	ldr	r0, [pc, #132]	; (40459c <nm_spi_read_block+0xb0>)
  404518:	47a8      	blx	r5
  40451a:	4821      	ldr	r0, [pc, #132]	; (4045a0 <nm_spi_read_block+0xb4>)
  40451c:	47a8      	blx	r5
  40451e:	f06f 0005 	mvn.w	r0, #5
  404522:	b003      	add	sp, #12
  404524:	bdf0      	pop	{r4, r5, r6, r7, pc}
  404526:	20c8      	movs	r0, #200	; 0xc8
  404528:	4b1e      	ldr	r3, [pc, #120]	; (4045a4 <nm_spi_read_block+0xb8>)
  40452a:	4798      	blx	r3
  40452c:	2801      	cmp	r0, #1
  40452e:	d012      	beq.n	404556 <nm_spi_read_block+0x6a>
  404530:	f240 227a 	movw	r2, #634	; 0x27a
  404534:	4916      	ldr	r1, [pc, #88]	; (404590 <nm_spi_read_block+0xa4>)
  404536:	4817      	ldr	r0, [pc, #92]	; (404594 <nm_spi_read_block+0xa8>)
  404538:	4d17      	ldr	r5, [pc, #92]	; (404598 <nm_spi_read_block+0xac>)
  40453a:	47a8      	blx	r5
  40453c:	4621      	mov	r1, r4
  40453e:	481a      	ldr	r0, [pc, #104]	; (4045a8 <nm_spi_read_block+0xbc>)
  404540:	47a8      	blx	r5
  404542:	4817      	ldr	r0, [pc, #92]	; (4045a0 <nm_spi_read_block+0xb4>)
  404544:	47a8      	blx	r5
  404546:	2100      	movs	r1, #0
  404548:	9100      	str	r1, [sp, #0]
  40454a:	460b      	mov	r3, r1
  40454c:	460a      	mov	r2, r1
  40454e:	20cf      	movs	r0, #207	; 0xcf
  404550:	4c0e      	ldr	r4, [pc, #56]	; (40458c <nm_spi_read_block+0xa0>)
  404552:	47a0      	blx	r4
  404554:	e7e3      	b.n	40451e <nm_spi_read_block+0x32>
  404556:	2200      	movs	r2, #0
  404558:	4629      	mov	r1, r5
  40455a:	4638      	mov	r0, r7
  40455c:	4b13      	ldr	r3, [pc, #76]	; (4045ac <nm_spi_read_block+0xc0>)
  40455e:	4798      	blx	r3
  404560:	2801      	cmp	r0, #1
  404562:	d011      	beq.n	404588 <nm_spi_read_block+0x9c>
  404564:	f44f 7221 	mov.w	r2, #644	; 0x284
  404568:	4909      	ldr	r1, [pc, #36]	; (404590 <nm_spi_read_block+0xa4>)
  40456a:	480a      	ldr	r0, [pc, #40]	; (404594 <nm_spi_read_block+0xa8>)
  40456c:	4c0a      	ldr	r4, [pc, #40]	; (404598 <nm_spi_read_block+0xac>)
  40456e:	47a0      	blx	r4
  404570:	480f      	ldr	r0, [pc, #60]	; (4045b0 <nm_spi_read_block+0xc4>)
  404572:	47a0      	blx	r4
  404574:	480a      	ldr	r0, [pc, #40]	; (4045a0 <nm_spi_read_block+0xb4>)
  404576:	47a0      	blx	r4
  404578:	2100      	movs	r1, #0
  40457a:	9100      	str	r1, [sp, #0]
  40457c:	460b      	mov	r3, r1
  40457e:	460a      	mov	r2, r1
  404580:	20cf      	movs	r0, #207	; 0xcf
  404582:	4c02      	ldr	r4, [pc, #8]	; (40458c <nm_spi_read_block+0xa0>)
  404584:	47a0      	blx	r4
  404586:	e7ca      	b.n	40451e <nm_spi_read_block+0x32>
  404588:	2000      	movs	r0, #0
  40458a:	e7ca      	b.n	404522 <nm_spi_read_block+0x36>
  40458c:	00404045 	.word	0x00404045
  404590:	0040d8f8 	.word	0x0040d8f8
  404594:	0040d2b8 	.word	0x0040d2b8
  404598:	004075b5 	.word	0x004075b5
  40459c:	0040daec 	.word	0x0040daec
  4045a0:	0040d2e4 	.word	0x0040d2e4
  4045a4:	00403e49 	.word	0x00403e49
  4045a8:	0040db1c 	.word	0x0040db1c
  4045ac:	00403f0d 	.word	0x00403f0d
  4045b0:	0040db54 	.word	0x0040db54

004045b4 <nm_spi_write_block>:
  4045b4:	e92d 43f0 	stmdb	sp!, {r4, r5, r6, r7, r8, r9, lr}
  4045b8:	b085      	sub	sp, #20
  4045ba:	4604      	mov	r4, r0
  4045bc:	4688      	mov	r8, r1
  4045be:	4615      	mov	r5, r2
  4045c0:	2200      	movs	r2, #0
  4045c2:	9200      	str	r2, [sp, #0]
  4045c4:	462b      	mov	r3, r5
  4045c6:	4601      	mov	r1, r0
  4045c8:	20c7      	movs	r0, #199	; 0xc7
  4045ca:	4e4d      	ldr	r6, [pc, #308]	; (404700 <nm_spi_write_block+0x14c>)
  4045cc:	47b0      	blx	r6
  4045ce:	2801      	cmp	r0, #1
  4045d0:	d00f      	beq.n	4045f2 <nm_spi_write_block+0x3e>
  4045d2:	f240 220f 	movw	r2, #527	; 0x20f
  4045d6:	494b      	ldr	r1, [pc, #300]	; (404704 <nm_spi_write_block+0x150>)
  4045d8:	484b      	ldr	r0, [pc, #300]	; (404708 <nm_spi_write_block+0x154>)
  4045da:	4d4c      	ldr	r5, [pc, #304]	; (40470c <nm_spi_write_block+0x158>)
  4045dc:	47a8      	blx	r5
  4045de:	4621      	mov	r1, r4
  4045e0:	484b      	ldr	r0, [pc, #300]	; (404710 <nm_spi_write_block+0x15c>)
  4045e2:	47a8      	blx	r5
  4045e4:	484b      	ldr	r0, [pc, #300]	; (404714 <nm_spi_write_block+0x160>)
  4045e6:	47a8      	blx	r5
  4045e8:	f06f 0005 	mvn.w	r0, #5
  4045ec:	b005      	add	sp, #20
  4045ee:	e8bd 83f0 	ldmia.w	sp!, {r4, r5, r6, r7, r8, r9, pc}
  4045f2:	20c7      	movs	r0, #199	; 0xc7
  4045f4:	4b48      	ldr	r3, [pc, #288]	; (404718 <nm_spi_write_block+0x164>)
  4045f6:	4798      	blx	r3
  4045f8:	2801      	cmp	r0, #1
  4045fa:	d012      	beq.n	404622 <nm_spi_write_block+0x6e>
  4045fc:	f240 2215 	movw	r2, #533	; 0x215
  404600:	4940      	ldr	r1, [pc, #256]	; (404704 <nm_spi_write_block+0x150>)
  404602:	4841      	ldr	r0, [pc, #260]	; (404708 <nm_spi_write_block+0x154>)
  404604:	4d41      	ldr	r5, [pc, #260]	; (40470c <nm_spi_write_block+0x158>)
  404606:	47a8      	blx	r5
  404608:	4621      	mov	r1, r4
  40460a:	4844      	ldr	r0, [pc, #272]	; (40471c <nm_spi_write_block+0x168>)
  40460c:	47a8      	blx	r5
  40460e:	4841      	ldr	r0, [pc, #260]	; (404714 <nm_spi_write_block+0x160>)
  404610:	47a8      	blx	r5
  404612:	2100      	movs	r1, #0
  404614:	9100      	str	r1, [sp, #0]
  404616:	460b      	mov	r3, r1
  404618:	460a      	mov	r2, r1
  40461a:	20cf      	movs	r0, #207	; 0xcf
  40461c:	4c38      	ldr	r4, [pc, #224]	; (404700 <nm_spi_write_block+0x14c>)
  40461e:	47a0      	blx	r4
  404620:	e7e2      	b.n	4045e8 <nm_spi_write_block+0x34>
  404622:	2400      	movs	r4, #0
  404624:	f8ad 400c 	strh.w	r4, [sp, #12]
  404628:	4f3d      	ldr	r7, [pc, #244]	; (404720 <nm_spi_write_block+0x16c>)
  40462a:	f8df 910c 	ldr.w	r9, [pc, #268]	; 404738 <nm_spi_write_block+0x184>
  40462e:	e01d      	b.n	40466c <nm_spi_write_block+0xb8>
  404630:	f5b5 5f00 	cmp.w	r5, #8192	; 0x2000
  404634:	bf94      	ite	ls
  404636:	2303      	movls	r3, #3
  404638:	2302      	movhi	r3, #2
  40463a:	f063 030f 	orn	r3, r3, #15
  40463e:	f88d 300b 	strb.w	r3, [sp, #11]
  404642:	2101      	movs	r1, #1
  404644:	f10d 000b 	add.w	r0, sp, #11
  404648:	47b8      	blx	r7
  40464a:	b9e8      	cbnz	r0, 404688 <nm_spi_write_block+0xd4>
  40464c:	4631      	mov	r1, r6
  40464e:	eb08 0004 	add.w	r0, r8, r4
  404652:	47b8      	blx	r7
  404654:	2800      	cmp	r0, #0
  404656:	d135      	bne.n	4046c4 <nm_spi_write_block+0x110>
  404658:	f899 3000 	ldrb.w	r3, [r9]
  40465c:	2b00      	cmp	r3, #0
  40465e:	d03c      	beq.n	4046da <nm_spi_write_block+0x126>
  404660:	4434      	add	r4, r6
  404662:	b224      	sxth	r4, r4
  404664:	1bad      	subs	r5, r5, r6
  404666:	b2ad      	uxth	r5, r5
  404668:	2d00      	cmp	r5, #0
  40466a:	d046      	beq.n	4046fa <nm_spi_write_block+0x146>
  40466c:	462e      	mov	r6, r5
  40466e:	f5b5 5f00 	cmp.w	r5, #8192	; 0x2000
  404672:	bf28      	it	cs
  404674:	f44f 5600 	movcs.w	r6, #8192	; 0x2000
  404678:	2c00      	cmp	r4, #0
  40467a:	d1d9      	bne.n	404630 <nm_spi_write_block+0x7c>
  40467c:	f5b5 5f00 	cmp.w	r5, #8192	; 0x2000
  404680:	bf94      	ite	ls
  404682:	2303      	movls	r3, #3
  404684:	2301      	movhi	r3, #1
  404686:	e7d8      	b.n	40463a <nm_spi_write_block+0x86>
  404688:	f44f 72d4 	mov.w	r2, #424	; 0x1a8
  40468c:	4925      	ldr	r1, [pc, #148]	; (404724 <nm_spi_write_block+0x170>)
  40468e:	481e      	ldr	r0, [pc, #120]	; (404708 <nm_spi_write_block+0x154>)
  404690:	4c1e      	ldr	r4, [pc, #120]	; (40470c <nm_spi_write_block+0x158>)
  404692:	47a0      	blx	r4
  404694:	4824      	ldr	r0, [pc, #144]	; (404728 <nm_spi_write_block+0x174>)
  404696:	47a0      	blx	r4
  404698:	481e      	ldr	r0, [pc, #120]	; (404714 <nm_spi_write_block+0x160>)
  40469a:	47a0      	blx	r4
  40469c:	f240 2226 	movw	r2, #550	; 0x226
  4046a0:	4918      	ldr	r1, [pc, #96]	; (404704 <nm_spi_write_block+0x150>)
  4046a2:	4819      	ldr	r0, [pc, #100]	; (404708 <nm_spi_write_block+0x154>)
  4046a4:	4c19      	ldr	r4, [pc, #100]	; (40470c <nm_spi_write_block+0x158>)
  4046a6:	47a0      	blx	r4
  4046a8:	4820      	ldr	r0, [pc, #128]	; (40472c <nm_spi_write_block+0x178>)
  4046aa:	47a0      	blx	r4
  4046ac:	4819      	ldr	r0, [pc, #100]	; (404714 <nm_spi_write_block+0x160>)
  4046ae:	47a0      	blx	r4
  4046b0:	2400      	movs	r4, #0
  4046b2:	9400      	str	r4, [sp, #0]
  4046b4:	4623      	mov	r3, r4
  4046b6:	4622      	mov	r2, r4
  4046b8:	4621      	mov	r1, r4
  4046ba:	20cf      	movs	r0, #207	; 0xcf
  4046bc:	4d10      	ldr	r5, [pc, #64]	; (404700 <nm_spi_write_block+0x14c>)
  4046be:	47a8      	blx	r5
  4046c0:	4620      	mov	r0, r4
  4046c2:	e793      	b.n	4045ec <nm_spi_write_block+0x38>
  4046c4:	f240 12b1 	movw	r2, #433	; 0x1b1
  4046c8:	4916      	ldr	r1, [pc, #88]	; (404724 <nm_spi_write_block+0x170>)
  4046ca:	480f      	ldr	r0, [pc, #60]	; (404708 <nm_spi_write_block+0x154>)
  4046cc:	4c0f      	ldr	r4, [pc, #60]	; (40470c <nm_spi_write_block+0x158>)
  4046ce:	47a0      	blx	r4
  4046d0:	4817      	ldr	r0, [pc, #92]	; (404730 <nm_spi_write_block+0x17c>)
  4046d2:	47a0      	blx	r4
  4046d4:	480f      	ldr	r0, [pc, #60]	; (404714 <nm_spi_write_block+0x160>)
  4046d6:	47a0      	blx	r4
  4046d8:	e7e0      	b.n	40469c <nm_spi_write_block+0xe8>
  4046da:	2102      	movs	r1, #2
  4046dc:	a803      	add	r0, sp, #12
  4046de:	47b8      	blx	r7
  4046e0:	2800      	cmp	r0, #0
  4046e2:	d0bd      	beq.n	404660 <nm_spi_write_block+0xac>
  4046e4:	f240 12bb 	movw	r2, #443	; 0x1bb
  4046e8:	490e      	ldr	r1, [pc, #56]	; (404724 <nm_spi_write_block+0x170>)
  4046ea:	4807      	ldr	r0, [pc, #28]	; (404708 <nm_spi_write_block+0x154>)
  4046ec:	4c07      	ldr	r4, [pc, #28]	; (40470c <nm_spi_write_block+0x158>)
  4046ee:	47a0      	blx	r4
  4046f0:	4810      	ldr	r0, [pc, #64]	; (404734 <nm_spi_write_block+0x180>)
  4046f2:	47a0      	blx	r4
  4046f4:	4807      	ldr	r0, [pc, #28]	; (404714 <nm_spi_write_block+0x160>)
  4046f6:	47a0      	blx	r4
  4046f8:	e7d0      	b.n	40469c <nm_spi_write_block+0xe8>
  4046fa:	2000      	movs	r0, #0
  4046fc:	e776      	b.n	4045ec <nm_spi_write_block+0x38>
  4046fe:	bf00      	nop
  404700:	00404045 	.word	0x00404045
  404704:	0040d8d8 	.word	0x0040d8d8
  404708:	0040d2b8 	.word	0x0040d2b8
  40470c:	004075b5 	.word	0x004075b5
  404710:	0040db7c 	.word	0x0040db7c
  404714:	0040d2e4 	.word	0x0040d2e4
  404718:	00403e49 	.word	0x00403e49
  40471c:	0040dbac 	.word	0x0040dbac
  404720:	00404025 	.word	0x00404025
  404724:	0040d8b8 	.word	0x0040d8b8
  404728:	0040dbe4 	.word	0x0040dbe4
  40472c:	0040dc88 	.word	0x0040dc88
  404730:	0040dc1c 	.word	0x0040dc1c
  404734:	0040dc50 	.word	0x0040dc50
  404738:	2040c368 	.word	0x2040c368

0040473c <Socket_ReadSocketData>:
  40473c:	e92d 4ff8 	stmdb	sp!, {r3, r4, r5, r6, r7, r8, r9, sl, fp, lr}
  404740:	f8bd 4028 	ldrh.w	r4, [sp, #40]	; 0x28
  404744:	b194      	cbz	r4, 40476c <Socket_ReadSocketData+0x30>
  404746:	4681      	mov	r9, r0
  404748:	460e      	mov	r6, r1
  40474a:	4692      	mov	sl, r2
  40474c:	4698      	mov	r8, r3
  40474e:	0103      	lsls	r3, r0, #4
  404750:	4922      	ldr	r1, [pc, #136]	; (4047dc <Socket_ReadSocketData+0xa0>)
  404752:	58cb      	ldr	r3, [r1, r3]
  404754:	b153      	cbz	r3, 40476c <Socket_ReadSocketData+0x30>
  404756:	eb01 1300 	add.w	r3, r1, r0, lsl #4
  40475a:	889b      	ldrh	r3, [r3, #4]
  40475c:	b29b      	uxth	r3, r3
  40475e:	b12b      	cbz	r3, 40476c <Socket_ReadSocketData+0x30>
  404760:	eb01 1300 	add.w	r3, r1, r0, lsl #4
  404764:	7a9b      	ldrb	r3, [r3, #10]
  404766:	b2db      	uxtb	r3, r3
  404768:	2b01      	cmp	r3, #1
  40476a:	d001      	beq.n	404770 <Socket_ReadSocketData+0x34>
  40476c:	e8bd 8ff8 	ldmia.w	sp!, {r3, r4, r5, r6, r7, r8, r9, sl, fp, pc}
  404770:	80f4      	strh	r4, [r6, #6]
  404772:	eb01 1700 	add.w	r7, r1, r0, lsl #4
  404776:	f8df b07c 	ldr.w	fp, [pc, #124]	; 4047f4 <Socket_ReadSocketData+0xb8>
  40477a:	e006      	b.n	40478a <Socket_ReadSocketData+0x4e>
  40477c:	4625      	mov	r5, r4
  40477e:	2301      	movs	r3, #1
  404780:	e00b      	b.n	40479a <Socket_ReadSocketData+0x5e>
  404782:	1b64      	subs	r4, r4, r5
  404784:	b2a4      	uxth	r4, r4
  404786:	44a8      	add	r8, r5
  404788:	b1ec      	cbz	r4, 4047c6 <Socket_ReadSocketData+0x8a>
  40478a:	88bb      	ldrh	r3, [r7, #4]
  40478c:	1ae3      	subs	r3, r4, r3
  40478e:	b21b      	sxth	r3, r3
  404790:	2b00      	cmp	r3, #0
  404792:	ddf3      	ble.n	40477c <Socket_ReadSocketData+0x40>
  404794:	88bd      	ldrh	r5, [r7, #4]
  404796:	b2ad      	uxth	r5, r5
  404798:	2300      	movs	r3, #0
  40479a:	6839      	ldr	r1, [r7, #0]
  40479c:	462a      	mov	r2, r5
  40479e:	4640      	mov	r0, r8
  4047a0:	47d8      	blx	fp
  4047a2:	b990      	cbnz	r0, 4047ca <Socket_ReadSocketData+0x8e>
  4047a4:	683b      	ldr	r3, [r7, #0]
  4047a6:	6033      	str	r3, [r6, #0]
  4047a8:	80b5      	strh	r5, [r6, #4]
  4047aa:	88f3      	ldrh	r3, [r6, #6]
  4047ac:	1b5b      	subs	r3, r3, r5
  4047ae:	80f3      	strh	r3, [r6, #6]
  4047b0:	4b0b      	ldr	r3, [pc, #44]	; (4047e0 <Socket_ReadSocketData+0xa4>)
  4047b2:	681b      	ldr	r3, [r3, #0]
  4047b4:	2b00      	cmp	r3, #0
  4047b6:	d0e4      	beq.n	404782 <Socket_ReadSocketData+0x46>
  4047b8:	4b09      	ldr	r3, [pc, #36]	; (4047e0 <Socket_ReadSocketData+0xa4>)
  4047ba:	681b      	ldr	r3, [r3, #0]
  4047bc:	4632      	mov	r2, r6
  4047be:	4651      	mov	r1, sl
  4047c0:	4648      	mov	r0, r9
  4047c2:	4798      	blx	r3
  4047c4:	e7dd      	b.n	404782 <Socket_ReadSocketData+0x46>
  4047c6:	e8bd 8ff8 	ldmia.w	sp!, {r3, r4, r5, r6, r7, r8, r9, sl, fp, pc}
  4047ca:	4806      	ldr	r0, [pc, #24]	; (4047e4 <Socket_ReadSocketData+0xa8>)
  4047cc:	4d06      	ldr	r5, [pc, #24]	; (4047e8 <Socket_ReadSocketData+0xac>)
  4047ce:	47a8      	blx	r5
  4047d0:	4621      	mov	r1, r4
  4047d2:	4806      	ldr	r0, [pc, #24]	; (4047ec <Socket_ReadSocketData+0xb0>)
  4047d4:	47a8      	blx	r5
  4047d6:	4806      	ldr	r0, [pc, #24]	; (4047f0 <Socket_ReadSocketData+0xb4>)
  4047d8:	47a8      	blx	r5
  4047da:	e7c7      	b.n	40476c <Socket_ReadSocketData+0x30>
  4047dc:	2040ce5c 	.word	0x2040ce5c
  4047e0:	2040cf0c 	.word	0x2040cf0c
  4047e4:	0040d58c 	.word	0x0040d58c
  4047e8:	004075b5 	.word	0x004075b5
  4047ec:	0040dec4 	.word	0x0040dec4
  4047f0:	0040d2e4 	.word	0x0040d2e4
  4047f4:	00402e75 	.word	0x00402e75

004047f8 <m2m_ip_cb>:
  4047f8:	b5f0      	push	{r4, r5, r6, r7, lr}
  4047fa:	b099      	sub	sp, #100	; 0x64
  4047fc:	4614      	mov	r4, r2
  4047fe:	2841      	cmp	r0, #65	; 0x41
  404800:	d049      	beq.n	404896 <m2m_ip_cb+0x9e>
  404802:	460d      	mov	r5, r1
  404804:	2842      	cmp	r0, #66	; 0x42
  404806:	d05f      	beq.n	4048c8 <m2m_ip_cb+0xd0>
  404808:	2843      	cmp	r0, #67	; 0x43
  40480a:	d075      	beq.n	4048f8 <m2m_ip_cb+0x100>
  40480c:	2844      	cmp	r0, #68	; 0x44
  40480e:	f000 80b0 	beq.w	404972 <m2m_ip_cb+0x17a>
  404812:	284b      	cmp	r0, #75	; 0x4b
  404814:	f000 80ad 	beq.w	404972 <m2m_ip_cb+0x17a>
  404818:	284a      	cmp	r0, #74	; 0x4a
  40481a:	f000 80cc 	beq.w	4049b6 <m2m_ip_cb+0x1be>
  40481e:	f1a0 0346 	sub.w	r3, r0, #70	; 0x46
  404822:	b2db      	uxtb	r3, r3
  404824:	2b07      	cmp	r3, #7
  404826:	f200 80f4 	bhi.w	404a12 <m2m_ip_cb+0x21a>
  40482a:	2285      	movs	r2, #133	; 0x85
  40482c:	fa22 f303 	lsr.w	r3, r2, r3
  404830:	f013 0f01 	tst.w	r3, #1
  404834:	f000 80ed 	beq.w	404a12 <m2m_ip_cb+0x21a>
  404838:	2848      	cmp	r0, #72	; 0x48
  40483a:	bf14      	ite	ne
  40483c:	2706      	movne	r7, #6
  40483e:	2709      	moveq	r7, #9
  404840:	2300      	movs	r3, #0
  404842:	2210      	movs	r2, #16
  404844:	a903      	add	r1, sp, #12
  404846:	4620      	mov	r0, r4
  404848:	4e93      	ldr	r6, [pc, #588]	; (404a98 <m2m_ip_cb+0x2a0>)
  40484a:	47b0      	blx	r6
  40484c:	2800      	cmp	r0, #0
  40484e:	f040 80b0 	bne.w	4049b2 <m2m_ip_cb+0x1ba>
  404852:	f99d 0018 	ldrsb.w	r0, [sp, #24]
  404856:	f8bd 101a 	ldrh.w	r1, [sp, #26]
  40485a:	4a90      	ldr	r2, [pc, #576]	; (404a9c <m2m_ip_cb+0x2a4>)
  40485c:	eb02 1200 	add.w	r2, r2, r0, lsl #4
  404860:	2300      	movs	r3, #0
  404862:	7313      	strb	r3, [r2, #12]
  404864:	f9bd e014 	ldrsh.w	lr, [sp, #20]
  404868:	f8bd 3016 	ldrh.w	r3, [sp, #22]
  40486c:	f8bd 600e 	ldrh.w	r6, [sp, #14]
  404870:	f8ad 6026 	strh.w	r6, [sp, #38]	; 0x26
  404874:	9e04      	ldr	r6, [sp, #16]
  404876:	960a      	str	r6, [sp, #40]	; 0x28
  404878:	88d2      	ldrh	r2, [r2, #6]
  40487a:	b292      	uxth	r2, r2
  40487c:	4291      	cmp	r1, r2
  40487e:	f000 80ac 	beq.w	4049da <m2m_ip_cb+0x1e2>
  404882:	2d10      	cmp	r5, #16
  404884:	f240 8095 	bls.w	4049b2 <m2m_ip_cb+0x1ba>
  404888:	2301      	movs	r3, #1
  40488a:	2200      	movs	r2, #0
  40488c:	4611      	mov	r1, r2
  40488e:	4610      	mov	r0, r2
  404890:	4c81      	ldr	r4, [pc, #516]	; (404a98 <m2m_ip_cb+0x2a0>)
  404892:	47a0      	blx	r4
  404894:	e08d      	b.n	4049b2 <m2m_ip_cb+0x1ba>
  404896:	2300      	movs	r3, #0
  404898:	2204      	movs	r2, #4
  40489a:	a907      	add	r1, sp, #28
  40489c:	4620      	mov	r0, r4
  40489e:	4c7e      	ldr	r4, [pc, #504]	; (404a98 <m2m_ip_cb+0x2a0>)
  4048a0:	47a0      	blx	r4
  4048a2:	2800      	cmp	r0, #0
  4048a4:	f040 8085 	bne.w	4049b2 <m2m_ip_cb+0x1ba>
  4048a8:	f89d 301d 	ldrb.w	r3, [sp, #29]
  4048ac:	f88d 300c 	strb.w	r3, [sp, #12]
  4048b0:	4b7b      	ldr	r3, [pc, #492]	; (404aa0 <m2m_ip_cb+0x2a8>)
  4048b2:	681b      	ldr	r3, [r3, #0]
  4048b4:	2b00      	cmp	r3, #0
  4048b6:	d07c      	beq.n	4049b2 <m2m_ip_cb+0x1ba>
  4048b8:	4b79      	ldr	r3, [pc, #484]	; (404aa0 <m2m_ip_cb+0x2a8>)
  4048ba:	681b      	ldr	r3, [r3, #0]
  4048bc:	aa03      	add	r2, sp, #12
  4048be:	2101      	movs	r1, #1
  4048c0:	f99d 001c 	ldrsb.w	r0, [sp, #28]
  4048c4:	4798      	blx	r3
  4048c6:	e074      	b.n	4049b2 <m2m_ip_cb+0x1ba>
  4048c8:	2300      	movs	r3, #0
  4048ca:	2204      	movs	r2, #4
  4048cc:	a907      	add	r1, sp, #28
  4048ce:	4620      	mov	r0, r4
  4048d0:	4c71      	ldr	r4, [pc, #452]	; (404a98 <m2m_ip_cb+0x2a0>)
  4048d2:	47a0      	blx	r4
  4048d4:	2800      	cmp	r0, #0
  4048d6:	d16c      	bne.n	4049b2 <m2m_ip_cb+0x1ba>
  4048d8:	f89d 301d 	ldrb.w	r3, [sp, #29]
  4048dc:	f88d 300c 	strb.w	r3, [sp, #12]
  4048e0:	4b6f      	ldr	r3, [pc, #444]	; (404aa0 <m2m_ip_cb+0x2a8>)
  4048e2:	681b      	ldr	r3, [r3, #0]
  4048e4:	2b00      	cmp	r3, #0
  4048e6:	d064      	beq.n	4049b2 <m2m_ip_cb+0x1ba>
  4048e8:	4b6d      	ldr	r3, [pc, #436]	; (404aa0 <m2m_ip_cb+0x2a8>)
  4048ea:	681b      	ldr	r3, [r3, #0]
  4048ec:	aa03      	add	r2, sp, #12
  4048ee:	2102      	movs	r1, #2
  4048f0:	f99d 001c 	ldrsb.w	r0, [sp, #28]
  4048f4:	4798      	blx	r3
  4048f6:	e05c      	b.n	4049b2 <m2m_ip_cb+0x1ba>
  4048f8:	2300      	movs	r3, #0
  4048fa:	220c      	movs	r2, #12
  4048fc:	eb0d 0102 	add.w	r1, sp, r2
  404900:	4620      	mov	r0, r4
  404902:	4c65      	ldr	r4, [pc, #404]	; (404a98 <m2m_ip_cb+0x2a0>)
  404904:	47a0      	blx	r4
  404906:	2800      	cmp	r0, #0
  404908:	d153      	bne.n	4049b2 <m2m_ip_cb+0x1ba>
  40490a:	f99d 3015 	ldrsb.w	r3, [sp, #21]
  40490e:	2b00      	cmp	r3, #0
  404910:	db19      	blt.n	404946 <m2m_ip_cb+0x14e>
  404912:	4a62      	ldr	r2, [pc, #392]	; (404a9c <m2m_ip_cb+0x2a4>)
  404914:	eb02 1203 	add.w	r2, r2, r3, lsl #4
  404918:	2100      	movs	r1, #0
  40491a:	72d1      	strb	r1, [r2, #11]
  40491c:	2101      	movs	r1, #1
  40491e:	7291      	strb	r1, [r2, #10]
  404920:	4960      	ldr	r1, [pc, #384]	; (404aa4 <m2m_ip_cb+0x2ac>)
  404922:	880a      	ldrh	r2, [r1, #0]
  404924:	3201      	adds	r2, #1
  404926:	b292      	uxth	r2, r2
  404928:	800a      	strh	r2, [r1, #0]
  40492a:	880a      	ldrh	r2, [r1, #0]
  40492c:	b292      	uxth	r2, r2
  40492e:	b91a      	cbnz	r2, 404938 <m2m_ip_cb+0x140>
  404930:	880a      	ldrh	r2, [r1, #0]
  404932:	3201      	adds	r2, #1
  404934:	b292      	uxth	r2, r2
  404936:	800a      	strh	r2, [r1, #0]
  404938:	4a5a      	ldr	r2, [pc, #360]	; (404aa4 <m2m_ip_cb+0x2ac>)
  40493a:	8811      	ldrh	r1, [r2, #0]
  40493c:	b289      	uxth	r1, r1
  40493e:	4a57      	ldr	r2, [pc, #348]	; (404a9c <m2m_ip_cb+0x2a4>)
  404940:	eb02 1203 	add.w	r2, r2, r3, lsl #4
  404944:	80d1      	strh	r1, [r2, #6]
  404946:	f88d 301c 	strb.w	r3, [sp, #28]
  40494a:	2302      	movs	r3, #2
  40494c:	f8ad 3020 	strh.w	r3, [sp, #32]
  404950:	f8bd 300e 	ldrh.w	r3, [sp, #14]
  404954:	f8ad 3022 	strh.w	r3, [sp, #34]	; 0x22
  404958:	9b04      	ldr	r3, [sp, #16]
  40495a:	9309      	str	r3, [sp, #36]	; 0x24
  40495c:	4b50      	ldr	r3, [pc, #320]	; (404aa0 <m2m_ip_cb+0x2a8>)
  40495e:	681b      	ldr	r3, [r3, #0]
  404960:	b33b      	cbz	r3, 4049b2 <m2m_ip_cb+0x1ba>
  404962:	4b4f      	ldr	r3, [pc, #316]	; (404aa0 <m2m_ip_cb+0x2a8>)
  404964:	681b      	ldr	r3, [r3, #0]
  404966:	aa07      	add	r2, sp, #28
  404968:	2104      	movs	r1, #4
  40496a:	f99d 0014 	ldrsb.w	r0, [sp, #20]
  40496e:	4798      	blx	r3
  404970:	e01f      	b.n	4049b2 <m2m_ip_cb+0x1ba>
  404972:	2300      	movs	r3, #0
  404974:	2204      	movs	r2, #4
  404976:	a907      	add	r1, sp, #28
  404978:	4620      	mov	r0, r4
  40497a:	4c47      	ldr	r4, [pc, #284]	; (404a98 <m2m_ip_cb+0x2a0>)
  40497c:	47a0      	blx	r4
  40497e:	b9c0      	cbnz	r0, 4049b2 <m2m_ip_cb+0x1ba>
  404980:	f99d 001c 	ldrsb.w	r0, [sp, #28]
  404984:	f88d 000c 	strb.w	r0, [sp, #12]
  404988:	f99d 301d 	ldrsb.w	r3, [sp, #29]
  40498c:	f88d 300d 	strb.w	r3, [sp, #13]
  404990:	b93b      	cbnz	r3, 4049a2 <m2m_ip_cb+0x1aa>
  404992:	f8bd 301e 	ldrh.w	r3, [sp, #30]
  404996:	3b08      	subs	r3, #8
  404998:	b29b      	uxth	r3, r3
  40499a:	4a40      	ldr	r2, [pc, #256]	; (404a9c <m2m_ip_cb+0x2a4>)
  40499c:	eb02 1200 	add.w	r2, r2, r0, lsl #4
  4049a0:	8113      	strh	r3, [r2, #8]
  4049a2:	4b3f      	ldr	r3, [pc, #252]	; (404aa0 <m2m_ip_cb+0x2a8>)
  4049a4:	681b      	ldr	r3, [r3, #0]
  4049a6:	b123      	cbz	r3, 4049b2 <m2m_ip_cb+0x1ba>
  4049a8:	4b3d      	ldr	r3, [pc, #244]	; (404aa0 <m2m_ip_cb+0x2a8>)
  4049aa:	681b      	ldr	r3, [r3, #0]
  4049ac:	aa03      	add	r2, sp, #12
  4049ae:	2105      	movs	r1, #5
  4049b0:	4798      	blx	r3
  4049b2:	b019      	add	sp, #100	; 0x64
  4049b4:	bdf0      	pop	{r4, r5, r6, r7, pc}
  4049b6:	2300      	movs	r3, #0
  4049b8:	2244      	movs	r2, #68	; 0x44
  4049ba:	a907      	add	r1, sp, #28
  4049bc:	4620      	mov	r0, r4
  4049be:	4c36      	ldr	r4, [pc, #216]	; (404a98 <m2m_ip_cb+0x2a0>)
  4049c0:	47a0      	blx	r4
  4049c2:	2800      	cmp	r0, #0
  4049c4:	d1f5      	bne.n	4049b2 <m2m_ip_cb+0x1ba>
  4049c6:	4b38      	ldr	r3, [pc, #224]	; (404aa8 <m2m_ip_cb+0x2b0>)
  4049c8:	681b      	ldr	r3, [r3, #0]
  4049ca:	2b00      	cmp	r3, #0
  4049cc:	d0f1      	beq.n	4049b2 <m2m_ip_cb+0x1ba>
  4049ce:	4b36      	ldr	r3, [pc, #216]	; (404aa8 <m2m_ip_cb+0x2b0>)
  4049d0:	681b      	ldr	r3, [r3, #0]
  4049d2:	9917      	ldr	r1, [sp, #92]	; 0x5c
  4049d4:	a807      	add	r0, sp, #28
  4049d6:	4798      	blx	r3
  4049d8:	e7eb      	b.n	4049b2 <m2m_ip_cb+0x1ba>
  4049da:	f1be 0f00 	cmp.w	lr, #0
  4049de:	dd01      	ble.n	4049e4 <m2m_ip_cb+0x1ec>
  4049e0:	45ae      	cmp	lr, r5
  4049e2:	db0d      	blt.n	404a00 <m2m_ip_cb+0x208>
  4049e4:	f8ad e020 	strh.w	lr, [sp, #32]
  4049e8:	2300      	movs	r3, #0
  4049ea:	9307      	str	r3, [sp, #28]
  4049ec:	4b2c      	ldr	r3, [pc, #176]	; (404aa0 <m2m_ip_cb+0x2a8>)
  4049ee:	681b      	ldr	r3, [r3, #0]
  4049f0:	2b00      	cmp	r3, #0
  4049f2:	d0de      	beq.n	4049b2 <m2m_ip_cb+0x1ba>
  4049f4:	4b2a      	ldr	r3, [pc, #168]	; (404aa0 <m2m_ip_cb+0x2a8>)
  4049f6:	681b      	ldr	r3, [r3, #0]
  4049f8:	aa07      	add	r2, sp, #28
  4049fa:	4639      	mov	r1, r7
  4049fc:	4798      	blx	r3
  4049fe:	e7d8      	b.n	4049b2 <m2m_ip_cb+0x1ba>
  404a00:	fa1f f28e 	uxth.w	r2, lr
  404a04:	9200      	str	r2, [sp, #0]
  404a06:	4423      	add	r3, r4
  404a08:	463a      	mov	r2, r7
  404a0a:	a907      	add	r1, sp, #28
  404a0c:	4c27      	ldr	r4, [pc, #156]	; (404aac <m2m_ip_cb+0x2b4>)
  404a0e:	47a0      	blx	r4
  404a10:	e7cf      	b.n	4049b2 <m2m_ip_cb+0x1ba>
  404a12:	f000 03fd 	and.w	r3, r0, #253	; 0xfd
  404a16:	2b45      	cmp	r3, #69	; 0x45
  404a18:	d019      	beq.n	404a4e <m2m_ip_cb+0x256>
  404a1a:	284c      	cmp	r0, #76	; 0x4c
  404a1c:	d017      	beq.n	404a4e <m2m_ip_cb+0x256>
  404a1e:	2852      	cmp	r0, #82	; 0x52
  404a20:	d1c7      	bne.n	4049b2 <m2m_ip_cb+0x1ba>
  404a22:	2301      	movs	r3, #1
  404a24:	2214      	movs	r2, #20
  404a26:	a907      	add	r1, sp, #28
  404a28:	4620      	mov	r0, r4
  404a2a:	4c1b      	ldr	r4, [pc, #108]	; (404a98 <m2m_ip_cb+0x2a0>)
  404a2c:	47a0      	blx	r4
  404a2e:	2800      	cmp	r0, #0
  404a30:	d1bf      	bne.n	4049b2 <m2m_ip_cb+0x1ba>
  404a32:	4b1f      	ldr	r3, [pc, #124]	; (404ab0 <m2m_ip_cb+0x2b8>)
  404a34:	9a08      	ldr	r2, [sp, #32]
  404a36:	601a      	str	r2, [r3, #0]
  404a38:	681b      	ldr	r3, [r3, #0]
  404a3a:	2b00      	cmp	r3, #0
  404a3c:	d0b9      	beq.n	4049b2 <m2m_ip_cb+0x1ba>
  404a3e:	4b1c      	ldr	r3, [pc, #112]	; (404ab0 <m2m_ip_cb+0x2b8>)
  404a40:	681b      	ldr	r3, [r3, #0]
  404a42:	f89d 202c 	ldrb.w	r2, [sp, #44]	; 0x2c
  404a46:	9909      	ldr	r1, [sp, #36]	; 0x24
  404a48:	9807      	ldr	r0, [sp, #28]
  404a4a:	4798      	blx	r3
  404a4c:	e7b1      	b.n	4049b2 <m2m_ip_cb+0x1ba>
  404a4e:	2847      	cmp	r0, #71	; 0x47
  404a50:	bf14      	ite	ne
  404a52:	2507      	movne	r5, #7
  404a54:	2508      	moveq	r5, #8
  404a56:	2300      	movs	r3, #0
  404a58:	2208      	movs	r2, #8
  404a5a:	a907      	add	r1, sp, #28
  404a5c:	4620      	mov	r0, r4
  404a5e:	4c0e      	ldr	r4, [pc, #56]	; (404a98 <m2m_ip_cb+0x2a0>)
  404a60:	47a0      	blx	r4
  404a62:	2800      	cmp	r0, #0
  404a64:	d1a5      	bne.n	4049b2 <m2m_ip_cb+0x1ba>
  404a66:	f99d 001c 	ldrsb.w	r0, [sp, #28]
  404a6a:	f8bd 2020 	ldrh.w	r2, [sp, #32]
  404a6e:	f8bd 301e 	ldrh.w	r3, [sp, #30]
  404a72:	f8ad 300c 	strh.w	r3, [sp, #12]
  404a76:	4b09      	ldr	r3, [pc, #36]	; (404a9c <m2m_ip_cb+0x2a4>)
  404a78:	eb03 1300 	add.w	r3, r3, r0, lsl #4
  404a7c:	88db      	ldrh	r3, [r3, #6]
  404a7e:	b29b      	uxth	r3, r3
  404a80:	429a      	cmp	r2, r3
  404a82:	d196      	bne.n	4049b2 <m2m_ip_cb+0x1ba>
  404a84:	4b06      	ldr	r3, [pc, #24]	; (404aa0 <m2m_ip_cb+0x2a8>)
  404a86:	681b      	ldr	r3, [r3, #0]
  404a88:	2b00      	cmp	r3, #0
  404a8a:	d092      	beq.n	4049b2 <m2m_ip_cb+0x1ba>
  404a8c:	4b04      	ldr	r3, [pc, #16]	; (404aa0 <m2m_ip_cb+0x2a8>)
  404a8e:	681b      	ldr	r3, [r3, #0]
  404a90:	aa03      	add	r2, sp, #12
  404a92:	4629      	mov	r1, r5
  404a94:	4798      	blx	r3
  404a96:	e78c      	b.n	4049b2 <m2m_ip_cb+0x1ba>
  404a98:	00402e75 	.word	0x00402e75
  404a9c:	2040ce5c 	.word	0x2040ce5c
  404aa0:	2040cf0c 	.word	0x2040cf0c
  404aa4:	2040c36a 	.word	0x2040c36a
  404aa8:	2040cf14 	.word	0x2040cf14
  404aac:	0040473d 	.word	0x0040473d
  404ab0:	2040cf10 	.word	0x2040cf10

00404ab4 <socketInit>:
  404ab4:	b508      	push	{r3, lr}
  404ab6:	4b0a      	ldr	r3, [pc, #40]	; (404ae0 <socketInit+0x2c>)
  404ab8:	781b      	ldrb	r3, [r3, #0]
  404aba:	b103      	cbz	r3, 404abe <socketInit+0xa>
  404abc:	bd08      	pop	{r3, pc}
  404abe:	22b0      	movs	r2, #176	; 0xb0
  404ac0:	2100      	movs	r1, #0
  404ac2:	4808      	ldr	r0, [pc, #32]	; (404ae4 <socketInit+0x30>)
  404ac4:	4b08      	ldr	r3, [pc, #32]	; (404ae8 <socketInit+0x34>)
  404ac6:	4798      	blx	r3
  404ac8:	4908      	ldr	r1, [pc, #32]	; (404aec <socketInit+0x38>)
  404aca:	2002      	movs	r0, #2
  404acc:	4b08      	ldr	r3, [pc, #32]	; (404af0 <socketInit+0x3c>)
  404ace:	4798      	blx	r3
  404ad0:	2201      	movs	r2, #1
  404ad2:	4b03      	ldr	r3, [pc, #12]	; (404ae0 <socketInit+0x2c>)
  404ad4:	701a      	strb	r2, [r3, #0]
  404ad6:	2200      	movs	r2, #0
  404ad8:	4b06      	ldr	r3, [pc, #24]	; (404af4 <socketInit+0x40>)
  404ada:	801a      	strh	r2, [r3, #0]
  404adc:	e7ee      	b.n	404abc <socketInit+0x8>
  404ade:	bf00      	nop
  404ae0:	2040c369 	.word	0x2040c369
  404ae4:	2040ce5c 	.word	0x2040ce5c
  404ae8:	00402821 	.word	0x00402821
  404aec:	004047f9 	.word	0x004047f9
  404af0:	00402f89 	.word	0x00402f89
  404af4:	2040c36a 	.word	0x2040c36a

00404af8 <registerSocketCallback>:
  404af8:	4b02      	ldr	r3, [pc, #8]	; (404b04 <registerSocketCallback+0xc>)
  404afa:	6018      	str	r0, [r3, #0]
  404afc:	4b02      	ldr	r3, [pc, #8]	; (404b08 <registerSocketCallback+0x10>)
  404afe:	6019      	str	r1, [r3, #0]
  404b00:	4770      	bx	lr
  404b02:	bf00      	nop
  404b04:	2040cf0c 	.word	0x2040cf0c
  404b08:	2040cf14 	.word	0x2040cf14

00404b0c <socket>:
  404b0c:	b5f0      	push	{r4, r5, r6, r7, lr}
  404b0e:	b087      	sub	sp, #28
  404b10:	2802      	cmp	r0, #2
  404b12:	d158      	bne.n	404bc6 <socket+0xba>
  404b14:	2901      	cmp	r1, #1
  404b16:	d059      	beq.n	404bcc <socket+0xc0>
  404b18:	2902      	cmp	r1, #2
  404b1a:	d116      	bne.n	404b4a <socket+0x3e>
  404b1c:	260b      	movs	r6, #11
  404b1e:	2407      	movs	r4, #7
  404b20:	4625      	mov	r5, r4
  404b22:	4b2e      	ldr	r3, [pc, #184]	; (404bdc <socket+0xd0>)
  404b24:	eb03 1304 	add.w	r3, r3, r4, lsl #4
  404b28:	7a9b      	ldrb	r3, [r3, #10]
  404b2a:	2b00      	cmp	r3, #0
  404b2c:	d051      	beq.n	404bd2 <socket+0xc6>
  404b2e:	1c63      	adds	r3, r4, #1
  404b30:	b2db      	uxtb	r3, r3
  404b32:	4f2a      	ldr	r7, [pc, #168]	; (404bdc <socket+0xd0>)
  404b34:	b2dc      	uxtb	r4, r3
  404b36:	42b4      	cmp	r4, r6
  404b38:	d240      	bcs.n	404bbc <socket+0xb0>
  404b3a:	461d      	mov	r5, r3
  404b3c:	eb07 1103 	add.w	r1, r7, r3, lsl #4
  404b40:	7a89      	ldrb	r1, [r1, #10]
  404b42:	1c58      	adds	r0, r3, #1
  404b44:	b121      	cbz	r1, 404b50 <socket+0x44>
  404b46:	4603      	mov	r3, r0
  404b48:	e7f4      	b.n	404b34 <socket+0x28>
  404b4a:	f04f 34ff 	mov.w	r4, #4294967295
  404b4e:	e037      	b.n	404bc0 <socket+0xb4>
  404b50:	4822      	ldr	r0, [pc, #136]	; (404bdc <socket+0xd0>)
  404b52:	eb00 1003 	add.w	r0, r0, r3, lsl #4
  404b56:	4616      	mov	r6, r2
  404b58:	2210      	movs	r2, #16
  404b5a:	2100      	movs	r1, #0
  404b5c:	4b20      	ldr	r3, [pc, #128]	; (404be0 <socket+0xd4>)
  404b5e:	4798      	blx	r3
  404b60:	4b1e      	ldr	r3, [pc, #120]	; (404bdc <socket+0xd0>)
  404b62:	eb03 1305 	add.w	r3, r3, r5, lsl #4
  404b66:	2201      	movs	r2, #1
  404b68:	729a      	strb	r2, [r3, #10]
  404b6a:	4a1e      	ldr	r2, [pc, #120]	; (404be4 <socket+0xd8>)
  404b6c:	8813      	ldrh	r3, [r2, #0]
  404b6e:	3301      	adds	r3, #1
  404b70:	b29b      	uxth	r3, r3
  404b72:	8013      	strh	r3, [r2, #0]
  404b74:	8813      	ldrh	r3, [r2, #0]
  404b76:	b29b      	uxth	r3, r3
  404b78:	b91b      	cbnz	r3, 404b82 <socket+0x76>
  404b7a:	8813      	ldrh	r3, [r2, #0]
  404b7c:	3301      	adds	r3, #1
  404b7e:	b29b      	uxth	r3, r3
  404b80:	8013      	strh	r3, [r2, #0]
  404b82:	4b18      	ldr	r3, [pc, #96]	; (404be4 <socket+0xd8>)
  404b84:	881a      	ldrh	r2, [r3, #0]
  404b86:	b292      	uxth	r2, r2
  404b88:	4b14      	ldr	r3, [pc, #80]	; (404bdc <socket+0xd0>)
  404b8a:	eb03 1305 	add.w	r3, r3, r5, lsl #4
  404b8e:	80da      	strh	r2, [r3, #6]
  404b90:	b264      	sxtb	r4, r4
  404b92:	f016 0f01 	tst.w	r6, #1
  404b96:	d013      	beq.n	404bc0 <socket+0xb4>
  404b98:	aa06      	add	r2, sp, #24
  404b9a:	f802 4d04 	strb.w	r4, [r2, #-4]!
  404b9e:	4b0f      	ldr	r3, [pc, #60]	; (404bdc <socket+0xd0>)
  404ba0:	eb03 1505 	add.w	r5, r3, r5, lsl #4
  404ba4:	2321      	movs	r3, #33	; 0x21
  404ba6:	72eb      	strb	r3, [r5, #11]
  404ba8:	2300      	movs	r3, #0
  404baa:	9302      	str	r3, [sp, #8]
  404bac:	9301      	str	r3, [sp, #4]
  404bae:	9300      	str	r3, [sp, #0]
  404bb0:	2304      	movs	r3, #4
  404bb2:	2150      	movs	r1, #80	; 0x50
  404bb4:	2002      	movs	r0, #2
  404bb6:	4d0c      	ldr	r5, [pc, #48]	; (404be8 <socket+0xdc>)
  404bb8:	47a8      	blx	r5
  404bba:	e001      	b.n	404bc0 <socket+0xb4>
  404bbc:	f04f 34ff 	mov.w	r4, #4294967295
  404bc0:	4620      	mov	r0, r4
  404bc2:	b007      	add	sp, #28
  404bc4:	bdf0      	pop	{r4, r5, r6, r7, pc}
  404bc6:	f04f 34ff 	mov.w	r4, #4294967295
  404bca:	e7f9      	b.n	404bc0 <socket+0xb4>
  404bcc:	2607      	movs	r6, #7
  404bce:	2400      	movs	r4, #0
  404bd0:	e7a6      	b.n	404b20 <socket+0x14>
  404bd2:	4802      	ldr	r0, [pc, #8]	; (404bdc <socket+0xd0>)
  404bd4:	eb00 1004 	add.w	r0, r0, r4, lsl #4
  404bd8:	e7bd      	b.n	404b56 <socket+0x4a>
  404bda:	bf00      	nop
  404bdc:	2040ce5c 	.word	0x2040ce5c
  404be0:	00402821 	.word	0x00402821
  404be4:	2040c36a 	.word	0x2040c36a
  404be8:	00402985 	.word	0x00402985

00404bec <connect>:
  404bec:	b530      	push	{r4, r5, lr}
  404bee:	b089      	sub	sp, #36	; 0x24
  404bf0:	1e04      	subs	r4, r0, #0
  404bf2:	db36      	blt.n	404c62 <connect+0x76>
  404bf4:	2900      	cmp	r1, #0
  404bf6:	d034      	beq.n	404c62 <connect+0x76>
  404bf8:	4b1d      	ldr	r3, [pc, #116]	; (404c70 <connect+0x84>)
  404bfa:	eb03 1304 	add.w	r3, r3, r4, lsl #4
  404bfe:	7a9b      	ldrb	r3, [r3, #10]
  404c00:	b2db      	uxtb	r3, r3
  404c02:	2a00      	cmp	r2, #0
  404c04:	d030      	beq.n	404c68 <connect+0x7c>
  404c06:	2b01      	cmp	r3, #1
  404c08:	d12e      	bne.n	404c68 <connect+0x7c>
  404c0a:	4b19      	ldr	r3, [pc, #100]	; (404c70 <connect+0x84>)
  404c0c:	eb03 1304 	add.w	r3, r3, r4, lsl #4
  404c10:	7adb      	ldrb	r3, [r3, #11]
  404c12:	f013 0f01 	tst.w	r3, #1
  404c16:	d022      	beq.n	404c5e <connect+0x72>
  404c18:	4b15      	ldr	r3, [pc, #84]	; (404c70 <connect+0x84>)
  404c1a:	eb03 1304 	add.w	r3, r3, r4, lsl #4
  404c1e:	7adb      	ldrb	r3, [r3, #11]
  404c20:	f88d 301d 	strb.w	r3, [sp, #29]
  404c24:	254b      	movs	r5, #75	; 0x4b
  404c26:	f88d 401c 	strb.w	r4, [sp, #28]
  404c2a:	2208      	movs	r2, #8
  404c2c:	a805      	add	r0, sp, #20
  404c2e:	4b11      	ldr	r3, [pc, #68]	; (404c74 <connect+0x88>)
  404c30:	4798      	blx	r3
  404c32:	480f      	ldr	r0, [pc, #60]	; (404c70 <connect+0x84>)
  404c34:	eb00 1004 	add.w	r0, r0, r4, lsl #4
  404c38:	88c3      	ldrh	r3, [r0, #6]
  404c3a:	f8ad 301e 	strh.w	r3, [sp, #30]
  404c3e:	2300      	movs	r3, #0
  404c40:	9302      	str	r3, [sp, #8]
  404c42:	9301      	str	r3, [sp, #4]
  404c44:	9300      	str	r3, [sp, #0]
  404c46:	230c      	movs	r3, #12
  404c48:	aa05      	add	r2, sp, #20
  404c4a:	4629      	mov	r1, r5
  404c4c:	2002      	movs	r0, #2
  404c4e:	4c0a      	ldr	r4, [pc, #40]	; (404c78 <connect+0x8c>)
  404c50:	47a0      	blx	r4
  404c52:	2800      	cmp	r0, #0
  404c54:	bf18      	it	ne
  404c56:	f06f 0008 	mvnne.w	r0, #8
  404c5a:	b009      	add	sp, #36	; 0x24
  404c5c:	bd30      	pop	{r4, r5, pc}
  404c5e:	2544      	movs	r5, #68	; 0x44
  404c60:	e7e1      	b.n	404c26 <connect+0x3a>
  404c62:	f06f 0005 	mvn.w	r0, #5
  404c66:	e7f8      	b.n	404c5a <connect+0x6e>
  404c68:	f06f 0005 	mvn.w	r0, #5
  404c6c:	e7f5      	b.n	404c5a <connect+0x6e>
  404c6e:	bf00      	nop
  404c70:	2040ce5c 	.word	0x2040ce5c
  404c74:	0040280d 	.word	0x0040280d
  404c78:	00402985 	.word	0x00402985

00404c7c <send>:
  404c7c:	b530      	push	{r4, r5, lr}
  404c7e:	b089      	sub	sp, #36	; 0x24
  404c80:	460c      	mov	r4, r1
  404c82:	3100      	adds	r1, #0
  404c84:	bf18      	it	ne
  404c86:	2101      	movne	r1, #1
  404c88:	f5b2 6faf 	cmp.w	r2, #1400	; 0x578
  404c8c:	bf88      	it	hi
  404c8e:	2100      	movhi	r1, #0
  404c90:	2900      	cmp	r1, #0
  404c92:	d037      	beq.n	404d04 <send+0x88>
  404c94:	2800      	cmp	r0, #0
  404c96:	db35      	blt.n	404d04 <send+0x88>
  404c98:	4b1d      	ldr	r3, [pc, #116]	; (404d10 <send+0x94>)
  404c9a:	eb03 1300 	add.w	r3, r3, r0, lsl #4
  404c9e:	7a9b      	ldrb	r3, [r3, #10]
  404ca0:	b2db      	uxtb	r3, r3
  404ca2:	2b01      	cmp	r3, #1
  404ca4:	d131      	bne.n	404d0a <send+0x8e>
  404ca6:	f88d 0010 	strb.w	r0, [sp, #16]
  404caa:	f8ad 2012 	strh.w	r2, [sp, #18]
  404cae:	4b18      	ldr	r3, [pc, #96]	; (404d10 <send+0x94>)
  404cb0:	eb03 1300 	add.w	r3, r3, r0, lsl #4
  404cb4:	88db      	ldrh	r3, [r3, #6]
  404cb6:	f8ad 301c 	strh.w	r3, [sp, #28]
  404cba:	2807      	cmp	r0, #7
  404cbc:	bfb4      	ite	lt
  404cbe:	2550      	movlt	r5, #80	; 0x50
  404cc0:	2544      	movge	r5, #68	; 0x44
  404cc2:	4b13      	ldr	r3, [pc, #76]	; (404d10 <send+0x94>)
  404cc4:	eb03 1300 	add.w	r3, r3, r0, lsl #4
  404cc8:	7adb      	ldrb	r3, [r3, #11]
  404cca:	f013 0f01 	tst.w	r3, #1
  404cce:	d017      	beq.n	404d00 <send+0x84>
  404cd0:	4b0f      	ldr	r3, [pc, #60]	; (404d10 <send+0x94>)
  404cd2:	eb03 1000 	add.w	r0, r3, r0, lsl #4
  404cd6:	8905      	ldrh	r5, [r0, #8]
  404cd8:	b2ad      	uxth	r5, r5
  404cda:	214c      	movs	r1, #76	; 0x4c
  404cdc:	9502      	str	r5, [sp, #8]
  404cde:	9201      	str	r2, [sp, #4]
  404ce0:	9400      	str	r4, [sp, #0]
  404ce2:	2310      	movs	r3, #16
  404ce4:	eb0d 0203 	add.w	r2, sp, r3
  404ce8:	f041 0180 	orr.w	r1, r1, #128	; 0x80
  404cec:	2002      	movs	r0, #2
  404cee:	4c09      	ldr	r4, [pc, #36]	; (404d14 <send+0x98>)
  404cf0:	47a0      	blx	r4
  404cf2:	2800      	cmp	r0, #0
  404cf4:	bf0c      	ite	eq
  404cf6:	2000      	moveq	r0, #0
  404cf8:	f06f 000d 	mvnne.w	r0, #13
  404cfc:	b009      	add	sp, #36	; 0x24
  404cfe:	bd30      	pop	{r4, r5, pc}
  404d00:	2145      	movs	r1, #69	; 0x45
  404d02:	e7eb      	b.n	404cdc <send+0x60>
  404d04:	f06f 0005 	mvn.w	r0, #5
  404d08:	e7f8      	b.n	404cfc <send+0x80>
  404d0a:	f06f 0005 	mvn.w	r0, #5
  404d0e:	e7f5      	b.n	404cfc <send+0x80>
  404d10:	2040ce5c 	.word	0x2040ce5c
  404d14:	00402985 	.word	0x00402985

00404d18 <recv>:
  404d18:	2900      	cmp	r1, #0
  404d1a:	bf18      	it	ne
  404d1c:	2a00      	cmpne	r2, #0
  404d1e:	d044      	beq.n	404daa <recv+0x92>
  404d20:	b570      	push	{r4, r5, r6, lr}
  404d22:	b086      	sub	sp, #24
  404d24:	460e      	mov	r6, r1
  404d26:	4615      	mov	r5, r2
  404d28:	2800      	cmp	r0, #0
  404d2a:	db36      	blt.n	404d9a <recv+0x82>
  404d2c:	4a20      	ldr	r2, [pc, #128]	; (404db0 <recv+0x98>)
  404d2e:	eb02 1200 	add.w	r2, r2, r0, lsl #4
  404d32:	7a92      	ldrb	r2, [r2, #10]
  404d34:	b2d2      	uxtb	r2, r2
  404d36:	2a01      	cmp	r2, #1
  404d38:	d132      	bne.n	404da0 <recv+0x88>
  404d3a:	4c1d      	ldr	r4, [pc, #116]	; (404db0 <recv+0x98>)
  404d3c:	0101      	lsls	r1, r0, #4
  404d3e:	1862      	adds	r2, r4, r1
  404d40:	5066      	str	r6, [r4, r1]
  404d42:	8095      	strh	r5, [r2, #4]
  404d44:	7b12      	ldrb	r2, [r2, #12]
  404d46:	2a00      	cmp	r2, #0
  404d48:	d12d      	bne.n	404da6 <recv+0x8e>
  404d4a:	eb04 1200 	add.w	r2, r4, r0, lsl #4
  404d4e:	2101      	movs	r1, #1
  404d50:	7311      	strb	r1, [r2, #12]
  404d52:	7ad2      	ldrb	r2, [r2, #11]
  404d54:	400a      	ands	r2, r1
  404d56:	2a00      	cmp	r2, #0
  404d58:	bf0c      	ite	eq
  404d5a:	2146      	moveq	r1, #70	; 0x46
  404d5c:	214d      	movne	r1, #77	; 0x4d
  404d5e:	b9d3      	cbnz	r3, 404d96 <recv+0x7e>
  404d60:	f04f 33ff 	mov.w	r3, #4294967295
  404d64:	9304      	str	r3, [sp, #16]
  404d66:	f88d 0014 	strb.w	r0, [sp, #20]
  404d6a:	4b11      	ldr	r3, [pc, #68]	; (404db0 <recv+0x98>)
  404d6c:	eb03 1000 	add.w	r0, r3, r0, lsl #4
  404d70:	88c3      	ldrh	r3, [r0, #6]
  404d72:	f8ad 3016 	strh.w	r3, [sp, #22]
  404d76:	2300      	movs	r3, #0
  404d78:	9302      	str	r3, [sp, #8]
  404d7a:	9301      	str	r3, [sp, #4]
  404d7c:	9300      	str	r3, [sp, #0]
  404d7e:	2308      	movs	r3, #8
  404d80:	aa04      	add	r2, sp, #16
  404d82:	2002      	movs	r0, #2
  404d84:	4c0b      	ldr	r4, [pc, #44]	; (404db4 <recv+0x9c>)
  404d86:	47a0      	blx	r4
  404d88:	2800      	cmp	r0, #0
  404d8a:	bf0c      	ite	eq
  404d8c:	2000      	moveq	r0, #0
  404d8e:	f06f 000d 	mvnne.w	r0, #13
  404d92:	b006      	add	sp, #24
  404d94:	bd70      	pop	{r4, r5, r6, pc}
  404d96:	9304      	str	r3, [sp, #16]
  404d98:	e7e5      	b.n	404d66 <recv+0x4e>
  404d9a:	f06f 0005 	mvn.w	r0, #5
  404d9e:	e7f8      	b.n	404d92 <recv+0x7a>
  404da0:	f06f 0005 	mvn.w	r0, #5
  404da4:	e7f5      	b.n	404d92 <recv+0x7a>
  404da6:	2000      	movs	r0, #0
  404da8:	e7f3      	b.n	404d92 <recv+0x7a>
  404daa:	f06f 0005 	mvn.w	r0, #5
  404dae:	4770      	bx	lr
  404db0:	2040ce5c 	.word	0x2040ce5c
  404db4:	00402985 	.word	0x00402985

00404db8 <close>:
  404db8:	b530      	push	{r4, r5, lr}
  404dba:	b087      	sub	sp, #28
  404dbc:	1e04      	subs	r4, r0, #0
  404dbe:	db2f      	blt.n	404e20 <close+0x68>
  404dc0:	4b1a      	ldr	r3, [pc, #104]	; (404e2c <close+0x74>)
  404dc2:	eb03 1304 	add.w	r3, r3, r4, lsl #4
  404dc6:	7a9b      	ldrb	r3, [r3, #10]
  404dc8:	b2db      	uxtb	r3, r3
  404dca:	2b01      	cmp	r3, #1
  404dcc:	d12b      	bne.n	404e26 <close+0x6e>
  404dce:	f88d 4014 	strb.w	r4, [sp, #20]
  404dd2:	4b16      	ldr	r3, [pc, #88]	; (404e2c <close+0x74>)
  404dd4:	eb03 1304 	add.w	r3, r3, r4, lsl #4
  404dd8:	88da      	ldrh	r2, [r3, #6]
  404dda:	f8ad 2016 	strh.w	r2, [sp, #22]
  404dde:	2200      	movs	r2, #0
  404de0:	729a      	strb	r2, [r3, #10]
  404de2:	80da      	strh	r2, [r3, #6]
  404de4:	7adb      	ldrb	r3, [r3, #11]
  404de6:	f003 0301 	and.w	r3, r3, #1
  404dea:	4293      	cmp	r3, r2
  404dec:	9202      	str	r2, [sp, #8]
  404dee:	9201      	str	r2, [sp, #4]
  404df0:	9200      	str	r2, [sp, #0]
  404df2:	f04f 0304 	mov.w	r3, #4
  404df6:	aa05      	add	r2, sp, #20
  404df8:	bf0c      	ite	eq
  404dfa:	2149      	moveq	r1, #73	; 0x49
  404dfc:	214e      	movne	r1, #78	; 0x4e
  404dfe:	2002      	movs	r0, #2
  404e00:	4d0b      	ldr	r5, [pc, #44]	; (404e30 <close+0x78>)
  404e02:	47a8      	blx	r5
  404e04:	1e05      	subs	r5, r0, #0
  404e06:	bf18      	it	ne
  404e08:	f06f 0508 	mvnne.w	r5, #8
  404e0c:	2210      	movs	r2, #16
  404e0e:	2100      	movs	r1, #0
  404e10:	4806      	ldr	r0, [pc, #24]	; (404e2c <close+0x74>)
  404e12:	eb00 1004 	add.w	r0, r0, r4, lsl #4
  404e16:	4b07      	ldr	r3, [pc, #28]	; (404e34 <close+0x7c>)
  404e18:	4798      	blx	r3
  404e1a:	4628      	mov	r0, r5
  404e1c:	b007      	add	sp, #28
  404e1e:	bd30      	pop	{r4, r5, pc}
  404e20:	f06f 0505 	mvn.w	r5, #5
  404e24:	e7f9      	b.n	404e1a <close+0x62>
  404e26:	f06f 0505 	mvn.w	r5, #5
  404e2a:	e7f6      	b.n	404e1a <close+0x62>
  404e2c:	2040ce5c 	.word	0x2040ce5c
  404e30:	00402985 	.word	0x00402985
  404e34:	00402821 	.word	0x00402821

00404e38 <spi_flash_enable>:
  404e38:	b570      	push	{r4, r5, r6, lr}
  404e3a:	b082      	sub	sp, #8
  404e3c:	4605      	mov	r5, r0
  404e3e:	4b2b      	ldr	r3, [pc, #172]	; (404eec <spi_flash_enable+0xb4>)
  404e40:	4798      	blx	r3
  404e42:	f3c0 000b 	ubfx	r0, r0, #0, #12
  404e46:	f5b0 7f68 	cmp.w	r0, #928	; 0x3a0
  404e4a:	d203      	bcs.n	404e54 <spi_flash_enable+0x1c>
  404e4c:	2400      	movs	r4, #0
  404e4e:	4620      	mov	r0, r4
  404e50:	b002      	add	sp, #8
  404e52:	bd70      	pop	{r4, r5, r6, pc}
  404e54:	a901      	add	r1, sp, #4
  404e56:	f241 4010 	movw	r0, #5136	; 0x1410
  404e5a:	4b25      	ldr	r3, [pc, #148]	; (404ef0 <spi_flash_enable+0xb8>)
  404e5c:	4798      	blx	r3
  404e5e:	4604      	mov	r4, r0
  404e60:	2800      	cmp	r0, #0
  404e62:	d1f4      	bne.n	404e4e <spi_flash_enable+0x16>
  404e64:	4b23      	ldr	r3, [pc, #140]	; (404ef4 <spi_flash_enable+0xbc>)
  404e66:	9a01      	ldr	r2, [sp, #4]
  404e68:	4013      	ands	r3, r2
  404e6a:	4923      	ldr	r1, [pc, #140]	; (404ef8 <spi_flash_enable+0xc0>)
  404e6c:	4319      	orrs	r1, r3
  404e6e:	9101      	str	r1, [sp, #4]
  404e70:	f241 4010 	movw	r0, #5136	; 0x1410
  404e74:	4b21      	ldr	r3, [pc, #132]	; (404efc <spi_flash_enable+0xc4>)
  404e76:	4798      	blx	r3
  404e78:	b305      	cbz	r5, 404ebc <spi_flash_enable+0x84>
  404e7a:	2100      	movs	r1, #0
  404e7c:	4820      	ldr	r0, [pc, #128]	; (404f00 <spi_flash_enable+0xc8>)
  404e7e:	4d1f      	ldr	r5, [pc, #124]	; (404efc <spi_flash_enable+0xc4>)
  404e80:	47a8      	blx	r5
  404e82:	21ab      	movs	r1, #171	; 0xab
  404e84:	481f      	ldr	r0, [pc, #124]	; (404f04 <spi_flash_enable+0xcc>)
  404e86:	47a8      	blx	r5
  404e88:	2101      	movs	r1, #1
  404e8a:	481f      	ldr	r0, [pc, #124]	; (404f08 <spi_flash_enable+0xd0>)
  404e8c:	47a8      	blx	r5
  404e8e:	2100      	movs	r1, #0
  404e90:	481e      	ldr	r0, [pc, #120]	; (404f0c <spi_flash_enable+0xd4>)
  404e92:	47a8      	blx	r5
  404e94:	2181      	movs	r1, #129	; 0x81
  404e96:	481e      	ldr	r0, [pc, #120]	; (404f10 <spi_flash_enable+0xd8>)
  404e98:	47a8      	blx	r5
  404e9a:	4e1e      	ldr	r6, [pc, #120]	; (404f14 <spi_flash_enable+0xdc>)
  404e9c:	4d1e      	ldr	r5, [pc, #120]	; (404f18 <spi_flash_enable+0xe0>)
  404e9e:	4630      	mov	r0, r6
  404ea0:	47a8      	blx	r5
  404ea2:	2801      	cmp	r0, #1
  404ea4:	d1fb      	bne.n	404e9e <spi_flash_enable+0x66>
  404ea6:	4913      	ldr	r1, [pc, #76]	; (404ef4 <spi_flash_enable+0xbc>)
  404ea8:	9b01      	ldr	r3, [sp, #4]
  404eaa:	4019      	ands	r1, r3
  404eac:	f441 3180 	orr.w	r1, r1, #65536	; 0x10000
  404eb0:	9101      	str	r1, [sp, #4]
  404eb2:	f241 4010 	movw	r0, #5136	; 0x1410
  404eb6:	4b11      	ldr	r3, [pc, #68]	; (404efc <spi_flash_enable+0xc4>)
  404eb8:	4798      	blx	r3
  404eba:	e7c8      	b.n	404e4e <spi_flash_enable+0x16>
  404ebc:	2100      	movs	r1, #0
  404ebe:	4810      	ldr	r0, [pc, #64]	; (404f00 <spi_flash_enable+0xc8>)
  404ec0:	4d0e      	ldr	r5, [pc, #56]	; (404efc <spi_flash_enable+0xc4>)
  404ec2:	47a8      	blx	r5
  404ec4:	21b9      	movs	r1, #185	; 0xb9
  404ec6:	480f      	ldr	r0, [pc, #60]	; (404f04 <spi_flash_enable+0xcc>)
  404ec8:	47a8      	blx	r5
  404eca:	2101      	movs	r1, #1
  404ecc:	480e      	ldr	r0, [pc, #56]	; (404f08 <spi_flash_enable+0xd0>)
  404ece:	47a8      	blx	r5
  404ed0:	2100      	movs	r1, #0
  404ed2:	480e      	ldr	r0, [pc, #56]	; (404f0c <spi_flash_enable+0xd4>)
  404ed4:	47a8      	blx	r5
  404ed6:	2181      	movs	r1, #129	; 0x81
  404ed8:	480d      	ldr	r0, [pc, #52]	; (404f10 <spi_flash_enable+0xd8>)
  404eda:	47a8      	blx	r5
  404edc:	4e0d      	ldr	r6, [pc, #52]	; (404f14 <spi_flash_enable+0xdc>)
  404ede:	4d0e      	ldr	r5, [pc, #56]	; (404f18 <spi_flash_enable+0xe0>)
  404ee0:	4630      	mov	r0, r6
  404ee2:	47a8      	blx	r5
  404ee4:	2801      	cmp	r0, #1
  404ee6:	d1fb      	bne.n	404ee0 <spi_flash_enable+0xa8>
  404ee8:	e7dd      	b.n	404ea6 <spi_flash_enable+0x6e>
  404eea:	bf00      	nop
  404eec:	0040384d 	.word	0x0040384d
  404ef0:	00403b49 	.word	0x00403b49
  404ef4:	f8888fff 	.word	0xf8888fff
  404ef8:	01111000 	.word	0x01111000
  404efc:	00403b55 	.word	0x00403b55
  404f00:	00010208 	.word	0x00010208
  404f04:	0001020c 	.word	0x0001020c
  404f08:	00010214 	.word	0x00010214
  404f0c:	0001021c 	.word	0x0001021c
  404f10:	00010204 	.word	0x00010204
  404f14:	00010218 	.word	0x00010218
  404f18:	00403b3d 	.word	0x00403b3d

00404f1c <sysclk_init>:
  404f1c:	b510      	push	{r4, lr}
  404f1e:	4810      	ldr	r0, [pc, #64]	; (404f60 <sysclk_init+0x44>)
  404f20:	4b10      	ldr	r3, [pc, #64]	; (404f64 <sysclk_init+0x48>)
  404f22:	4798      	blx	r3
  404f24:	213e      	movs	r1, #62	; 0x3e
  404f26:	2000      	movs	r0, #0
  404f28:	4b0f      	ldr	r3, [pc, #60]	; (404f68 <sysclk_init+0x4c>)
  404f2a:	4798      	blx	r3
  404f2c:	4c0f      	ldr	r4, [pc, #60]	; (404f6c <sysclk_init+0x50>)
  404f2e:	47a0      	blx	r4
  404f30:	2800      	cmp	r0, #0
  404f32:	d0fc      	beq.n	404f2e <sysclk_init+0x12>
  404f34:	4b0e      	ldr	r3, [pc, #56]	; (404f70 <sysclk_init+0x54>)
  404f36:	4798      	blx	r3
  404f38:	4a0e      	ldr	r2, [pc, #56]	; (404f74 <sysclk_init+0x58>)
  404f3a:	4b0f      	ldr	r3, [pc, #60]	; (404f78 <sysclk_init+0x5c>)
  404f3c:	629a      	str	r2, [r3, #40]	; 0x28
  404f3e:	4c0f      	ldr	r4, [pc, #60]	; (404f7c <sysclk_init+0x60>)
  404f40:	47a0      	blx	r4
  404f42:	2800      	cmp	r0, #0
  404f44:	d0fc      	beq.n	404f40 <sysclk_init+0x24>
  404f46:	2002      	movs	r0, #2
  404f48:	4b0d      	ldr	r3, [pc, #52]	; (404f80 <sysclk_init+0x64>)
  404f4a:	4798      	blx	r3
  404f4c:	2000      	movs	r0, #0
  404f4e:	4b0d      	ldr	r3, [pc, #52]	; (404f84 <sysclk_init+0x68>)
  404f50:	4798      	blx	r3
  404f52:	4b0d      	ldr	r3, [pc, #52]	; (404f88 <sysclk_init+0x6c>)
  404f54:	4798      	blx	r3
  404f56:	4802      	ldr	r0, [pc, #8]	; (404f60 <sysclk_init+0x44>)
  404f58:	4b02      	ldr	r3, [pc, #8]	; (404f64 <sysclk_init+0x48>)
  404f5a:	4798      	blx	r3
  404f5c:	bd10      	pop	{r4, pc}
  404f5e:	bf00      	nop
  404f60:	11e1a300 	.word	0x11e1a300
  404f64:	00405c8d 	.word	0x00405c8d
  404f68:	00405715 	.word	0x00405715
  404f6c:	00405769 	.word	0x00405769
  404f70:	00405779 	.word	0x00405779
  404f74:	20183f01 	.word	0x20183f01
  404f78:	400e0600 	.word	0x400e0600
  404f7c:	00405789 	.word	0x00405789
  404f80:	00405679 	.word	0x00405679
  404f84:	004056b1 	.word	0x004056b1
  404f88:	00405b81 	.word	0x00405b81

00404f8c <_read>:
  404f8c:	e92d 41f0 	stmdb	sp!, {r4, r5, r6, r7, r8, lr}
  404f90:	b980      	cbnz	r0, 404fb4 <_read+0x28>
  404f92:	460c      	mov	r4, r1
  404f94:	4690      	mov	r8, r2
  404f96:	2a00      	cmp	r2, #0
  404f98:	dd0f      	ble.n	404fba <_read+0x2e>
  404f9a:	188f      	adds	r7, r1, r2
  404f9c:	4e08      	ldr	r6, [pc, #32]	; (404fc0 <_read+0x34>)
  404f9e:	4d09      	ldr	r5, [pc, #36]	; (404fc4 <_read+0x38>)
  404fa0:	6830      	ldr	r0, [r6, #0]
  404fa2:	4621      	mov	r1, r4
  404fa4:	682b      	ldr	r3, [r5, #0]
  404fa6:	4798      	blx	r3
  404fa8:	3401      	adds	r4, #1
  404faa:	42bc      	cmp	r4, r7
  404fac:	d1f8      	bne.n	404fa0 <_read+0x14>
  404fae:	4640      	mov	r0, r8
  404fb0:	e8bd 81f0 	ldmia.w	sp!, {r4, r5, r6, r7, r8, pc}
  404fb4:	f04f 38ff 	mov.w	r8, #4294967295
  404fb8:	e7f9      	b.n	404fae <_read+0x22>
  404fba:	4680      	mov	r8, r0
  404fbc:	e7f7      	b.n	404fae <_read+0x22>
  404fbe:	bf00      	nop
  404fc0:	2040cf20 	.word	0x2040cf20
  404fc4:	2040cf18 	.word	0x2040cf18

00404fc8 <_write>:
  404fc8:	3801      	subs	r0, #1
  404fca:	2802      	cmp	r0, #2
  404fcc:	d815      	bhi.n	404ffa <_write+0x32>
  404fce:	e92d 41f0 	stmdb	sp!, {r4, r5, r6, r7, r8, lr}
  404fd2:	460e      	mov	r6, r1
  404fd4:	4614      	mov	r4, r2
  404fd6:	b19a      	cbz	r2, 405000 <_write+0x38>
  404fd8:	460d      	mov	r5, r1
  404fda:	f8df 8038 	ldr.w	r8, [pc, #56]	; 405014 <_write+0x4c>
  404fde:	4f0c      	ldr	r7, [pc, #48]	; (405010 <_write+0x48>)
  404fe0:	f8d8 0000 	ldr.w	r0, [r8]
  404fe4:	f815 1b01 	ldrb.w	r1, [r5], #1
  404fe8:	683b      	ldr	r3, [r7, #0]
  404fea:	4798      	blx	r3
  404fec:	2800      	cmp	r0, #0
  404fee:	db0a      	blt.n	405006 <_write+0x3e>
  404ff0:	1ba8      	subs	r0, r5, r6
  404ff2:	3c01      	subs	r4, #1
  404ff4:	d1f4      	bne.n	404fe0 <_write+0x18>
  404ff6:	e8bd 81f0 	ldmia.w	sp!, {r4, r5, r6, r7, r8, pc}
  404ffa:	f04f 30ff 	mov.w	r0, #4294967295
  404ffe:	4770      	bx	lr
  405000:	4610      	mov	r0, r2
  405002:	e8bd 81f0 	ldmia.w	sp!, {r4, r5, r6, r7, r8, pc}
  405006:	f04f 30ff 	mov.w	r0, #4294967295
  40500a:	e8bd 81f0 	ldmia.w	sp!, {r4, r5, r6, r7, r8, pc}
  40500e:	bf00      	nop
  405010:	2040cf1c 	.word	0x2040cf1c
  405014:	2040cf20 	.word	0x2040cf20

00405018 <board_init>:
  405018:	b5f8      	push	{r3, r4, r5, r6, r7, lr}
  40501a:	f44f 4200 	mov.w	r2, #32768	; 0x8000
  40501e:	4b5c      	ldr	r3, [pc, #368]	; (405190 <board_init+0x178>)
  405020:	605a      	str	r2, [r3, #4]
  405022:	f3bf 8f4f 	dsb	sy
  405026:	f3bf 8f6f 	isb	sy
  40502a:	4b5a      	ldr	r3, [pc, #360]	; (405194 <board_init+0x17c>)
  40502c:	2200      	movs	r2, #0
  40502e:	f8c3 2250 	str.w	r2, [r3, #592]	; 0x250
  405032:	695a      	ldr	r2, [r3, #20]
  405034:	f442 3200 	orr.w	r2, r2, #131072	; 0x20000
  405038:	615a      	str	r2, [r3, #20]
  40503a:	f3bf 8f4f 	dsb	sy
  40503e:	f3bf 8f6f 	isb	sy
  405042:	f8d3 7080 	ldr.w	r7, [r3, #128]	; 0x80
  405046:	f3c7 364e 	ubfx	r6, r7, #13, #15
  40504a:	f007 0007 	and.w	r0, r7, #7
  40504e:	3004      	adds	r0, #4
  405050:	f3c7 07c9 	ubfx	r7, r7, #3, #10
  405054:	fab7 fe87 	clz	lr, r7
  405058:	f00e 0e1f 	and.w	lr, lr, #31
  40505c:	f3bf 8f4f 	dsb	sy
  405060:	f04f 34ff 	mov.w	r4, #4294967295
  405064:	fa04 fc00 	lsl.w	ip, r4, r0
  405068:	fa06 f000 	lsl.w	r0, r6, r0
  40506c:	fa04 f40e 	lsl.w	r4, r4, lr
  405070:	fa07 fe0e 	lsl.w	lr, r7, lr
  405074:	461d      	mov	r5, r3
  405076:	463a      	mov	r2, r7
  405078:	4673      	mov	r3, lr
  40507a:	ea40 0103 	orr.w	r1, r0, r3
  40507e:	f8c5 1260 	str.w	r1, [r5, #608]	; 0x260
  405082:	3a01      	subs	r2, #1
  405084:	4423      	add	r3, r4
  405086:	f1b2 3fff 	cmp.w	r2, #4294967295
  40508a:	d1f6      	bne.n	40507a <board_init+0x62>
  40508c:	3e01      	subs	r6, #1
  40508e:	4460      	add	r0, ip
  405090:	f1b6 3fff 	cmp.w	r6, #4294967295
  405094:	d1ef      	bne.n	405076 <board_init+0x5e>
  405096:	f3bf 8f4f 	dsb	sy
  40509a:	4b3e      	ldr	r3, [pc, #248]	; (405194 <board_init+0x17c>)
  40509c:	695a      	ldr	r2, [r3, #20]
  40509e:	f442 3280 	orr.w	r2, r2, #65536	; 0x10000
  4050a2:	615a      	str	r2, [r3, #20]
  4050a4:	f3bf 8f4f 	dsb	sy
  4050a8:	f3bf 8f6f 	isb	sy
  4050ac:	4a3a      	ldr	r2, [pc, #232]	; (405198 <board_init+0x180>)
  4050ae:	493b      	ldr	r1, [pc, #236]	; (40519c <board_init+0x184>)
  4050b0:	6051      	str	r1, [r2, #4]
  4050b2:	f5a1 7180 	sub.w	r1, r1, #256	; 0x100
  4050b6:	6051      	str	r1, [r2, #4]
  4050b8:	f3bf 8f4f 	dsb	sy
  4050bc:	f3bf 8f6f 	isb	sy
  4050c0:	f8d3 2290 	ldr.w	r2, [r3, #656]	; 0x290
  4050c4:	f022 0201 	bic.w	r2, r2, #1
  4050c8:	f8c3 2290 	str.w	r2, [r3, #656]	; 0x290
  4050cc:	f8d3 2294 	ldr.w	r2, [r3, #660]	; 0x294
  4050d0:	f022 0201 	bic.w	r2, r2, #1
  4050d4:	f8c3 2294 	str.w	r2, [r3, #660]	; 0x294
  4050d8:	f3bf 8f4f 	dsb	sy
  4050dc:	f3bf 8f6f 	isb	sy
  4050e0:	200a      	movs	r0, #10
  4050e2:	4c2f      	ldr	r4, [pc, #188]	; (4051a0 <board_init+0x188>)
  4050e4:	47a0      	blx	r4
  4050e6:	200b      	movs	r0, #11
  4050e8:	47a0      	blx	r4
  4050ea:	200c      	movs	r0, #12
  4050ec:	47a0      	blx	r4
  4050ee:	2010      	movs	r0, #16
  4050f0:	47a0      	blx	r4
  4050f2:	2011      	movs	r0, #17
  4050f4:	47a0      	blx	r4
  4050f6:	4b2b      	ldr	r3, [pc, #172]	; (4051a4 <board_init+0x18c>)
  4050f8:	f44f 7280 	mov.w	r2, #256	; 0x100
  4050fc:	611a      	str	r2, [r3, #16]
  4050fe:	f8c3 20a0 	str.w	r2, [r3, #160]	; 0xa0
  405102:	631a      	str	r2, [r3, #48]	; 0x30
  405104:	f5a3 6380 	sub.w	r3, r3, #1024	; 0x400
  405108:	f44f 6200 	mov.w	r2, #2048	; 0x800
  40510c:	615a      	str	r2, [r3, #20]
  40510e:	f8c3 20a0 	str.w	r2, [r3, #160]	; 0xa0
  405112:	665a      	str	r2, [r3, #100]	; 0x64
  405114:	f8c3 2090 	str.w	r2, [r3, #144]	; 0x90
  405118:	655a      	str	r2, [r3, #84]	; 0x54
  40511a:	621a      	str	r2, [r3, #32]
  40511c:	f8c3 2084 	str.w	r2, [r3, #132]	; 0x84
  405120:	6f19      	ldr	r1, [r3, #112]	; 0x70
  405122:	f421 6100 	bic.w	r1, r1, #2048	; 0x800
  405126:	6719      	str	r1, [r3, #112]	; 0x70
  405128:	6f59      	ldr	r1, [r3, #116]	; 0x74
  40512a:	f421 6100 	bic.w	r1, r1, #2048	; 0x800
  40512e:	6759      	str	r1, [r3, #116]	; 0x74
  405130:	f8c3 20c0 	str.w	r2, [r3, #192]	; 0xc0
  405134:	f8c3 20d4 	str.w	r2, [r3, #212]	; 0xd4
  405138:	f8c3 20b0 	str.w	r2, [r3, #176]	; 0xb0
  40513c:	f44f 1200 	mov.w	r2, #2097152	; 0x200000
  405140:	661a      	str	r2, [r3, #96]	; 0x60
  405142:	f8c3 2090 	str.w	r2, [r3, #144]	; 0x90
  405146:	655a      	str	r2, [r3, #84]	; 0x54
  405148:	625a      	str	r2, [r3, #36]	; 0x24
  40514a:	f8c3 2080 	str.w	r2, [r3, #128]	; 0x80
  40514e:	6f19      	ldr	r1, [r3, #112]	; 0x70
  405150:	f421 1100 	bic.w	r1, r1, #2097152	; 0x200000
  405154:	6719      	str	r1, [r3, #112]	; 0x70
  405156:	6f59      	ldr	r1, [r3, #116]	; 0x74
  405158:	f421 1100 	bic.w	r1, r1, #2097152	; 0x200000
  40515c:	6759      	str	r1, [r3, #116]	; 0x74
  40515e:	605a      	str	r2, [r3, #4]
  405160:	4a11      	ldr	r2, [pc, #68]	; (4051a8 <board_init+0x190>)
  405162:	f8d2 3114 	ldr.w	r3, [r2, #276]	; 0x114
  405166:	f043 0310 	orr.w	r3, r3, #16
  40516a:	f8c2 3114 	str.w	r3, [r2, #276]	; 0x114
  40516e:	4b0f      	ldr	r3, [pc, #60]	; (4051ac <board_init+0x194>)
  405170:	2210      	movs	r2, #16
  405172:	661a      	str	r2, [r3, #96]	; 0x60
  405174:	f8c3 2090 	str.w	r2, [r3, #144]	; 0x90
  405178:	655a      	str	r2, [r3, #84]	; 0x54
  40517a:	625a      	str	r2, [r3, #36]	; 0x24
  40517c:	f8c3 2080 	str.w	r2, [r3, #128]	; 0x80
  405180:	6f19      	ldr	r1, [r3, #112]	; 0x70
  405182:	4311      	orrs	r1, r2
  405184:	6719      	str	r1, [r3, #112]	; 0x70
  405186:	6f59      	ldr	r1, [r3, #116]	; 0x74
  405188:	4311      	orrs	r1, r2
  40518a:	6759      	str	r1, [r3, #116]	; 0x74
  40518c:	605a      	str	r2, [r3, #4]
  40518e:	bdf8      	pop	{r3, r4, r5, r6, r7, pc}
  405190:	400e1850 	.word	0x400e1850
  405194:	e000ed00 	.word	0xe000ed00
  405198:	400e0c00 	.word	0x400e0c00
  40519c:	5a00080c 	.word	0x5a00080c
  4051a0:	00405799 	.word	0x00405799
  4051a4:	400e1200 	.word	0x400e1200
  4051a8:	40088000 	.word	0x40088000
  4051ac:	400e1000 	.word	0x400e1000

004051b0 <pio_pull_up>:
  4051b0:	b90a      	cbnz	r2, 4051b6 <pio_pull_up+0x6>
  4051b2:	6601      	str	r1, [r0, #96]	; 0x60
  4051b4:	4770      	bx	lr
  4051b6:	6641      	str	r1, [r0, #100]	; 0x64
  4051b8:	4770      	bx	lr

004051ba <pio_set>:
  4051ba:	6301      	str	r1, [r0, #48]	; 0x30
  4051bc:	4770      	bx	lr

004051be <pio_clear>:
  4051be:	6341      	str	r1, [r0, #52]	; 0x34
  4051c0:	4770      	bx	lr

004051c2 <pio_get>:
  4051c2:	f021 6100 	bic.w	r1, r1, #134217728	; 0x8000000
  4051c6:	f1b1 5f40 	cmp.w	r1, #805306368	; 0x30000000
  4051ca:	d105      	bne.n	4051d8 <pio_get+0x16>
  4051cc:	6b83      	ldr	r3, [r0, #56]	; 0x38
  4051ce:	4213      	tst	r3, r2
  4051d0:	bf14      	ite	ne
  4051d2:	2001      	movne	r0, #1
  4051d4:	2000      	moveq	r0, #0
  4051d6:	4770      	bx	lr
  4051d8:	6bc3      	ldr	r3, [r0, #60]	; 0x3c
  4051da:	e7f8      	b.n	4051ce <pio_get+0xc>

004051dc <pio_set_peripheral>:
  4051dc:	6442      	str	r2, [r0, #68]	; 0x44
  4051de:	f1b1 5fc0 	cmp.w	r1, #402653184	; 0x18000000
  4051e2:	d03a      	beq.n	40525a <pio_set_peripheral+0x7e>
  4051e4:	d813      	bhi.n	40520e <pio_set_peripheral+0x32>
  4051e6:	f1b1 6f00 	cmp.w	r1, #134217728	; 0x8000000
  4051ea:	d025      	beq.n	405238 <pio_set_peripheral+0x5c>
  4051ec:	f1b1 5f80 	cmp.w	r1, #268435456	; 0x10000000
  4051f0:	d10a      	bne.n	405208 <pio_set_peripheral+0x2c>
  4051f2:	6f03      	ldr	r3, [r0, #112]	; 0x70
  4051f4:	4313      	orrs	r3, r2
  4051f6:	6703      	str	r3, [r0, #112]	; 0x70
  4051f8:	6f43      	ldr	r3, [r0, #116]	; 0x74
  4051fa:	6f41      	ldr	r1, [r0, #116]	; 0x74
  4051fc:	400b      	ands	r3, r1
  4051fe:	ea23 0302 	bic.w	r3, r3, r2
  405202:	6743      	str	r3, [r0, #116]	; 0x74
  405204:	6042      	str	r2, [r0, #4]
  405206:	4770      	bx	lr
  405208:	2900      	cmp	r1, #0
  40520a:	d1fb      	bne.n	405204 <pio_set_peripheral+0x28>
  40520c:	4770      	bx	lr
  40520e:	f1b1 5f20 	cmp.w	r1, #671088640	; 0x28000000
  405212:	d021      	beq.n	405258 <pio_set_peripheral+0x7c>
  405214:	d809      	bhi.n	40522a <pio_set_peripheral+0x4e>
  405216:	f1b1 5f00 	cmp.w	r1, #536870912	; 0x20000000
  40521a:	d1f3      	bne.n	405204 <pio_set_peripheral+0x28>
  40521c:	6f03      	ldr	r3, [r0, #112]	; 0x70
  40521e:	4313      	orrs	r3, r2
  405220:	6703      	str	r3, [r0, #112]	; 0x70
  405222:	6f43      	ldr	r3, [r0, #116]	; 0x74
  405224:	4313      	orrs	r3, r2
  405226:	6743      	str	r3, [r0, #116]	; 0x74
  405228:	e7ec      	b.n	405204 <pio_set_peripheral+0x28>
  40522a:	f1b1 5f40 	cmp.w	r1, #805306368	; 0x30000000
  40522e:	d013      	beq.n	405258 <pio_set_peripheral+0x7c>
  405230:	f1b1 5f60 	cmp.w	r1, #939524096	; 0x38000000
  405234:	d010      	beq.n	405258 <pio_set_peripheral+0x7c>
  405236:	e7e5      	b.n	405204 <pio_set_peripheral+0x28>
  405238:	b410      	push	{r4}
  40523a:	6f01      	ldr	r1, [r0, #112]	; 0x70
  40523c:	6f04      	ldr	r4, [r0, #112]	; 0x70
  40523e:	43d3      	mvns	r3, r2
  405240:	4021      	ands	r1, r4
  405242:	461c      	mov	r4, r3
  405244:	4019      	ands	r1, r3
  405246:	6701      	str	r1, [r0, #112]	; 0x70
  405248:	6f43      	ldr	r3, [r0, #116]	; 0x74
  40524a:	6f41      	ldr	r1, [r0, #116]	; 0x74
  40524c:	400b      	ands	r3, r1
  40524e:	4023      	ands	r3, r4
  405250:	6743      	str	r3, [r0, #116]	; 0x74
  405252:	6042      	str	r2, [r0, #4]
  405254:	f85d 4b04 	ldr.w	r4, [sp], #4
  405258:	4770      	bx	lr
  40525a:	6f03      	ldr	r3, [r0, #112]	; 0x70
  40525c:	6f01      	ldr	r1, [r0, #112]	; 0x70
  40525e:	400b      	ands	r3, r1
  405260:	ea23 0302 	bic.w	r3, r3, r2
  405264:	6703      	str	r3, [r0, #112]	; 0x70
  405266:	6f43      	ldr	r3, [r0, #116]	; 0x74
  405268:	4313      	orrs	r3, r2
  40526a:	6743      	str	r3, [r0, #116]	; 0x74
  40526c:	e7ca      	b.n	405204 <pio_set_peripheral+0x28>

0040526e <pio_set_input>:
  40526e:	6441      	str	r1, [r0, #68]	; 0x44
  405270:	f012 0f01 	tst.w	r2, #1
  405274:	d10d      	bne.n	405292 <pio_set_input+0x24>
  405276:	6601      	str	r1, [r0, #96]	; 0x60
  405278:	f012 0f0a 	tst.w	r2, #10
  40527c:	d00b      	beq.n	405296 <pio_set_input+0x28>
  40527e:	6201      	str	r1, [r0, #32]
  405280:	f012 0f02 	tst.w	r2, #2
  405284:	d109      	bne.n	40529a <pio_set_input+0x2c>
  405286:	f012 0f08 	tst.w	r2, #8
  40528a:	d008      	beq.n	40529e <pio_set_input+0x30>
  40528c:	f8c0 1084 	str.w	r1, [r0, #132]	; 0x84
  405290:	e005      	b.n	40529e <pio_set_input+0x30>
  405292:	6641      	str	r1, [r0, #100]	; 0x64
  405294:	e7f0      	b.n	405278 <pio_set_input+0xa>
  405296:	6241      	str	r1, [r0, #36]	; 0x24
  405298:	e7f2      	b.n	405280 <pio_set_input+0x12>
  40529a:	f8c0 1080 	str.w	r1, [r0, #128]	; 0x80
  40529e:	6141      	str	r1, [r0, #20]
  4052a0:	6001      	str	r1, [r0, #0]
  4052a2:	4770      	bx	lr

004052a4 <pio_set_output>:
  4052a4:	b410      	push	{r4}
  4052a6:	9c01      	ldr	r4, [sp, #4]
  4052a8:	6441      	str	r1, [r0, #68]	; 0x44
  4052aa:	b94c      	cbnz	r4, 4052c0 <pio_set_output+0x1c>
  4052ac:	6601      	str	r1, [r0, #96]	; 0x60
  4052ae:	b14b      	cbz	r3, 4052c4 <pio_set_output+0x20>
  4052b0:	6501      	str	r1, [r0, #80]	; 0x50
  4052b2:	b94a      	cbnz	r2, 4052c8 <pio_set_output+0x24>
  4052b4:	6341      	str	r1, [r0, #52]	; 0x34
  4052b6:	6101      	str	r1, [r0, #16]
  4052b8:	6001      	str	r1, [r0, #0]
  4052ba:	f85d 4b04 	ldr.w	r4, [sp], #4
  4052be:	4770      	bx	lr
  4052c0:	6641      	str	r1, [r0, #100]	; 0x64
  4052c2:	e7f4      	b.n	4052ae <pio_set_output+0xa>
  4052c4:	6541      	str	r1, [r0, #84]	; 0x54
  4052c6:	e7f4      	b.n	4052b2 <pio_set_output+0xe>
  4052c8:	6301      	str	r1, [r0, #48]	; 0x30
  4052ca:	e7f4      	b.n	4052b6 <pio_set_output+0x12>

004052cc <pio_configure>:
  4052cc:	b570      	push	{r4, r5, r6, lr}
  4052ce:	b082      	sub	sp, #8
  4052d0:	4605      	mov	r5, r0
  4052d2:	4616      	mov	r6, r2
  4052d4:	461c      	mov	r4, r3
  4052d6:	f1b1 5f00 	cmp.w	r1, #536870912	; 0x20000000
  4052da:	d014      	beq.n	405306 <pio_configure+0x3a>
  4052dc:	d90a      	bls.n	4052f4 <pio_configure+0x28>
  4052de:	f1b1 5f40 	cmp.w	r1, #805306368	; 0x30000000
  4052e2:	d024      	beq.n	40532e <pio_configure+0x62>
  4052e4:	f1b1 5f60 	cmp.w	r1, #939524096	; 0x38000000
  4052e8:	d021      	beq.n	40532e <pio_configure+0x62>
  4052ea:	f1b1 5f20 	cmp.w	r1, #671088640	; 0x28000000
  4052ee:	d017      	beq.n	405320 <pio_configure+0x54>
  4052f0:	2000      	movs	r0, #0
  4052f2:	e01a      	b.n	40532a <pio_configure+0x5e>
  4052f4:	f1b1 5f80 	cmp.w	r1, #268435456	; 0x10000000
  4052f8:	d005      	beq.n	405306 <pio_configure+0x3a>
  4052fa:	f1b1 5fc0 	cmp.w	r1, #402653184	; 0x18000000
  4052fe:	d002      	beq.n	405306 <pio_configure+0x3a>
  405300:	f1b1 6f00 	cmp.w	r1, #134217728	; 0x8000000
  405304:	d1f4      	bne.n	4052f0 <pio_configure+0x24>
  405306:	4632      	mov	r2, r6
  405308:	4628      	mov	r0, r5
  40530a:	4b11      	ldr	r3, [pc, #68]	; (405350 <pio_configure+0x84>)
  40530c:	4798      	blx	r3
  40530e:	f014 0f01 	tst.w	r4, #1
  405312:	d102      	bne.n	40531a <pio_configure+0x4e>
  405314:	662e      	str	r6, [r5, #96]	; 0x60
  405316:	2001      	movs	r0, #1
  405318:	e007      	b.n	40532a <pio_configure+0x5e>
  40531a:	666e      	str	r6, [r5, #100]	; 0x64
  40531c:	2001      	movs	r0, #1
  40531e:	e004      	b.n	40532a <pio_configure+0x5e>
  405320:	461a      	mov	r2, r3
  405322:	4631      	mov	r1, r6
  405324:	4b0b      	ldr	r3, [pc, #44]	; (405354 <pio_configure+0x88>)
  405326:	4798      	blx	r3
  405328:	2001      	movs	r0, #1
  40532a:	b002      	add	sp, #8
  40532c:	bd70      	pop	{r4, r5, r6, pc}
  40532e:	f004 0301 	and.w	r3, r4, #1
  405332:	9300      	str	r3, [sp, #0]
  405334:	f3c4 0380 	ubfx	r3, r4, #2, #1
  405338:	f1b1 5f60 	cmp.w	r1, #939524096	; 0x38000000
  40533c:	bf14      	ite	ne
  40533e:	2200      	movne	r2, #0
  405340:	2201      	moveq	r2, #1
  405342:	4631      	mov	r1, r6
  405344:	4628      	mov	r0, r5
  405346:	4c04      	ldr	r4, [pc, #16]	; (405358 <pio_configure+0x8c>)
  405348:	47a0      	blx	r4
  40534a:	2001      	movs	r0, #1
  40534c:	e7ed      	b.n	40532a <pio_configure+0x5e>
  40534e:	bf00      	nop
  405350:	004051dd 	.word	0x004051dd
  405354:	0040526f 	.word	0x0040526f
  405358:	004052a5 	.word	0x004052a5

0040535c <pio_configure_interrupt>:
  40535c:	f012 0f10 	tst.w	r2, #16
  405360:	d012      	beq.n	405388 <pio_configure_interrupt+0x2c>
  405362:	f8c0 10b0 	str.w	r1, [r0, #176]	; 0xb0
  405366:	f012 0f20 	tst.w	r2, #32
  40536a:	d007      	beq.n	40537c <pio_configure_interrupt+0x20>
  40536c:	f8c0 10d4 	str.w	r1, [r0, #212]	; 0xd4
  405370:	f012 0f40 	tst.w	r2, #64	; 0x40
  405374:	d005      	beq.n	405382 <pio_configure_interrupt+0x26>
  405376:	f8c0 10c0 	str.w	r1, [r0, #192]	; 0xc0
  40537a:	4770      	bx	lr
  40537c:	f8c0 10d0 	str.w	r1, [r0, #208]	; 0xd0
  405380:	e7f6      	b.n	405370 <pio_configure_interrupt+0x14>
  405382:	f8c0 10c4 	str.w	r1, [r0, #196]	; 0xc4
  405386:	4770      	bx	lr
  405388:	f8c0 10b4 	str.w	r1, [r0, #180]	; 0xb4
  40538c:	4770      	bx	lr

0040538e <pio_enable_interrupt>:
  40538e:	6401      	str	r1, [r0, #64]	; 0x40
  405390:	4770      	bx	lr

00405392 <pio_disable_interrupt>:
  405392:	6441      	str	r1, [r0, #68]	; 0x44
  405394:	4770      	bx	lr

00405396 <pio_get_interrupt_status>:
  405396:	6cc0      	ldr	r0, [r0, #76]	; 0x4c
  405398:	4770      	bx	lr

0040539a <pio_get_interrupt_mask>:
  40539a:	6c80      	ldr	r0, [r0, #72]	; 0x48
  40539c:	4770      	bx	lr
	...

004053a0 <pio_configure_pin>:
  4053a0:	b570      	push	{r4, r5, r6, lr}
  4053a2:	b082      	sub	sp, #8
  4053a4:	460d      	mov	r5, r1
  4053a6:	4c46      	ldr	r4, [pc, #280]	; (4054c0 <pio_configure_pin+0x120>)
  4053a8:	eb04 1450 	add.w	r4, r4, r0, lsr #5
  4053ac:	0264      	lsls	r4, r4, #9
  4053ae:	f001 43f0 	and.w	r3, r1, #2013265920	; 0x78000000
  4053b2:	f1b3 5f00 	cmp.w	r3, #536870912	; 0x20000000
  4053b6:	d059      	beq.n	40546c <pio_configure_pin+0xcc>
  4053b8:	d80a      	bhi.n	4053d0 <pio_configure_pin+0x30>
  4053ba:	f1b3 5f80 	cmp.w	r3, #268435456	; 0x10000000
  4053be:	d02f      	beq.n	405420 <pio_configure_pin+0x80>
  4053c0:	f1b3 5fc0 	cmp.w	r3, #402653184	; 0x18000000
  4053c4:	d03f      	beq.n	405446 <pio_configure_pin+0xa6>
  4053c6:	f1b3 6f00 	cmp.w	r3, #134217728	; 0x8000000
  4053ca:	d016      	beq.n	4053fa <pio_configure_pin+0x5a>
  4053cc:	2000      	movs	r0, #0
  4053ce:	e012      	b.n	4053f6 <pio_configure_pin+0x56>
  4053d0:	f1b3 5f40 	cmp.w	r3, #805306368	; 0x30000000
  4053d4:	d05d      	beq.n	405492 <pio_configure_pin+0xf2>
  4053d6:	f1b3 5f60 	cmp.w	r3, #939524096	; 0x38000000
  4053da:	d05a      	beq.n	405492 <pio_configure_pin+0xf2>
  4053dc:	f1b3 5f20 	cmp.w	r3, #671088640	; 0x28000000
  4053e0:	d1f4      	bne.n	4053cc <pio_configure_pin+0x2c>
  4053e2:	f000 011f 	and.w	r1, r0, #31
  4053e6:	2601      	movs	r6, #1
  4053e8:	462a      	mov	r2, r5
  4053ea:	fa06 f101 	lsl.w	r1, r6, r1
  4053ee:	4620      	mov	r0, r4
  4053f0:	4b34      	ldr	r3, [pc, #208]	; (4054c4 <pio_configure_pin+0x124>)
  4053f2:	4798      	blx	r3
  4053f4:	4630      	mov	r0, r6
  4053f6:	b002      	add	sp, #8
  4053f8:	bd70      	pop	{r4, r5, r6, pc}
  4053fa:	f000 001f 	and.w	r0, r0, #31
  4053fe:	2601      	movs	r6, #1
  405400:	4086      	lsls	r6, r0
  405402:	4632      	mov	r2, r6
  405404:	f04f 6100 	mov.w	r1, #134217728	; 0x8000000
  405408:	4620      	mov	r0, r4
  40540a:	4b2f      	ldr	r3, [pc, #188]	; (4054c8 <pio_configure_pin+0x128>)
  40540c:	4798      	blx	r3
  40540e:	f015 0f01 	tst.w	r5, #1
  405412:	d102      	bne.n	40541a <pio_configure_pin+0x7a>
  405414:	6626      	str	r6, [r4, #96]	; 0x60
  405416:	2001      	movs	r0, #1
  405418:	e7ed      	b.n	4053f6 <pio_configure_pin+0x56>
  40541a:	6666      	str	r6, [r4, #100]	; 0x64
  40541c:	2001      	movs	r0, #1
  40541e:	e7ea      	b.n	4053f6 <pio_configure_pin+0x56>
  405420:	f000 001f 	and.w	r0, r0, #31
  405424:	2601      	movs	r6, #1
  405426:	4086      	lsls	r6, r0
  405428:	4632      	mov	r2, r6
  40542a:	f04f 5180 	mov.w	r1, #268435456	; 0x10000000
  40542e:	4620      	mov	r0, r4
  405430:	4b25      	ldr	r3, [pc, #148]	; (4054c8 <pio_configure_pin+0x128>)
  405432:	4798      	blx	r3
  405434:	f015 0f01 	tst.w	r5, #1
  405438:	d102      	bne.n	405440 <pio_configure_pin+0xa0>
  40543a:	6626      	str	r6, [r4, #96]	; 0x60
  40543c:	2001      	movs	r0, #1
  40543e:	e7da      	b.n	4053f6 <pio_configure_pin+0x56>
  405440:	6666      	str	r6, [r4, #100]	; 0x64
  405442:	2001      	movs	r0, #1
  405444:	e7d7      	b.n	4053f6 <pio_configure_pin+0x56>
  405446:	f000 001f 	and.w	r0, r0, #31
  40544a:	2601      	movs	r6, #1
  40544c:	4086      	lsls	r6, r0
  40544e:	4632      	mov	r2, r6
  405450:	f04f 51c0 	mov.w	r1, #402653184	; 0x18000000
  405454:	4620      	mov	r0, r4
  405456:	4b1c      	ldr	r3, [pc, #112]	; (4054c8 <pio_configure_pin+0x128>)
  405458:	4798      	blx	r3
  40545a:	f015 0f01 	tst.w	r5, #1
  40545e:	d102      	bne.n	405466 <pio_configure_pin+0xc6>
  405460:	6626      	str	r6, [r4, #96]	; 0x60
  405462:	2001      	movs	r0, #1
  405464:	e7c7      	b.n	4053f6 <pio_configure_pin+0x56>
  405466:	6666      	str	r6, [r4, #100]	; 0x64
  405468:	2001      	movs	r0, #1
  40546a:	e7c4      	b.n	4053f6 <pio_configure_pin+0x56>
  40546c:	f000 001f 	and.w	r0, r0, #31
  405470:	2601      	movs	r6, #1
  405472:	4086      	lsls	r6, r0
  405474:	4632      	mov	r2, r6
  405476:	f04f 5100 	mov.w	r1, #536870912	; 0x20000000
  40547a:	4620      	mov	r0, r4
  40547c:	4b12      	ldr	r3, [pc, #72]	; (4054c8 <pio_configure_pin+0x128>)
  40547e:	4798      	blx	r3
  405480:	f015 0f01 	tst.w	r5, #1
  405484:	d102      	bne.n	40548c <pio_configure_pin+0xec>
  405486:	6626      	str	r6, [r4, #96]	; 0x60
  405488:	2001      	movs	r0, #1
  40548a:	e7b4      	b.n	4053f6 <pio_configure_pin+0x56>
  40548c:	6666      	str	r6, [r4, #100]	; 0x64
  40548e:	2001      	movs	r0, #1
  405490:	e7b1      	b.n	4053f6 <pio_configure_pin+0x56>
  405492:	f005 5260 	and.w	r2, r5, #939524096	; 0x38000000
  405496:	f000 011f 	and.w	r1, r0, #31
  40549a:	2601      	movs	r6, #1
  40549c:	ea05 0306 	and.w	r3, r5, r6
  4054a0:	9300      	str	r3, [sp, #0]
  4054a2:	f3c5 0380 	ubfx	r3, r5, #2, #1
  4054a6:	f1b2 5f60 	cmp.w	r2, #939524096	; 0x38000000
  4054aa:	bf14      	ite	ne
  4054ac:	2200      	movne	r2, #0
  4054ae:	2201      	moveq	r2, #1
  4054b0:	fa06 f101 	lsl.w	r1, r6, r1
  4054b4:	4620      	mov	r0, r4
  4054b6:	4c05      	ldr	r4, [pc, #20]	; (4054cc <pio_configure_pin+0x12c>)
  4054b8:	47a0      	blx	r4
  4054ba:	4630      	mov	r0, r6
  4054bc:	e79b      	b.n	4053f6 <pio_configure_pin+0x56>
  4054be:	bf00      	nop
  4054c0:	00200707 	.word	0x00200707
  4054c4:	0040526f 	.word	0x0040526f
  4054c8:	004051dd 	.word	0x004051dd
  4054cc:	004052a5 	.word	0x004052a5

004054d0 <pio_handler_process>:
  4054d0:	e92d 41f0 	stmdb	sp!, {r4, r5, r6, r7, r8, lr}
  4054d4:	4604      	mov	r4, r0
  4054d6:	4688      	mov	r8, r1
  4054d8:	4b0e      	ldr	r3, [pc, #56]	; (405514 <pio_handler_process+0x44>)
  4054da:	4798      	blx	r3
  4054dc:	4605      	mov	r5, r0
  4054de:	4620      	mov	r0, r4
  4054e0:	4b0d      	ldr	r3, [pc, #52]	; (405518 <pio_handler_process+0x48>)
  4054e2:	4798      	blx	r3
  4054e4:	4005      	ands	r5, r0
  4054e6:	d013      	beq.n	405510 <pio_handler_process+0x40>
  4054e8:	4c0c      	ldr	r4, [pc, #48]	; (40551c <pio_handler_process+0x4c>)
  4054ea:	f104 0660 	add.w	r6, r4, #96	; 0x60
  4054ee:	e003      	b.n	4054f8 <pio_handler_process+0x28>
  4054f0:	42b4      	cmp	r4, r6
  4054f2:	d00d      	beq.n	405510 <pio_handler_process+0x40>
  4054f4:	3410      	adds	r4, #16
  4054f6:	b15d      	cbz	r5, 405510 <pio_handler_process+0x40>
  4054f8:	6820      	ldr	r0, [r4, #0]
  4054fa:	4540      	cmp	r0, r8
  4054fc:	d1f8      	bne.n	4054f0 <pio_handler_process+0x20>
  4054fe:	6861      	ldr	r1, [r4, #4]
  405500:	4229      	tst	r1, r5
  405502:	d0f5      	beq.n	4054f0 <pio_handler_process+0x20>
  405504:	68e3      	ldr	r3, [r4, #12]
  405506:	4798      	blx	r3
  405508:	6863      	ldr	r3, [r4, #4]
  40550a:	ea25 0503 	bic.w	r5, r5, r3
  40550e:	e7ef      	b.n	4054f0 <pio_handler_process+0x20>
  405510:	e8bd 81f0 	ldmia.w	sp!, {r4, r5, r6, r7, r8, pc}
  405514:	00405397 	.word	0x00405397
  405518:	0040539b 	.word	0x0040539b
  40551c:	2040c36c 	.word	0x2040c36c

00405520 <pio_handler_set>:
  405520:	b5f8      	push	{r3, r4, r5, r6, r7, lr}
  405522:	4c18      	ldr	r4, [pc, #96]	; (405584 <pio_handler_set+0x64>)
  405524:	6826      	ldr	r6, [r4, #0]
  405526:	2e06      	cmp	r6, #6
  405528:	d82a      	bhi.n	405580 <pio_handler_set+0x60>
  40552a:	f04f 0c00 	mov.w	ip, #0
  40552e:	4664      	mov	r4, ip
  405530:	4f15      	ldr	r7, [pc, #84]	; (405588 <pio_handler_set+0x68>)
  405532:	e004      	b.n	40553e <pio_handler_set+0x1e>
  405534:	3401      	adds	r4, #1
  405536:	b2e4      	uxtb	r4, r4
  405538:	46a4      	mov	ip, r4
  40553a:	42a6      	cmp	r6, r4
  40553c:	d309      	bcc.n	405552 <pio_handler_set+0x32>
  40553e:	46a6      	mov	lr, r4
  405540:	0125      	lsls	r5, r4, #4
  405542:	597d      	ldr	r5, [r7, r5]
  405544:	428d      	cmp	r5, r1
  405546:	d1f5      	bne.n	405534 <pio_handler_set+0x14>
  405548:	eb07 1504 	add.w	r5, r7, r4, lsl #4
  40554c:	686d      	ldr	r5, [r5, #4]
  40554e:	4295      	cmp	r5, r2
  405550:	d1f0      	bne.n	405534 <pio_handler_set+0x14>
  405552:	4d0d      	ldr	r5, [pc, #52]	; (405588 <pio_handler_set+0x68>)
  405554:	ea4f 1e0e 	mov.w	lr, lr, lsl #4
  405558:	eb05 040e 	add.w	r4, r5, lr
  40555c:	f845 100e 	str.w	r1, [r5, lr]
  405560:	6062      	str	r2, [r4, #4]
  405562:	60a3      	str	r3, [r4, #8]
  405564:	9906      	ldr	r1, [sp, #24]
  405566:	60e1      	str	r1, [r4, #12]
  405568:	3601      	adds	r6, #1
  40556a:	4566      	cmp	r6, ip
  40556c:	d005      	beq.n	40557a <pio_handler_set+0x5a>
  40556e:	4611      	mov	r1, r2
  405570:	461a      	mov	r2, r3
  405572:	4b06      	ldr	r3, [pc, #24]	; (40558c <pio_handler_set+0x6c>)
  405574:	4798      	blx	r3
  405576:	2000      	movs	r0, #0
  405578:	bdf8      	pop	{r3, r4, r5, r6, r7, pc}
  40557a:	4902      	ldr	r1, [pc, #8]	; (405584 <pio_handler_set+0x64>)
  40557c:	600e      	str	r6, [r1, #0]
  40557e:	e7f6      	b.n	40556e <pio_handler_set+0x4e>
  405580:	2001      	movs	r0, #1
  405582:	bdf8      	pop	{r3, r4, r5, r6, r7, pc}
  405584:	2040c3dc 	.word	0x2040c3dc
  405588:	2040c36c 	.word	0x2040c36c
  40558c:	0040535d 	.word	0x0040535d

00405590 <PIOA_Handler>:
  405590:	b508      	push	{r3, lr}
  405592:	210a      	movs	r1, #10
  405594:	4801      	ldr	r0, [pc, #4]	; (40559c <PIOA_Handler+0xc>)
  405596:	4b02      	ldr	r3, [pc, #8]	; (4055a0 <PIOA_Handler+0x10>)
  405598:	4798      	blx	r3
  40559a:	bd08      	pop	{r3, pc}
  40559c:	400e0e00 	.word	0x400e0e00
  4055a0:	004054d1 	.word	0x004054d1

004055a4 <PIOB_Handler>:
  4055a4:	b508      	push	{r3, lr}
  4055a6:	210b      	movs	r1, #11
  4055a8:	4801      	ldr	r0, [pc, #4]	; (4055b0 <PIOB_Handler+0xc>)
  4055aa:	4b02      	ldr	r3, [pc, #8]	; (4055b4 <PIOB_Handler+0x10>)
  4055ac:	4798      	blx	r3
  4055ae:	bd08      	pop	{r3, pc}
  4055b0:	400e1000 	.word	0x400e1000
  4055b4:	004054d1 	.word	0x004054d1

004055b8 <PIOC_Handler>:
  4055b8:	b508      	push	{r3, lr}
  4055ba:	210c      	movs	r1, #12
  4055bc:	4801      	ldr	r0, [pc, #4]	; (4055c4 <PIOC_Handler+0xc>)
  4055be:	4b02      	ldr	r3, [pc, #8]	; (4055c8 <PIOC_Handler+0x10>)
  4055c0:	4798      	blx	r3
  4055c2:	bd08      	pop	{r3, pc}
  4055c4:	400e1200 	.word	0x400e1200
  4055c8:	004054d1 	.word	0x004054d1

004055cc <PIOD_Handler>:
  4055cc:	b508      	push	{r3, lr}
  4055ce:	2110      	movs	r1, #16
  4055d0:	4801      	ldr	r0, [pc, #4]	; (4055d8 <PIOD_Handler+0xc>)
  4055d2:	4b02      	ldr	r3, [pc, #8]	; (4055dc <PIOD_Handler+0x10>)
  4055d4:	4798      	blx	r3
  4055d6:	bd08      	pop	{r3, pc}
  4055d8:	400e1400 	.word	0x400e1400
  4055dc:	004054d1 	.word	0x004054d1

004055e0 <PIOE_Handler>:
  4055e0:	b508      	push	{r3, lr}
  4055e2:	2111      	movs	r1, #17
  4055e4:	4801      	ldr	r0, [pc, #4]	; (4055ec <PIOE_Handler+0xc>)
  4055e6:	4b02      	ldr	r3, [pc, #8]	; (4055f0 <PIOE_Handler+0x10>)
  4055e8:	4798      	blx	r3
  4055ea:	bd08      	pop	{r3, pc}
  4055ec:	400e1600 	.word	0x400e1600
  4055f0:	004054d1 	.word	0x004054d1

004055f4 <pio_handler_set_priority>:
  4055f4:	b5f8      	push	{r3, r4, r5, r6, r7, lr}
  4055f6:	4606      	mov	r6, r0
  4055f8:	460d      	mov	r5, r1
  4055fa:	4614      	mov	r4, r2
  4055fc:	4b17      	ldr	r3, [pc, #92]	; (40565c <pio_handler_set_priority+0x68>)
  4055fe:	4798      	blx	r3
  405600:	4607      	mov	r7, r0
  405602:	f04f 31ff 	mov.w	r1, #4294967295
  405606:	4630      	mov	r0, r6
  405608:	4b15      	ldr	r3, [pc, #84]	; (405660 <pio_handler_set_priority+0x6c>)
  40560a:	4798      	blx	r3
  40560c:	4630      	mov	r0, r6
  40560e:	4b15      	ldr	r3, [pc, #84]	; (405664 <pio_handler_set_priority+0x70>)
  405610:	4798      	blx	r3
  405612:	fa5f fe85 	uxtb.w	lr, r5
  405616:	f00e 031f 	and.w	r3, lr, #31
  40561a:	2201      	movs	r2, #1
  40561c:	fa02 f303 	lsl.w	r3, r2, r3
  405620:	0968      	lsrs	r0, r5, #5
  405622:	4911      	ldr	r1, [pc, #68]	; (405668 <pio_handler_set_priority+0x74>)
  405624:	eb01 0280 	add.w	r2, r1, r0, lsl #2
  405628:	f8c2 3080 	str.w	r3, [r2, #128]	; 0x80
  40562c:	f8c2 3180 	str.w	r3, [r2, #384]	; 0x180
  405630:	2d00      	cmp	r5, #0
  405632:	db0a      	blt.n	40564a <pio_handler_set_priority+0x56>
  405634:	0164      	lsls	r4, r4, #5
  405636:	b2e4      	uxtb	r4, r4
  405638:	4a0c      	ldr	r2, [pc, #48]	; (40566c <pio_handler_set_priority+0x78>)
  40563a:	5554      	strb	r4, [r2, r5]
  40563c:	f841 3020 	str.w	r3, [r1, r0, lsl #2]
  405640:	4639      	mov	r1, r7
  405642:	4630      	mov	r0, r6
  405644:	4b0a      	ldr	r3, [pc, #40]	; (405670 <pio_handler_set_priority+0x7c>)
  405646:	4798      	blx	r3
  405648:	bdf8      	pop	{r3, r4, r5, r6, r7, pc}
  40564a:	f00e 0e0f 	and.w	lr, lr, #15
  40564e:	0164      	lsls	r4, r4, #5
  405650:	b2e4      	uxtb	r4, r4
  405652:	4a08      	ldr	r2, [pc, #32]	; (405674 <pio_handler_set_priority+0x80>)
  405654:	f802 400e 	strb.w	r4, [r2, lr]
  405658:	e7f0      	b.n	40563c <pio_handler_set_priority+0x48>
  40565a:	bf00      	nop
  40565c:	0040539b 	.word	0x0040539b
  405660:	00405393 	.word	0x00405393
  405664:	00405397 	.word	0x00405397
  405668:	e000e100 	.word	0xe000e100
  40566c:	e000e400 	.word	0xe000e400
  405670:	0040538f 	.word	0x0040538f
  405674:	e000ed14 	.word	0xe000ed14

00405678 <pmc_mck_set_division>:
  405678:	2803      	cmp	r0, #3
  40567a:	d011      	beq.n	4056a0 <pmc_mck_set_division+0x28>
  40567c:	2804      	cmp	r0, #4
  40567e:	d012      	beq.n	4056a6 <pmc_mck_set_division+0x2e>
  405680:	2802      	cmp	r0, #2
  405682:	bf0c      	ite	eq
  405684:	f44f 7180 	moveq.w	r1, #256	; 0x100
  405688:	2100      	movne	r1, #0
  40568a:	4a08      	ldr	r2, [pc, #32]	; (4056ac <pmc_mck_set_division+0x34>)
  40568c:	6b13      	ldr	r3, [r2, #48]	; 0x30
  40568e:	f423 7340 	bic.w	r3, r3, #768	; 0x300
  405692:	430b      	orrs	r3, r1
  405694:	6313      	str	r3, [r2, #48]	; 0x30
  405696:	6e93      	ldr	r3, [r2, #104]	; 0x68
  405698:	f013 0f08 	tst.w	r3, #8
  40569c:	d0fb      	beq.n	405696 <pmc_mck_set_division+0x1e>
  40569e:	4770      	bx	lr
  4056a0:	f44f 7140 	mov.w	r1, #768	; 0x300
  4056a4:	e7f1      	b.n	40568a <pmc_mck_set_division+0x12>
  4056a6:	f44f 7100 	mov.w	r1, #512	; 0x200
  4056aa:	e7ee      	b.n	40568a <pmc_mck_set_division+0x12>
  4056ac:	400e0600 	.word	0x400e0600

004056b0 <pmc_switch_mck_to_pllack>:
  4056b0:	4a17      	ldr	r2, [pc, #92]	; (405710 <pmc_switch_mck_to_pllack+0x60>)
  4056b2:	6b13      	ldr	r3, [r2, #48]	; 0x30
  4056b4:	f023 0370 	bic.w	r3, r3, #112	; 0x70
  4056b8:	4318      	orrs	r0, r3
  4056ba:	6310      	str	r0, [r2, #48]	; 0x30
  4056bc:	6e93      	ldr	r3, [r2, #104]	; 0x68
  4056be:	f013 0f08 	tst.w	r3, #8
  4056c2:	d10a      	bne.n	4056da <pmc_switch_mck_to_pllack+0x2a>
  4056c4:	f44f 5380 	mov.w	r3, #4096	; 0x1000
  4056c8:	4911      	ldr	r1, [pc, #68]	; (405710 <pmc_switch_mck_to_pllack+0x60>)
  4056ca:	6e8a      	ldr	r2, [r1, #104]	; 0x68
  4056cc:	f012 0f08 	tst.w	r2, #8
  4056d0:	d103      	bne.n	4056da <pmc_switch_mck_to_pllack+0x2a>
  4056d2:	3b01      	subs	r3, #1
  4056d4:	d1f9      	bne.n	4056ca <pmc_switch_mck_to_pllack+0x1a>
  4056d6:	2001      	movs	r0, #1
  4056d8:	4770      	bx	lr
  4056da:	4a0d      	ldr	r2, [pc, #52]	; (405710 <pmc_switch_mck_to_pllack+0x60>)
  4056dc:	6b13      	ldr	r3, [r2, #48]	; 0x30
  4056de:	f023 0303 	bic.w	r3, r3, #3
  4056e2:	f043 0302 	orr.w	r3, r3, #2
  4056e6:	6313      	str	r3, [r2, #48]	; 0x30
  4056e8:	6e93      	ldr	r3, [r2, #104]	; 0x68
  4056ea:	f013 0f08 	tst.w	r3, #8
  4056ee:	d10a      	bne.n	405706 <pmc_switch_mck_to_pllack+0x56>
  4056f0:	f44f 5380 	mov.w	r3, #4096	; 0x1000
  4056f4:	4906      	ldr	r1, [pc, #24]	; (405710 <pmc_switch_mck_to_pllack+0x60>)
  4056f6:	6e8a      	ldr	r2, [r1, #104]	; 0x68
  4056f8:	f012 0f08 	tst.w	r2, #8
  4056fc:	d105      	bne.n	40570a <pmc_switch_mck_to_pllack+0x5a>
  4056fe:	3b01      	subs	r3, #1
  405700:	d1f9      	bne.n	4056f6 <pmc_switch_mck_to_pllack+0x46>
  405702:	2001      	movs	r0, #1
  405704:	4770      	bx	lr
  405706:	2000      	movs	r0, #0
  405708:	4770      	bx	lr
  40570a:	2000      	movs	r0, #0
  40570c:	4770      	bx	lr
  40570e:	bf00      	nop
  405710:	400e0600 	.word	0x400e0600

00405714 <pmc_switch_mainck_to_xtal>:
  405714:	b9a0      	cbnz	r0, 405740 <pmc_switch_mainck_to_xtal+0x2c>
  405716:	480e      	ldr	r0, [pc, #56]	; (405750 <pmc_switch_mainck_to_xtal+0x3c>)
  405718:	6a03      	ldr	r3, [r0, #32]
  40571a:	0209      	lsls	r1, r1, #8
  40571c:	b289      	uxth	r1, r1
  40571e:	4a0d      	ldr	r2, [pc, #52]	; (405754 <pmc_switch_mainck_to_xtal+0x40>)
  405720:	401a      	ands	r2, r3
  405722:	4b0d      	ldr	r3, [pc, #52]	; (405758 <pmc_switch_mainck_to_xtal+0x44>)
  405724:	4313      	orrs	r3, r2
  405726:	4319      	orrs	r1, r3
  405728:	6201      	str	r1, [r0, #32]
  40572a:	4602      	mov	r2, r0
  40572c:	6e93      	ldr	r3, [r2, #104]	; 0x68
  40572e:	f013 0f01 	tst.w	r3, #1
  405732:	d0fb      	beq.n	40572c <pmc_switch_mainck_to_xtal+0x18>
  405734:	4a06      	ldr	r2, [pc, #24]	; (405750 <pmc_switch_mainck_to_xtal+0x3c>)
  405736:	6a11      	ldr	r1, [r2, #32]
  405738:	4b08      	ldr	r3, [pc, #32]	; (40575c <pmc_switch_mainck_to_xtal+0x48>)
  40573a:	430b      	orrs	r3, r1
  40573c:	6213      	str	r3, [r2, #32]
  40573e:	4770      	bx	lr
  405740:	4903      	ldr	r1, [pc, #12]	; (405750 <pmc_switch_mainck_to_xtal+0x3c>)
  405742:	6a0b      	ldr	r3, [r1, #32]
  405744:	4a06      	ldr	r2, [pc, #24]	; (405760 <pmc_switch_mainck_to_xtal+0x4c>)
  405746:	401a      	ands	r2, r3
  405748:	4b06      	ldr	r3, [pc, #24]	; (405764 <pmc_switch_mainck_to_xtal+0x50>)
  40574a:	4313      	orrs	r3, r2
  40574c:	620b      	str	r3, [r1, #32]
  40574e:	4770      	bx	lr
  405750:	400e0600 	.word	0x400e0600
  405754:	ffc8fffc 	.word	0xffc8fffc
  405758:	00370001 	.word	0x00370001
  40575c:	01370000 	.word	0x01370000
  405760:	fec8fffc 	.word	0xfec8fffc
  405764:	01370002 	.word	0x01370002

00405768 <pmc_osc_is_ready_mainck>:
  405768:	4b02      	ldr	r3, [pc, #8]	; (405774 <pmc_osc_is_ready_mainck+0xc>)
  40576a:	6e98      	ldr	r0, [r3, #104]	; 0x68
  40576c:	f400 3080 	and.w	r0, r0, #65536	; 0x10000
  405770:	4770      	bx	lr
  405772:	bf00      	nop
  405774:	400e0600 	.word	0x400e0600

00405778 <pmc_disable_pllack>:
  405778:	f04f 5200 	mov.w	r2, #536870912	; 0x20000000
  40577c:	4b01      	ldr	r3, [pc, #4]	; (405784 <pmc_disable_pllack+0xc>)
  40577e:	629a      	str	r2, [r3, #40]	; 0x28
  405780:	4770      	bx	lr
  405782:	bf00      	nop
  405784:	400e0600 	.word	0x400e0600

00405788 <pmc_is_locked_pllack>:
  405788:	4b02      	ldr	r3, [pc, #8]	; (405794 <pmc_is_locked_pllack+0xc>)
  40578a:	6e98      	ldr	r0, [r3, #104]	; 0x68
  40578c:	f000 0002 	and.w	r0, r0, #2
  405790:	4770      	bx	lr
  405792:	bf00      	nop
  405794:	400e0600 	.word	0x400e0600

00405798 <pmc_enable_periph_clk>:
  405798:	283f      	cmp	r0, #63	; 0x3f
  40579a:	d81e      	bhi.n	4057da <pmc_enable_periph_clk+0x42>
  40579c:	281f      	cmp	r0, #31
  40579e:	d80c      	bhi.n	4057ba <pmc_enable_periph_clk+0x22>
  4057a0:	4b11      	ldr	r3, [pc, #68]	; (4057e8 <pmc_enable_periph_clk+0x50>)
  4057a2:	699a      	ldr	r2, [r3, #24]
  4057a4:	2301      	movs	r3, #1
  4057a6:	4083      	lsls	r3, r0
  4057a8:	4393      	bics	r3, r2
  4057aa:	d018      	beq.n	4057de <pmc_enable_periph_clk+0x46>
  4057ac:	2301      	movs	r3, #1
  4057ae:	fa03 f000 	lsl.w	r0, r3, r0
  4057b2:	4b0d      	ldr	r3, [pc, #52]	; (4057e8 <pmc_enable_periph_clk+0x50>)
  4057b4:	6118      	str	r0, [r3, #16]
  4057b6:	2000      	movs	r0, #0
  4057b8:	4770      	bx	lr
  4057ba:	3820      	subs	r0, #32
  4057bc:	4b0a      	ldr	r3, [pc, #40]	; (4057e8 <pmc_enable_periph_clk+0x50>)
  4057be:	f8d3 2108 	ldr.w	r2, [r3, #264]	; 0x108
  4057c2:	2301      	movs	r3, #1
  4057c4:	4083      	lsls	r3, r0
  4057c6:	4393      	bics	r3, r2
  4057c8:	d00b      	beq.n	4057e2 <pmc_enable_periph_clk+0x4a>
  4057ca:	2301      	movs	r3, #1
  4057cc:	fa03 f000 	lsl.w	r0, r3, r0
  4057d0:	4b05      	ldr	r3, [pc, #20]	; (4057e8 <pmc_enable_periph_clk+0x50>)
  4057d2:	f8c3 0100 	str.w	r0, [r3, #256]	; 0x100
  4057d6:	2000      	movs	r0, #0
  4057d8:	4770      	bx	lr
  4057da:	2001      	movs	r0, #1
  4057dc:	4770      	bx	lr
  4057de:	2000      	movs	r0, #0
  4057e0:	4770      	bx	lr
  4057e2:	2000      	movs	r0, #0
  4057e4:	4770      	bx	lr
  4057e6:	bf00      	nop
  4057e8:	400e0600 	.word	0x400e0600

004057ec <spi_enable_clock>:
  4057ec:	b508      	push	{r3, lr}
  4057ee:	4b07      	ldr	r3, [pc, #28]	; (40580c <spi_enable_clock+0x20>)
  4057f0:	4298      	cmp	r0, r3
  4057f2:	d003      	beq.n	4057fc <spi_enable_clock+0x10>
  4057f4:	4b06      	ldr	r3, [pc, #24]	; (405810 <spi_enable_clock+0x24>)
  4057f6:	4298      	cmp	r0, r3
  4057f8:	d004      	beq.n	405804 <spi_enable_clock+0x18>
  4057fa:	bd08      	pop	{r3, pc}
  4057fc:	2015      	movs	r0, #21
  4057fe:	4b05      	ldr	r3, [pc, #20]	; (405814 <spi_enable_clock+0x28>)
  405800:	4798      	blx	r3
  405802:	bd08      	pop	{r3, pc}
  405804:	202a      	movs	r0, #42	; 0x2a
  405806:	4b03      	ldr	r3, [pc, #12]	; (405814 <spi_enable_clock+0x28>)
  405808:	4798      	blx	r3
  40580a:	e7f6      	b.n	4057fa <spi_enable_clock+0xe>
  40580c:	40008000 	.word	0x40008000
  405810:	40058000 	.word	0x40058000
  405814:	00405799 	.word	0x00405799

00405818 <spi_set_peripheral_chip_select_value>:
  405818:	6843      	ldr	r3, [r0, #4]
  40581a:	f423 2370 	bic.w	r3, r3, #983040	; 0xf0000
  40581e:	6043      	str	r3, [r0, #4]
  405820:	6843      	ldr	r3, [r0, #4]
  405822:	0409      	lsls	r1, r1, #16
  405824:	f401 2170 	and.w	r1, r1, #983040	; 0xf0000
  405828:	4319      	orrs	r1, r3
  40582a:	6041      	str	r1, [r0, #4]
  40582c:	4770      	bx	lr

0040582e <spi_read>:
  40582e:	b410      	push	{r4}
  405830:	f643 2399 	movw	r3, #15001	; 0x3a99
  405834:	6904      	ldr	r4, [r0, #16]
  405836:	f014 0f01 	tst.w	r4, #1
  40583a:	d103      	bne.n	405844 <spi_read+0x16>
  40583c:	3b01      	subs	r3, #1
  40583e:	d1f9      	bne.n	405834 <spi_read+0x6>
  405840:	2001      	movs	r0, #1
  405842:	e009      	b.n	405858 <spi_read+0x2a>
  405844:	6883      	ldr	r3, [r0, #8]
  405846:	6840      	ldr	r0, [r0, #4]
  405848:	f010 0f02 	tst.w	r0, #2
  40584c:	d002      	beq.n	405854 <spi_read+0x26>
  40584e:	f3c3 4003 	ubfx	r0, r3, #16, #4
  405852:	7010      	strb	r0, [r2, #0]
  405854:	800b      	strh	r3, [r1, #0]
  405856:	2000      	movs	r0, #0
  405858:	f85d 4b04 	ldr.w	r4, [sp], #4
  40585c:	4770      	bx	lr

0040585e <spi_write>:
  40585e:	b430      	push	{r4, r5}
  405860:	f643 2499 	movw	r4, #15001	; 0x3a99
  405864:	6905      	ldr	r5, [r0, #16]
  405866:	f015 0f02 	tst.w	r5, #2
  40586a:	d103      	bne.n	405874 <spi_write+0x16>
  40586c:	3c01      	subs	r4, #1
  40586e:	d1f9      	bne.n	405864 <spi_write+0x6>
  405870:	2001      	movs	r0, #1
  405872:	e00c      	b.n	40588e <spi_write+0x30>
  405874:	6844      	ldr	r4, [r0, #4]
  405876:	f014 0f02 	tst.w	r4, #2
  40587a:	d006      	beq.n	40588a <spi_write+0x2c>
  40587c:	0412      	lsls	r2, r2, #16
  40587e:	f402 2270 	and.w	r2, r2, #983040	; 0xf0000
  405882:	4311      	orrs	r1, r2
  405884:	b10b      	cbz	r3, 40588a <spi_write+0x2c>
  405886:	f041 7180 	orr.w	r1, r1, #16777216	; 0x1000000
  40588a:	60c1      	str	r1, [r0, #12]
  40588c:	2000      	movs	r0, #0
  40588e:	bc30      	pop	{r4, r5}
  405890:	4770      	bx	lr

00405892 <spi_set_clock_polarity>:
  405892:	b932      	cbnz	r2, 4058a2 <spi_set_clock_polarity+0x10>
  405894:	eb00 0081 	add.w	r0, r0, r1, lsl #2
  405898:	6b03      	ldr	r3, [r0, #48]	; 0x30
  40589a:	f023 0301 	bic.w	r3, r3, #1
  40589e:	6303      	str	r3, [r0, #48]	; 0x30
  4058a0:	4770      	bx	lr
  4058a2:	eb00 0081 	add.w	r0, r0, r1, lsl #2
  4058a6:	6b03      	ldr	r3, [r0, #48]	; 0x30
  4058a8:	f043 0301 	orr.w	r3, r3, #1
  4058ac:	6303      	str	r3, [r0, #48]	; 0x30
  4058ae:	4770      	bx	lr

004058b0 <spi_set_clock_phase>:
  4058b0:	b932      	cbnz	r2, 4058c0 <spi_set_clock_phase+0x10>
  4058b2:	eb00 0081 	add.w	r0, r0, r1, lsl #2
  4058b6:	6b03      	ldr	r3, [r0, #48]	; 0x30
  4058b8:	f023 0302 	bic.w	r3, r3, #2
  4058bc:	6303      	str	r3, [r0, #48]	; 0x30
  4058be:	4770      	bx	lr
  4058c0:	eb00 0081 	add.w	r0, r0, r1, lsl #2
  4058c4:	6b03      	ldr	r3, [r0, #48]	; 0x30
  4058c6:	f043 0302 	orr.w	r3, r3, #2
  4058ca:	6303      	str	r3, [r0, #48]	; 0x30
  4058cc:	4770      	bx	lr

004058ce <spi_set_bits_per_transfer>:
  4058ce:	eb00 0181 	add.w	r1, r0, r1, lsl #2
  4058d2:	6b0b      	ldr	r3, [r1, #48]	; 0x30
  4058d4:	f023 03f0 	bic.w	r3, r3, #240	; 0xf0
  4058d8:	630b      	str	r3, [r1, #48]	; 0x30
  4058da:	6b0b      	ldr	r3, [r1, #48]	; 0x30
  4058dc:	431a      	orrs	r2, r3
  4058de:	630a      	str	r2, [r1, #48]	; 0x30
  4058e0:	4770      	bx	lr

004058e2 <spi_calc_baudrate_div>:
  4058e2:	1e43      	subs	r3, r0, #1
  4058e4:	4419      	add	r1, r3
  4058e6:	fbb1 f0f0 	udiv	r0, r1, r0
  4058ea:	1e43      	subs	r3, r0, #1
  4058ec:	2bfe      	cmp	r3, #254	; 0xfe
  4058ee:	bf94      	ite	ls
  4058f0:	b200      	sxthls	r0, r0
  4058f2:	f04f 30ff 	movhi.w	r0, #4294967295
  4058f6:	4770      	bx	lr

004058f8 <spi_set_baudrate_div>:
  4058f8:	b17a      	cbz	r2, 40591a <spi_set_baudrate_div+0x22>
  4058fa:	b410      	push	{r4}
  4058fc:	4614      	mov	r4, r2
  4058fe:	eb00 0181 	add.w	r1, r0, r1, lsl #2
  405902:	6b0b      	ldr	r3, [r1, #48]	; 0x30
  405904:	f423 437f 	bic.w	r3, r3, #65280	; 0xff00
  405908:	630b      	str	r3, [r1, #48]	; 0x30
  40590a:	6b0a      	ldr	r2, [r1, #48]	; 0x30
  40590c:	ea42 2204 	orr.w	r2, r2, r4, lsl #8
  405910:	630a      	str	r2, [r1, #48]	; 0x30
  405912:	2000      	movs	r0, #0
  405914:	f85d 4b04 	ldr.w	r4, [sp], #4
  405918:	4770      	bx	lr
  40591a:	f04f 30ff 	mov.w	r0, #4294967295
  40591e:	4770      	bx	lr

00405920 <spi_set_transfer_delay>:
  405920:	b410      	push	{r4}
  405922:	eb00 0181 	add.w	r1, r0, r1, lsl #2
  405926:	6b08      	ldr	r0, [r1, #48]	; 0x30
  405928:	b280      	uxth	r0, r0
  40592a:	6308      	str	r0, [r1, #48]	; 0x30
  40592c:	6b0c      	ldr	r4, [r1, #48]	; 0x30
  40592e:	ea44 6303 	orr.w	r3, r4, r3, lsl #24
  405932:	ea43 4302 	orr.w	r3, r3, r2, lsl #16
  405936:	630b      	str	r3, [r1, #48]	; 0x30
  405938:	f85d 4b04 	ldr.w	r4, [sp], #4
  40593c:	4770      	bx	lr

0040593e <tc_init>:
  40593e:	b410      	push	{r4}
  405940:	0189      	lsls	r1, r1, #6
  405942:	1843      	adds	r3, r0, r1
  405944:	2402      	movs	r4, #2
  405946:	5044      	str	r4, [r0, r1]
  405948:	f04f 31ff 	mov.w	r1, #4294967295
  40594c:	6299      	str	r1, [r3, #40]	; 0x28
  40594e:	6a19      	ldr	r1, [r3, #32]
  405950:	605a      	str	r2, [r3, #4]
  405952:	f85d 4b04 	ldr.w	r4, [sp], #4
  405956:	4770      	bx	lr

00405958 <tc_start>:
  405958:	0189      	lsls	r1, r1, #6
  40595a:	2305      	movs	r3, #5
  40595c:	5043      	str	r3, [r0, r1]
  40595e:	4770      	bx	lr

00405960 <tc_read_cv>:
  405960:	eb00 1181 	add.w	r1, r0, r1, lsl #6
  405964:	6908      	ldr	r0, [r1, #16]
  405966:	4770      	bx	lr

00405968 <tc_write_rc>:
  405968:	eb00 1181 	add.w	r1, r0, r1, lsl #6
  40596c:	61ca      	str	r2, [r1, #28]
  40596e:	4770      	bx	lr

00405970 <tc_enable_interrupt>:
  405970:	eb00 1181 	add.w	r1, r0, r1, lsl #6
  405974:	624a      	str	r2, [r1, #36]	; 0x24
  405976:	4770      	bx	lr

00405978 <tc_get_status>:
  405978:	eb00 1181 	add.w	r1, r0, r1, lsl #6
  40597c:	6a08      	ldr	r0, [r1, #32]
  40597e:	4770      	bx	lr

00405980 <uart_write>:
  405980:	6943      	ldr	r3, [r0, #20]
  405982:	f013 0f02 	tst.w	r3, #2
  405986:	d002      	beq.n	40598e <uart_write+0xe>
  405988:	61c1      	str	r1, [r0, #28]
  40598a:	2000      	movs	r0, #0
  40598c:	4770      	bx	lr
  40598e:	2001      	movs	r0, #1
  405990:	4770      	bx	lr

00405992 <uart_read>:
  405992:	6943      	ldr	r3, [r0, #20]
  405994:	f013 0f01 	tst.w	r3, #1
  405998:	d003      	beq.n	4059a2 <uart_read+0x10>
  40599a:	6983      	ldr	r3, [r0, #24]
  40599c:	700b      	strb	r3, [r1, #0]
  40599e:	2000      	movs	r0, #0
  4059a0:	4770      	bx	lr
  4059a2:	2001      	movs	r0, #1
  4059a4:	4770      	bx	lr

004059a6 <usart_set_async_baudrate>:
  4059a6:	b410      	push	{r4}
  4059a8:	010b      	lsls	r3, r1, #4
  4059aa:	4293      	cmp	r3, r2
  4059ac:	d914      	bls.n	4059d8 <usart_set_async_baudrate+0x32>
  4059ae:	00c9      	lsls	r1, r1, #3
  4059b0:	084b      	lsrs	r3, r1, #1
  4059b2:	eb03 02c2 	add.w	r2, r3, r2, lsl #3
  4059b6:	fbb2 f2f1 	udiv	r2, r2, r1
  4059ba:	08d3      	lsrs	r3, r2, #3
  4059bc:	1e5c      	subs	r4, r3, #1
  4059be:	f64f 71fe 	movw	r1, #65534	; 0xfffe
  4059c2:	428c      	cmp	r4, r1
  4059c4:	d901      	bls.n	4059ca <usart_set_async_baudrate+0x24>
  4059c6:	2001      	movs	r0, #1
  4059c8:	e017      	b.n	4059fa <usart_set_async_baudrate+0x54>
  4059ca:	6841      	ldr	r1, [r0, #4]
  4059cc:	f441 2100 	orr.w	r1, r1, #524288	; 0x80000
  4059d0:	6041      	str	r1, [r0, #4]
  4059d2:	e00c      	b.n	4059ee <usart_set_async_baudrate+0x48>
  4059d4:	2001      	movs	r0, #1
  4059d6:	e010      	b.n	4059fa <usart_set_async_baudrate+0x54>
  4059d8:	0859      	lsrs	r1, r3, #1
  4059da:	eb01 02c2 	add.w	r2, r1, r2, lsl #3
  4059de:	fbb2 f2f3 	udiv	r2, r2, r3
  4059e2:	08d3      	lsrs	r3, r2, #3
  4059e4:	1e5c      	subs	r4, r3, #1
  4059e6:	f64f 71fe 	movw	r1, #65534	; 0xfffe
  4059ea:	428c      	cmp	r4, r1
  4059ec:	d8f2      	bhi.n	4059d4 <usart_set_async_baudrate+0x2e>
  4059ee:	0412      	lsls	r2, r2, #16
  4059f0:	f402 22e0 	and.w	r2, r2, #458752	; 0x70000
  4059f4:	431a      	orrs	r2, r3
  4059f6:	6202      	str	r2, [r0, #32]
  4059f8:	2000      	movs	r0, #0
  4059fa:	f85d 4b04 	ldr.w	r4, [sp], #4
  4059fe:	4770      	bx	lr

00405a00 <usart_reset>:
  405a00:	4b08      	ldr	r3, [pc, #32]	; (405a24 <usart_reset+0x24>)
  405a02:	f8c0 30e4 	str.w	r3, [r0, #228]	; 0xe4
  405a06:	2300      	movs	r3, #0
  405a08:	6043      	str	r3, [r0, #4]
  405a0a:	6243      	str	r3, [r0, #36]	; 0x24
  405a0c:	6283      	str	r3, [r0, #40]	; 0x28
  405a0e:	2388      	movs	r3, #136	; 0x88
  405a10:	6003      	str	r3, [r0, #0]
  405a12:	2324      	movs	r3, #36	; 0x24
  405a14:	6003      	str	r3, [r0, #0]
  405a16:	f44f 7380 	mov.w	r3, #256	; 0x100
  405a1a:	6003      	str	r3, [r0, #0]
  405a1c:	f44f 2300 	mov.w	r3, #524288	; 0x80000
  405a20:	6003      	str	r3, [r0, #0]
  405a22:	4770      	bx	lr
  405a24:	55534100 	.word	0x55534100

00405a28 <usart_init_rs232>:
  405a28:	b570      	push	{r4, r5, r6, lr}
  405a2a:	4605      	mov	r5, r0
  405a2c:	460c      	mov	r4, r1
  405a2e:	4616      	mov	r6, r2
  405a30:	4b0f      	ldr	r3, [pc, #60]	; (405a70 <usart_init_rs232+0x48>)
  405a32:	4798      	blx	r3
  405a34:	2200      	movs	r2, #0
  405a36:	4b0f      	ldr	r3, [pc, #60]	; (405a74 <usart_init_rs232+0x4c>)
  405a38:	601a      	str	r2, [r3, #0]
  405a3a:	b1a4      	cbz	r4, 405a66 <usart_init_rs232+0x3e>
  405a3c:	4632      	mov	r2, r6
  405a3e:	6821      	ldr	r1, [r4, #0]
  405a40:	4628      	mov	r0, r5
  405a42:	4b0d      	ldr	r3, [pc, #52]	; (405a78 <usart_init_rs232+0x50>)
  405a44:	4798      	blx	r3
  405a46:	4602      	mov	r2, r0
  405a48:	b978      	cbnz	r0, 405a6a <usart_init_rs232+0x42>
  405a4a:	6863      	ldr	r3, [r4, #4]
  405a4c:	68a1      	ldr	r1, [r4, #8]
  405a4e:	430b      	orrs	r3, r1
  405a50:	6921      	ldr	r1, [r4, #16]
  405a52:	430b      	orrs	r3, r1
  405a54:	68e1      	ldr	r1, [r4, #12]
  405a56:	430b      	orrs	r3, r1
  405a58:	4906      	ldr	r1, [pc, #24]	; (405a74 <usart_init_rs232+0x4c>)
  405a5a:	600b      	str	r3, [r1, #0]
  405a5c:	6869      	ldr	r1, [r5, #4]
  405a5e:	430b      	orrs	r3, r1
  405a60:	606b      	str	r3, [r5, #4]
  405a62:	4610      	mov	r0, r2
  405a64:	bd70      	pop	{r4, r5, r6, pc}
  405a66:	2201      	movs	r2, #1
  405a68:	e7fb      	b.n	405a62 <usart_init_rs232+0x3a>
  405a6a:	2201      	movs	r2, #1
  405a6c:	e7f9      	b.n	405a62 <usart_init_rs232+0x3a>
  405a6e:	bf00      	nop
  405a70:	00405a01 	.word	0x00405a01
  405a74:	2040c3e0 	.word	0x2040c3e0
  405a78:	004059a7 	.word	0x004059a7

00405a7c <usart_enable_tx>:
  405a7c:	2340      	movs	r3, #64	; 0x40
  405a7e:	6003      	str	r3, [r0, #0]
  405a80:	4770      	bx	lr

00405a82 <usart_enable_rx>:
  405a82:	2310      	movs	r3, #16
  405a84:	6003      	str	r3, [r0, #0]
  405a86:	4770      	bx	lr

00405a88 <usart_write>:
  405a88:	6943      	ldr	r3, [r0, #20]
  405a8a:	f013 0f02 	tst.w	r3, #2
  405a8e:	d004      	beq.n	405a9a <usart_write+0x12>
  405a90:	f3c1 0108 	ubfx	r1, r1, #0, #9
  405a94:	61c1      	str	r1, [r0, #28]
  405a96:	2000      	movs	r0, #0
  405a98:	4770      	bx	lr
  405a9a:	2001      	movs	r0, #1
  405a9c:	4770      	bx	lr

00405a9e <usart_read>:
  405a9e:	6943      	ldr	r3, [r0, #20]
  405aa0:	f013 0f01 	tst.w	r3, #1
  405aa4:	d005      	beq.n	405ab2 <usart_read+0x14>
  405aa6:	6983      	ldr	r3, [r0, #24]
  405aa8:	f3c3 0308 	ubfx	r3, r3, #0, #9
  405aac:	600b      	str	r3, [r1, #0]
  405aae:	2000      	movs	r0, #0
  405ab0:	4770      	bx	lr
  405ab2:	2001      	movs	r0, #1
  405ab4:	4770      	bx	lr

00405ab6 <Dummy_Handler>:
  405ab6:	e7fe      	b.n	405ab6 <Dummy_Handler>

00405ab8 <Reset_Handler>:
  405ab8:	b500      	push	{lr}
  405aba:	b083      	sub	sp, #12
  405abc:	4b25      	ldr	r3, [pc, #148]	; (405b54 <Reset_Handler+0x9c>)
  405abe:	4a26      	ldr	r2, [pc, #152]	; (405b58 <Reset_Handler+0xa0>)
  405ac0:	429a      	cmp	r2, r3
  405ac2:	d010      	beq.n	405ae6 <Reset_Handler+0x2e>
  405ac4:	4b25      	ldr	r3, [pc, #148]	; (405b5c <Reset_Handler+0xa4>)
  405ac6:	4a23      	ldr	r2, [pc, #140]	; (405b54 <Reset_Handler+0x9c>)
  405ac8:	429a      	cmp	r2, r3
  405aca:	d20c      	bcs.n	405ae6 <Reset_Handler+0x2e>
  405acc:	3b01      	subs	r3, #1
  405ace:	1a9b      	subs	r3, r3, r2
  405ad0:	f023 0303 	bic.w	r3, r3, #3
  405ad4:	3304      	adds	r3, #4
  405ad6:	4413      	add	r3, r2
  405ad8:	491f      	ldr	r1, [pc, #124]	; (405b58 <Reset_Handler+0xa0>)
  405ada:	f851 0b04 	ldr.w	r0, [r1], #4
  405ade:	f842 0b04 	str.w	r0, [r2], #4
  405ae2:	429a      	cmp	r2, r3
  405ae4:	d1f9      	bne.n	405ada <Reset_Handler+0x22>
  405ae6:	4b1e      	ldr	r3, [pc, #120]	; (405b60 <Reset_Handler+0xa8>)
  405ae8:	4a1e      	ldr	r2, [pc, #120]	; (405b64 <Reset_Handler+0xac>)
  405aea:	429a      	cmp	r2, r3
  405aec:	d20a      	bcs.n	405b04 <Reset_Handler+0x4c>
  405aee:	3b01      	subs	r3, #1
  405af0:	1a9b      	subs	r3, r3, r2
  405af2:	f023 0303 	bic.w	r3, r3, #3
  405af6:	3304      	adds	r3, #4
  405af8:	4413      	add	r3, r2
  405afa:	2100      	movs	r1, #0
  405afc:	f842 1b04 	str.w	r1, [r2], #4
  405b00:	4293      	cmp	r3, r2
  405b02:	d1fb      	bne.n	405afc <Reset_Handler+0x44>
  405b04:	4a18      	ldr	r2, [pc, #96]	; (405b68 <Reset_Handler+0xb0>)
  405b06:	4b19      	ldr	r3, [pc, #100]	; (405b6c <Reset_Handler+0xb4>)
  405b08:	f023 037f 	bic.w	r3, r3, #127	; 0x7f
  405b0c:	6093      	str	r3, [r2, #8]
  405b0e:	f3ef 8310 	mrs	r3, PRIMASK
  405b12:	fab3 f383 	clz	r3, r3
  405b16:	095b      	lsrs	r3, r3, #5
  405b18:	9301      	str	r3, [sp, #4]
  405b1a:	b672      	cpsid	i
  405b1c:	f3bf 8f5f 	dmb	sy
  405b20:	2200      	movs	r2, #0
  405b22:	4b13      	ldr	r3, [pc, #76]	; (405b70 <Reset_Handler+0xb8>)
  405b24:	701a      	strb	r2, [r3, #0]
  405b26:	9901      	ldr	r1, [sp, #4]
  405b28:	4a12      	ldr	r2, [pc, #72]	; (405b74 <Reset_Handler+0xbc>)
  405b2a:	6813      	ldr	r3, [r2, #0]
  405b2c:	f443 0370 	orr.w	r3, r3, #15728640	; 0xf00000
  405b30:	6013      	str	r3, [r2, #0]
  405b32:	f3bf 8f4f 	dsb	sy
  405b36:	f3bf 8f6f 	isb	sy
  405b3a:	b129      	cbz	r1, 405b48 <Reset_Handler+0x90>
  405b3c:	2201      	movs	r2, #1
  405b3e:	4b0c      	ldr	r3, [pc, #48]	; (405b70 <Reset_Handler+0xb8>)
  405b40:	701a      	strb	r2, [r3, #0]
  405b42:	f3bf 8f5f 	dmb	sy
  405b46:	b662      	cpsie	i
  405b48:	4b0b      	ldr	r3, [pc, #44]	; (405b78 <Reset_Handler+0xc0>)
  405b4a:	4798      	blx	r3
  405b4c:	4b0b      	ldr	r3, [pc, #44]	; (405b7c <Reset_Handler+0xc4>)
  405b4e:	4798      	blx	r3
  405b50:	e7fe      	b.n	405b50 <Reset_Handler+0x98>
  405b52:	bf00      	nop
  405b54:	20400000 	.word	0x20400000
  405b58:	0040e574 	.word	0x0040e574
  405b5c:	204009d8 	.word	0x204009d8
  405b60:	2040cfd8 	.word	0x2040cfd8
  405b64:	204009d8 	.word	0x204009d8
  405b68:	e000ed00 	.word	0xe000ed00
  405b6c:	00400000 	.word	0x00400000
  405b70:	20400018 	.word	0x20400018
  405b74:	e000ed88 	.word	0xe000ed88
  405b78:	00407565 	.word	0x00407565
  405b7c:	00406af9 	.word	0x00406af9

00405b80 <SystemCoreClockUpdate>:
  405b80:	4b3b      	ldr	r3, [pc, #236]	; (405c70 <SystemCoreClockUpdate+0xf0>)
  405b82:	6b1b      	ldr	r3, [r3, #48]	; 0x30
  405b84:	f003 0303 	and.w	r3, r3, #3
  405b88:	2b01      	cmp	r3, #1
  405b8a:	d01d      	beq.n	405bc8 <SystemCoreClockUpdate+0x48>
  405b8c:	b183      	cbz	r3, 405bb0 <SystemCoreClockUpdate+0x30>
  405b8e:	2b02      	cmp	r3, #2
  405b90:	d036      	beq.n	405c00 <SystemCoreClockUpdate+0x80>
  405b92:	4b37      	ldr	r3, [pc, #220]	; (405c70 <SystemCoreClockUpdate+0xf0>)
  405b94:	6b1b      	ldr	r3, [r3, #48]	; 0x30
  405b96:	f003 0370 	and.w	r3, r3, #112	; 0x70
  405b9a:	2b70      	cmp	r3, #112	; 0x70
  405b9c:	d05f      	beq.n	405c5e <SystemCoreClockUpdate+0xde>
  405b9e:	4b34      	ldr	r3, [pc, #208]	; (405c70 <SystemCoreClockUpdate+0xf0>)
  405ba0:	6b1a      	ldr	r2, [r3, #48]	; 0x30
  405ba2:	4934      	ldr	r1, [pc, #208]	; (405c74 <SystemCoreClockUpdate+0xf4>)
  405ba4:	f3c2 1202 	ubfx	r2, r2, #4, #3
  405ba8:	680b      	ldr	r3, [r1, #0]
  405baa:	40d3      	lsrs	r3, r2
  405bac:	600b      	str	r3, [r1, #0]
  405bae:	4770      	bx	lr
  405bb0:	4b31      	ldr	r3, [pc, #196]	; (405c78 <SystemCoreClockUpdate+0xf8>)
  405bb2:	695b      	ldr	r3, [r3, #20]
  405bb4:	f013 0f80 	tst.w	r3, #128	; 0x80
  405bb8:	bf14      	ite	ne
  405bba:	f44f 4200 	movne.w	r2, #32768	; 0x8000
  405bbe:	f44f 42fa 	moveq.w	r2, #32000	; 0x7d00
  405bc2:	4b2c      	ldr	r3, [pc, #176]	; (405c74 <SystemCoreClockUpdate+0xf4>)
  405bc4:	601a      	str	r2, [r3, #0]
  405bc6:	e7e4      	b.n	405b92 <SystemCoreClockUpdate+0x12>
  405bc8:	4b29      	ldr	r3, [pc, #164]	; (405c70 <SystemCoreClockUpdate+0xf0>)
  405bca:	6a1b      	ldr	r3, [r3, #32]
  405bcc:	f013 7f80 	tst.w	r3, #16777216	; 0x1000000
  405bd0:	d003      	beq.n	405bda <SystemCoreClockUpdate+0x5a>
  405bd2:	4a2a      	ldr	r2, [pc, #168]	; (405c7c <SystemCoreClockUpdate+0xfc>)
  405bd4:	4b27      	ldr	r3, [pc, #156]	; (405c74 <SystemCoreClockUpdate+0xf4>)
  405bd6:	601a      	str	r2, [r3, #0]
  405bd8:	e7db      	b.n	405b92 <SystemCoreClockUpdate+0x12>
  405bda:	4a29      	ldr	r2, [pc, #164]	; (405c80 <SystemCoreClockUpdate+0x100>)
  405bdc:	4b25      	ldr	r3, [pc, #148]	; (405c74 <SystemCoreClockUpdate+0xf4>)
  405bde:	601a      	str	r2, [r3, #0]
  405be0:	4b23      	ldr	r3, [pc, #140]	; (405c70 <SystemCoreClockUpdate+0xf0>)
  405be2:	6a1b      	ldr	r3, [r3, #32]
  405be4:	f003 0370 	and.w	r3, r3, #112	; 0x70
  405be8:	2b10      	cmp	r3, #16
  405bea:	d005      	beq.n	405bf8 <SystemCoreClockUpdate+0x78>
  405bec:	2b20      	cmp	r3, #32
  405bee:	d1d0      	bne.n	405b92 <SystemCoreClockUpdate+0x12>
  405bf0:	4a22      	ldr	r2, [pc, #136]	; (405c7c <SystemCoreClockUpdate+0xfc>)
  405bf2:	4b20      	ldr	r3, [pc, #128]	; (405c74 <SystemCoreClockUpdate+0xf4>)
  405bf4:	601a      	str	r2, [r3, #0]
  405bf6:	e7cc      	b.n	405b92 <SystemCoreClockUpdate+0x12>
  405bf8:	4a22      	ldr	r2, [pc, #136]	; (405c84 <SystemCoreClockUpdate+0x104>)
  405bfa:	4b1e      	ldr	r3, [pc, #120]	; (405c74 <SystemCoreClockUpdate+0xf4>)
  405bfc:	601a      	str	r2, [r3, #0]
  405bfe:	e7c8      	b.n	405b92 <SystemCoreClockUpdate+0x12>
  405c00:	4b1b      	ldr	r3, [pc, #108]	; (405c70 <SystemCoreClockUpdate+0xf0>)
  405c02:	6a1b      	ldr	r3, [r3, #32]
  405c04:	f013 7f80 	tst.w	r3, #16777216	; 0x1000000
  405c08:	d016      	beq.n	405c38 <SystemCoreClockUpdate+0xb8>
  405c0a:	4a1c      	ldr	r2, [pc, #112]	; (405c7c <SystemCoreClockUpdate+0xfc>)
  405c0c:	4b19      	ldr	r3, [pc, #100]	; (405c74 <SystemCoreClockUpdate+0xf4>)
  405c0e:	601a      	str	r2, [r3, #0]
  405c10:	4b17      	ldr	r3, [pc, #92]	; (405c70 <SystemCoreClockUpdate+0xf0>)
  405c12:	6b1b      	ldr	r3, [r3, #48]	; 0x30
  405c14:	f003 0303 	and.w	r3, r3, #3
  405c18:	2b02      	cmp	r3, #2
  405c1a:	d1ba      	bne.n	405b92 <SystemCoreClockUpdate+0x12>
  405c1c:	4a14      	ldr	r2, [pc, #80]	; (405c70 <SystemCoreClockUpdate+0xf0>)
  405c1e:	6a91      	ldr	r1, [r2, #40]	; 0x28
  405c20:	6a92      	ldr	r2, [r2, #40]	; 0x28
  405c22:	4814      	ldr	r0, [pc, #80]	; (405c74 <SystemCoreClockUpdate+0xf4>)
  405c24:	f3c1 410a 	ubfx	r1, r1, #16, #11
  405c28:	6803      	ldr	r3, [r0, #0]
  405c2a:	fb01 3303 	mla	r3, r1, r3, r3
  405c2e:	b2d2      	uxtb	r2, r2
  405c30:	fbb3 f3f2 	udiv	r3, r3, r2
  405c34:	6003      	str	r3, [r0, #0]
  405c36:	e7ac      	b.n	405b92 <SystemCoreClockUpdate+0x12>
  405c38:	4a11      	ldr	r2, [pc, #68]	; (405c80 <SystemCoreClockUpdate+0x100>)
  405c3a:	4b0e      	ldr	r3, [pc, #56]	; (405c74 <SystemCoreClockUpdate+0xf4>)
  405c3c:	601a      	str	r2, [r3, #0]
  405c3e:	4b0c      	ldr	r3, [pc, #48]	; (405c70 <SystemCoreClockUpdate+0xf0>)
  405c40:	6a1b      	ldr	r3, [r3, #32]
  405c42:	f003 0370 	and.w	r3, r3, #112	; 0x70
  405c46:	2b10      	cmp	r3, #16
  405c48:	d005      	beq.n	405c56 <SystemCoreClockUpdate+0xd6>
  405c4a:	2b20      	cmp	r3, #32
  405c4c:	d1e0      	bne.n	405c10 <SystemCoreClockUpdate+0x90>
  405c4e:	4a0b      	ldr	r2, [pc, #44]	; (405c7c <SystemCoreClockUpdate+0xfc>)
  405c50:	4b08      	ldr	r3, [pc, #32]	; (405c74 <SystemCoreClockUpdate+0xf4>)
  405c52:	601a      	str	r2, [r3, #0]
  405c54:	e7dc      	b.n	405c10 <SystemCoreClockUpdate+0x90>
  405c56:	4a0b      	ldr	r2, [pc, #44]	; (405c84 <SystemCoreClockUpdate+0x104>)
  405c58:	4b06      	ldr	r3, [pc, #24]	; (405c74 <SystemCoreClockUpdate+0xf4>)
  405c5a:	601a      	str	r2, [r3, #0]
  405c5c:	e7d8      	b.n	405c10 <SystemCoreClockUpdate+0x90>
  405c5e:	4a05      	ldr	r2, [pc, #20]	; (405c74 <SystemCoreClockUpdate+0xf4>)
  405c60:	6813      	ldr	r3, [r2, #0]
  405c62:	4909      	ldr	r1, [pc, #36]	; (405c88 <SystemCoreClockUpdate+0x108>)
  405c64:	fba1 1303 	umull	r1, r3, r1, r3
  405c68:	085b      	lsrs	r3, r3, #1
  405c6a:	6013      	str	r3, [r2, #0]
  405c6c:	4770      	bx	lr
  405c6e:	bf00      	nop
  405c70:	400e0600 	.word	0x400e0600
  405c74:	2040001c 	.word	0x2040001c
  405c78:	400e1810 	.word	0x400e1810
  405c7c:	00b71b00 	.word	0x00b71b00
  405c80:	003d0900 	.word	0x003d0900
  405c84:	007a1200 	.word	0x007a1200
  405c88:	aaaaaaab 	.word	0xaaaaaaab

00405c8c <system_init_flash>:
  405c8c:	4b12      	ldr	r3, [pc, #72]	; (405cd8 <system_init_flash+0x4c>)
  405c8e:	4298      	cmp	r0, r3
  405c90:	d911      	bls.n	405cb6 <system_init_flash+0x2a>
  405c92:	4b12      	ldr	r3, [pc, #72]	; (405cdc <system_init_flash+0x50>)
  405c94:	4298      	cmp	r0, r3
  405c96:	d913      	bls.n	405cc0 <system_init_flash+0x34>
  405c98:	4b11      	ldr	r3, [pc, #68]	; (405ce0 <system_init_flash+0x54>)
  405c9a:	4298      	cmp	r0, r3
  405c9c:	d914      	bls.n	405cc8 <system_init_flash+0x3c>
  405c9e:	4b11      	ldr	r3, [pc, #68]	; (405ce4 <system_init_flash+0x58>)
  405ca0:	4298      	cmp	r0, r3
  405ca2:	d915      	bls.n	405cd0 <system_init_flash+0x44>
  405ca4:	4b10      	ldr	r3, [pc, #64]	; (405ce8 <system_init_flash+0x5c>)
  405ca6:	4298      	cmp	r0, r3
  405ca8:	bf94      	ite	ls
  405caa:	f04f 2204 	movls.w	r2, #67109888	; 0x4000400
  405cae:	4a0f      	ldrhi	r2, [pc, #60]	; (405cec <system_init_flash+0x60>)
  405cb0:	4b0f      	ldr	r3, [pc, #60]	; (405cf0 <system_init_flash+0x64>)
  405cb2:	601a      	str	r2, [r3, #0]
  405cb4:	4770      	bx	lr
  405cb6:	f04f 6280 	mov.w	r2, #67108864	; 0x4000000
  405cba:	4b0d      	ldr	r3, [pc, #52]	; (405cf0 <system_init_flash+0x64>)
  405cbc:	601a      	str	r2, [r3, #0]
  405cbe:	4770      	bx	lr
  405cc0:	4a0c      	ldr	r2, [pc, #48]	; (405cf4 <system_init_flash+0x68>)
  405cc2:	4b0b      	ldr	r3, [pc, #44]	; (405cf0 <system_init_flash+0x64>)
  405cc4:	601a      	str	r2, [r3, #0]
  405cc6:	4770      	bx	lr
  405cc8:	4a0b      	ldr	r2, [pc, #44]	; (405cf8 <system_init_flash+0x6c>)
  405cca:	4b09      	ldr	r3, [pc, #36]	; (405cf0 <system_init_flash+0x64>)
  405ccc:	601a      	str	r2, [r3, #0]
  405cce:	4770      	bx	lr
  405cd0:	4a0a      	ldr	r2, [pc, #40]	; (405cfc <system_init_flash+0x70>)
  405cd2:	4b07      	ldr	r3, [pc, #28]	; (405cf0 <system_init_flash+0x64>)
  405cd4:	601a      	str	r2, [r3, #0]
  405cd6:	4770      	bx	lr
  405cd8:	01312cff 	.word	0x01312cff
  405cdc:	026259ff 	.word	0x026259ff
  405ce0:	039386ff 	.word	0x039386ff
  405ce4:	04c4b3ff 	.word	0x04c4b3ff
  405ce8:	05f5e0ff 	.word	0x05f5e0ff
  405cec:	04000500 	.word	0x04000500
  405cf0:	400e0c00 	.word	0x400e0c00
  405cf4:	04000100 	.word	0x04000100
  405cf8:	04000200 	.word	0x04000200
  405cfc:	04000300 	.word	0x04000300

00405d00 <_sbrk>:
  405d00:	4b0a      	ldr	r3, [pc, #40]	; (405d2c <_sbrk+0x2c>)
  405d02:	681b      	ldr	r3, [r3, #0]
  405d04:	b153      	cbz	r3, 405d1c <_sbrk+0x1c>
  405d06:	4b09      	ldr	r3, [pc, #36]	; (405d2c <_sbrk+0x2c>)
  405d08:	681b      	ldr	r3, [r3, #0]
  405d0a:	181a      	adds	r2, r3, r0
  405d0c:	4908      	ldr	r1, [pc, #32]	; (405d30 <_sbrk+0x30>)
  405d0e:	4291      	cmp	r1, r2
  405d10:	db08      	blt.n	405d24 <_sbrk+0x24>
  405d12:	4610      	mov	r0, r2
  405d14:	4a05      	ldr	r2, [pc, #20]	; (405d2c <_sbrk+0x2c>)
  405d16:	6010      	str	r0, [r2, #0]
  405d18:	4618      	mov	r0, r3
  405d1a:	4770      	bx	lr
  405d1c:	4a05      	ldr	r2, [pc, #20]	; (405d34 <_sbrk+0x34>)
  405d1e:	4b03      	ldr	r3, [pc, #12]	; (405d2c <_sbrk+0x2c>)
  405d20:	601a      	str	r2, [r3, #0]
  405d22:	e7f0      	b.n	405d06 <_sbrk+0x6>
  405d24:	f04f 30ff 	mov.w	r0, #4294967295
  405d28:	4770      	bx	lr
  405d2a:	bf00      	nop
  405d2c:	2040c3e4 	.word	0x2040c3e4
  405d30:	2045fffc 	.word	0x2045fffc
  405d34:	2040f1d8 	.word	0x2040f1d8

00405d38 <_close>:
  405d38:	f04f 30ff 	mov.w	r0, #4294967295
  405d3c:	4770      	bx	lr

00405d3e <_fstat>:
  405d3e:	f44f 5300 	mov.w	r3, #8192	; 0x2000
  405d42:	604b      	str	r3, [r1, #4]
  405d44:	2000      	movs	r0, #0
  405d46:	4770      	bx	lr

00405d48 <_isatty>:
  405d48:	2001      	movs	r0, #1
  405d4a:	4770      	bx	lr

00405d4c <_lseek>:
  405d4c:	2000      	movs	r0, #0
  405d4e:	4770      	bx	lr

00405d50 <task_data>:
		}
		vTaskDelay(200);
	}
}

void task_data(void){
  405d50:	e7fe      	b.n	405d50 <task_data>
	...

00405d54 <resolve_cb>:
 {
  405d54:	b510      	push	{r4, lr}
  405d56:	b082      	sub	sp, #8
	 gu32HostIp = hostIp;
  405d58:	4b07      	ldr	r3, [pc, #28]	; (405d78 <resolve_cb+0x24>)
  405d5a:	6019      	str	r1, [r3, #0]
	 (int)IPV4_BYTE(hostIp, 2), (int)IPV4_BYTE(hostIp, 3));
  405d5c:	0e0b      	lsrs	r3, r1, #24
	 printf("resolve_cb: %s IP address is %d.%d.%d.%d\r\n\r\n", hostName,
  405d5e:	9301      	str	r3, [sp, #4]
  405d60:	f3c1 4307 	ubfx	r3, r1, #16, #8
  405d64:	9300      	str	r3, [sp, #0]
  405d66:	f3c1 2307 	ubfx	r3, r1, #8, #8
  405d6a:	b2ca      	uxtb	r2, r1
  405d6c:	4601      	mov	r1, r0
  405d6e:	4803      	ldr	r0, [pc, #12]	; (405d7c <resolve_cb+0x28>)
  405d70:	4c03      	ldr	r4, [pc, #12]	; (405d80 <resolve_cb+0x2c>)
  405d72:	47a0      	blx	r4
 }
  405d74:	b002      	add	sp, #8
  405d76:	bd10      	pop	{r4, pc}
  405d78:	2040cd50 	.word	0x2040cd50
  405d7c:	0040dfe4 	.word	0x0040dfe4
  405d80:	004075b5 	.word	0x004075b5

00405d84 <EchoCallback>:
void EchoCallback(void){
  405d84:	b510      	push	{r4, lr}
  405d86:	b082      	sub	sp, #8
	if(pio_get(ECHO_PIO_A, PIO_INPUT, ECHO_IDX_MASK_A)){
  405d88:	f44f 5200 	mov.w	r2, #8192	; 0x2000
  405d8c:	f04f 5120 	mov.w	r1, #671088640	; 0x28000000
  405d90:	480f      	ldr	r0, [pc, #60]	; (405dd0 <EchoCallback+0x4c>)
  405d92:	4b10      	ldr	r3, [pc, #64]	; (405dd4 <EchoCallback+0x50>)
  405d94:	4798      	blx	r3
  405d96:	b9b0      	cbnz	r0, 405dc6 <EchoCallback+0x42>
		float ts = ((float) tc_read_cv(TIMER_A, TIMER_CHANNEL_A))/32000.0;
  405d98:	2101      	movs	r1, #1
  405d9a:	480f      	ldr	r0, [pc, #60]	; (405dd8 <EchoCallback+0x54>)
  405d9c:	4b0f      	ldr	r3, [pc, #60]	; (405ddc <EchoCallback+0x58>)
  405d9e:	4798      	blx	r3
  405da0:	ee07 0a90 	vmov	s15, r0
  405da4:	eef8 6a67 	vcvt.f32.u32	s13, s15
  405da8:	ed9f 7a0d 	vldr	s14, [pc, #52]	; 405de0 <EchoCallback+0x5c>
  405dac:	eec6 7a87 	vdiv.f32	s15, s13, s14
  405db0:	a902      	add	r1, sp, #8
  405db2:	ed61 7a01 	vstmdb	r1!, {s15}
		xQueueSendToBackFromISR( hc04_A_EchoQueue, &ts, NULL );
  405db6:	2300      	movs	r3, #0
  405db8:	461a      	mov	r2, r3
  405dba:	480a      	ldr	r0, [pc, #40]	; (405de4 <EchoCallback+0x60>)
  405dbc:	6800      	ldr	r0, [r0, #0]
  405dbe:	4c0a      	ldr	r4, [pc, #40]	; (405de8 <EchoCallback+0x64>)
  405dc0:	47a0      	blx	r4
}
  405dc2:	b002      	add	sp, #8
  405dc4:	bd10      	pop	{r4, pc}
		tc_start(TIMER_A, TIMER_CHANNEL_A);
  405dc6:	2101      	movs	r1, #1
  405dc8:	4803      	ldr	r0, [pc, #12]	; (405dd8 <EchoCallback+0x54>)
  405dca:	4b08      	ldr	r3, [pc, #32]	; (405dec <EchoCallback+0x68>)
  405dcc:	4798      	blx	r3
  405dce:	e7f8      	b.n	405dc2 <EchoCallback+0x3e>
  405dd0:	400e1200 	.word	0x400e1200
  405dd4:	004051c3 	.word	0x004051c3
  405dd8:	4000c000 	.word	0x4000c000
  405ddc:	00405961 	.word	0x00405961
  405de0:	46fa0000 	.word	0x46fa0000
  405de4:	2040cf8c 	.word	0x2040cf8c
  405de8:	00400fe5 	.word	0x00400fe5
  405dec:	00405959 	.word	0x00405959

00405df0 <AFEC_callback>:
{
  405df0:	b510      	push	{r4, lr}
  405df2:	b082      	sub	sp, #8
static inline uint32_t afec_channel_get_value(Afec *const afec,
		enum afec_channel_num afec_ch)
{
	afec_ch_sanity_check(afec, afec_ch);

	afec->AFEC_CSELR = afec_ch;
  405df4:	4b06      	ldr	r3, [pc, #24]	; (405e10 <AFEC_callback+0x20>)
  405df6:	2200      	movs	r2, #0
  405df8:	665a      	str	r2, [r3, #100]	; 0x64
	return afec->AFEC_CDR;
  405dfa:	6e9b      	ldr	r3, [r3, #104]	; 0x68
	ph_value = afec_channel_get_value(AFEC0, AFEC_CHANNEL);
  405dfc:	a902      	add	r1, sp, #8
  405dfe:	f841 3d04 	str.w	r3, [r1, #-4]!
	xQueueSendFromISR( xQueueAfec, &ph_value, 0);
  405e02:	4613      	mov	r3, r2
  405e04:	4803      	ldr	r0, [pc, #12]	; (405e14 <AFEC_callback+0x24>)
  405e06:	6800      	ldr	r0, [r0, #0]
  405e08:	4c03      	ldr	r4, [pc, #12]	; (405e18 <AFEC_callback+0x28>)
  405e0a:	47a0      	blx	r4
}
  405e0c:	b002      	add	sp, #8
  405e0e:	bd10      	pop	{r4, pc}
  405e10:	4003c000 	.word	0x4003c000
  405e14:	2040cf98 	.word	0x2040cf98
  405e18:	00400fe5 	.word	0x00400fe5

00405e1c <WaterCallback>:
void WaterCallback(void){
  405e1c:	b508      	push	{r3, lr}
	spin_counter++;
  405e1e:	4a05      	ldr	r2, [pc, #20]	; (405e34 <WaterCallback+0x18>)
  405e20:	6813      	ldr	r3, [r2, #0]
  405e22:	3301      	adds	r3, #1
  405e24:	6013      	str	r3, [r2, #0]
	xSemaphoreGiveFromISR(xSemaphoreWater, NULL);
  405e26:	2100      	movs	r1, #0
  405e28:	4b03      	ldr	r3, [pc, #12]	; (405e38 <WaterCallback+0x1c>)
  405e2a:	6818      	ldr	r0, [r3, #0]
  405e2c:	4b03      	ldr	r3, [pc, #12]	; (405e3c <WaterCallback+0x20>)
  405e2e:	4798      	blx	r3
  405e30:	bd08      	pop	{r3, pc}
  405e32:	bf00      	nop
  405e34:	2040cd54 	.word	0x2040cd54
  405e38:	2040cf94 	.word	0x2040cf94
  405e3c:	004010e5 	.word	0x004010e5

00405e40 <usart_serial_putchar>:
 *   \retval 1  The character was written.
 *   \retval 0  The function timed out before the USART transmitter became
 * ready to send.
 */
static inline int usart_serial_putchar(usart_if p_usart, const uint8_t c)
{
  405e40:	b570      	push	{r4, r5, r6, lr}
  405e42:	460c      	mov	r4, r1
		while (uart_write((Uart*)p_usart, c)!=0);
		return 1;
	}
#else
# ifdef UART0
	if (UART0 == (Uart*)p_usart) {
  405e44:	4b2a      	ldr	r3, [pc, #168]	; (405ef0 <usart_serial_putchar+0xb0>)
  405e46:	4298      	cmp	r0, r3
  405e48:	d013      	beq.n	405e72 <usart_serial_putchar+0x32>
		while (uart_write((Uart*)p_usart, c)!=0);
		return 1;
	}
# endif
# ifdef UART1
	if (UART1 == (Uart*)p_usart) {
  405e4a:	4b2a      	ldr	r3, [pc, #168]	; (405ef4 <usart_serial_putchar+0xb4>)
  405e4c:	4298      	cmp	r0, r3
  405e4e:	d019      	beq.n	405e84 <usart_serial_putchar+0x44>
		while (uart_write((Uart*)p_usart, c)!=0);
		return 1;
	}
# endif
# ifdef UART2
	if (UART2 == (Uart*)p_usart) {
  405e50:	4b29      	ldr	r3, [pc, #164]	; (405ef8 <usart_serial_putchar+0xb8>)
  405e52:	4298      	cmp	r0, r3
  405e54:	d01f      	beq.n	405e96 <usart_serial_putchar+0x56>
		while (uart_write((Uart*)p_usart, c)!=0);
		return 1;
	}
# endif
# ifdef UART3
	if (UART3 == (Uart*)p_usart) {
  405e56:	4b29      	ldr	r3, [pc, #164]	; (405efc <usart_serial_putchar+0xbc>)
  405e58:	4298      	cmp	r0, r3
  405e5a:	d025      	beq.n	405ea8 <usart_serial_putchar+0x68>
		while (usart_write(p_usart, c)!=0);
		return 1;
	}
#else
# ifdef USART0
	if (USART0 == p_usart) {
  405e5c:	4b28      	ldr	r3, [pc, #160]	; (405f00 <usart_serial_putchar+0xc0>)
  405e5e:	4298      	cmp	r0, r3
  405e60:	d02b      	beq.n	405eba <usart_serial_putchar+0x7a>
		while (usart_write(p_usart, c)!=0);
		return 1;
	}
# endif
# ifdef USART1
	if (USART1 == p_usart) {
  405e62:	4b28      	ldr	r3, [pc, #160]	; (405f04 <usart_serial_putchar+0xc4>)
  405e64:	4298      	cmp	r0, r3
  405e66:	d031      	beq.n	405ecc <usart_serial_putchar+0x8c>
		while (usart_write(p_usart, c)!=0);
		return 1;
	}
# endif
# ifdef USART2
	if (USART2 == p_usart) {
  405e68:	4b27      	ldr	r3, [pc, #156]	; (405f08 <usart_serial_putchar+0xc8>)
  405e6a:	4298      	cmp	r0, r3
  405e6c:	d037      	beq.n	405ede <usart_serial_putchar+0x9e>
		return 1;
	}
# endif
#endif /* ifdef USART */

	return 0;
  405e6e:	2000      	movs	r0, #0
}
  405e70:	bd70      	pop	{r4, r5, r6, pc}
		while (uart_write((Uart*)p_usart, c)!=0);
  405e72:	461e      	mov	r6, r3
  405e74:	4d25      	ldr	r5, [pc, #148]	; (405f0c <usart_serial_putchar+0xcc>)
  405e76:	4621      	mov	r1, r4
  405e78:	4630      	mov	r0, r6
  405e7a:	47a8      	blx	r5
  405e7c:	2800      	cmp	r0, #0
  405e7e:	d1fa      	bne.n	405e76 <usart_serial_putchar+0x36>
		return 1;
  405e80:	2001      	movs	r0, #1
  405e82:	bd70      	pop	{r4, r5, r6, pc}
		while (uart_write((Uart*)p_usart, c)!=0);
  405e84:	461e      	mov	r6, r3
  405e86:	4d21      	ldr	r5, [pc, #132]	; (405f0c <usart_serial_putchar+0xcc>)
  405e88:	4621      	mov	r1, r4
  405e8a:	4630      	mov	r0, r6
  405e8c:	47a8      	blx	r5
  405e8e:	2800      	cmp	r0, #0
  405e90:	d1fa      	bne.n	405e88 <usart_serial_putchar+0x48>
		return 1;
  405e92:	2001      	movs	r0, #1
  405e94:	bd70      	pop	{r4, r5, r6, pc}
		while (uart_write((Uart*)p_usart, c)!=0);
  405e96:	461e      	mov	r6, r3
  405e98:	4d1c      	ldr	r5, [pc, #112]	; (405f0c <usart_serial_putchar+0xcc>)
  405e9a:	4621      	mov	r1, r4
  405e9c:	4630      	mov	r0, r6
  405e9e:	47a8      	blx	r5
  405ea0:	2800      	cmp	r0, #0
  405ea2:	d1fa      	bne.n	405e9a <usart_serial_putchar+0x5a>
		return 1;
  405ea4:	2001      	movs	r0, #1
  405ea6:	bd70      	pop	{r4, r5, r6, pc}
		while (uart_write((Uart*)p_usart, c)!=0);
  405ea8:	461e      	mov	r6, r3
  405eaa:	4d18      	ldr	r5, [pc, #96]	; (405f0c <usart_serial_putchar+0xcc>)
  405eac:	4621      	mov	r1, r4
  405eae:	4630      	mov	r0, r6
  405eb0:	47a8      	blx	r5
  405eb2:	2800      	cmp	r0, #0
  405eb4:	d1fa      	bne.n	405eac <usart_serial_putchar+0x6c>
		return 1;
  405eb6:	2001      	movs	r0, #1
  405eb8:	bd70      	pop	{r4, r5, r6, pc}
		while (usart_write(p_usart, c)!=0);
  405eba:	461e      	mov	r6, r3
  405ebc:	4d14      	ldr	r5, [pc, #80]	; (405f10 <usart_serial_putchar+0xd0>)
  405ebe:	4621      	mov	r1, r4
  405ec0:	4630      	mov	r0, r6
  405ec2:	47a8      	blx	r5
  405ec4:	2800      	cmp	r0, #0
  405ec6:	d1fa      	bne.n	405ebe <usart_serial_putchar+0x7e>
		return 1;
  405ec8:	2001      	movs	r0, #1
  405eca:	bd70      	pop	{r4, r5, r6, pc}
		while (usart_write(p_usart, c)!=0);
  405ecc:	461e      	mov	r6, r3
  405ece:	4d10      	ldr	r5, [pc, #64]	; (405f10 <usart_serial_putchar+0xd0>)
  405ed0:	4621      	mov	r1, r4
  405ed2:	4630      	mov	r0, r6
  405ed4:	47a8      	blx	r5
  405ed6:	2800      	cmp	r0, #0
  405ed8:	d1fa      	bne.n	405ed0 <usart_serial_putchar+0x90>
		return 1;
  405eda:	2001      	movs	r0, #1
  405edc:	bd70      	pop	{r4, r5, r6, pc}
		while (usart_write(p_usart, c)!=0);
  405ede:	461e      	mov	r6, r3
  405ee0:	4d0b      	ldr	r5, [pc, #44]	; (405f10 <usart_serial_putchar+0xd0>)
  405ee2:	4621      	mov	r1, r4
  405ee4:	4630      	mov	r0, r6
  405ee6:	47a8      	blx	r5
  405ee8:	2800      	cmp	r0, #0
  405eea:	d1fa      	bne.n	405ee2 <usart_serial_putchar+0xa2>
		return 1;
  405eec:	2001      	movs	r0, #1
  405eee:	bd70      	pop	{r4, r5, r6, pc}
  405ef0:	400e0800 	.word	0x400e0800
  405ef4:	400e0a00 	.word	0x400e0a00
  405ef8:	400e1a00 	.word	0x400e1a00
  405efc:	400e1c00 	.word	0x400e1c00
  405f00:	40024000 	.word	0x40024000
  405f04:	40028000 	.word	0x40028000
  405f08:	4002c000 	.word	0x4002c000
  405f0c:	00405981 	.word	0x00405981
  405f10:	00405a89 	.word	0x00405a89

00405f14 <task_timer2>:
static void task_timer2(void *pvParameters){
  405f14:	b508      	push	{r3, lr}
	xSemaphoreCounter2 = xSemaphoreCreateBinary();
  405f16:	2203      	movs	r2, #3
  405f18:	2100      	movs	r1, #0
  405f1a:	2001      	movs	r0, #1
  405f1c:	4b07      	ldr	r3, [pc, #28]	; (405f3c <task_timer2+0x28>)
  405f1e:	4798      	blx	r3
  405f20:	4b07      	ldr	r3, [pc, #28]	; (405f40 <task_timer2+0x2c>)
  405f22:	6018      	str	r0, [r3, #0]
		vTaskDelay(1000 / portTICK_PERIOD_MS); //timer sonar
  405f24:	4e07      	ldr	r6, [pc, #28]	; (405f44 <task_timer2+0x30>)
		xSemaphoreGive(xSemaphoreCounter2);
  405f26:	461d      	mov	r5, r3
  405f28:	4c07      	ldr	r4, [pc, #28]	; (405f48 <task_timer2+0x34>)
		vTaskDelay(1000 / portTICK_PERIOD_MS); //timer sonar
  405f2a:	f44f 707a 	mov.w	r0, #1000	; 0x3e8
  405f2e:	47b0      	blx	r6
		xSemaphoreGive(xSemaphoreCounter2);
  405f30:	2300      	movs	r3, #0
  405f32:	461a      	mov	r2, r3
  405f34:	4619      	mov	r1, r3
  405f36:	6828      	ldr	r0, [r5, #0]
  405f38:	47a0      	blx	r4
  405f3a:	e7f6      	b.n	405f2a <task_timer2+0x16>
  405f3c:	00400d85 	.word	0x00400d85
  405f40:	2040cf74 	.word	0x2040cf74
  405f44:	004019ed 	.word	0x004019ed
  405f48:	00400e01 	.word	0x00400e01

00405f4c <task_timer>:
static void task_timer(void *pvParameters){
  405f4c:	b508      	push	{r3, lr}
	xSemaphoreCounter = xSemaphoreCreateBinary();
  405f4e:	2203      	movs	r2, #3
  405f50:	2100      	movs	r1, #0
  405f52:	2001      	movs	r0, #1
  405f54:	4b07      	ldr	r3, [pc, #28]	; (405f74 <task_timer+0x28>)
  405f56:	4798      	blx	r3
  405f58:	4b07      	ldr	r3, [pc, #28]	; (405f78 <task_timer+0x2c>)
  405f5a:	6018      	str	r0, [r3, #0]
		vTaskDelay(500 / portTICK_PERIOD_MS);
  405f5c:	4e07      	ldr	r6, [pc, #28]	; (405f7c <task_timer+0x30>)
		xSemaphoreGive(xSemaphoreCounter);
  405f5e:	461d      	mov	r5, r3
  405f60:	4c07      	ldr	r4, [pc, #28]	; (405f80 <task_timer+0x34>)
		vTaskDelay(500 / portTICK_PERIOD_MS);
  405f62:	f44f 70fa 	mov.w	r0, #500	; 0x1f4
  405f66:	47b0      	blx	r6
		xSemaphoreGive(xSemaphoreCounter);
  405f68:	2300      	movs	r3, #0
  405f6a:	461a      	mov	r2, r3
  405f6c:	4619      	mov	r1, r3
  405f6e:	6828      	ldr	r0, [r5, #0]
  405f70:	47a0      	blx	r4
  405f72:	e7f6      	b.n	405f62 <task_timer+0x16>
  405f74:	00400d85 	.word	0x00400d85
  405f78:	2040cf6c 	.word	0x2040cf6c
  405f7c:	004019ed 	.word	0x004019ed
  405f80:	00400e01 	.word	0x00400e01

00405f84 <socket_cb>:
 {
  405f84:	e92d 43f0 	stmdb	sp!, {r4, r5, r6, r7, r8, r9, lr}
  405f88:	b0cb      	sub	sp, #300	; 0x12c
	 if (sock == tcp_client_socket) {
  405f8a:	4b5b      	ldr	r3, [pc, #364]	; (4060f8 <socket_cb+0x174>)
  405f8c:	f993 4000 	ldrsb.w	r4, [r3]
  405f90:	4284      	cmp	r4, r0
  405f92:	d002      	beq.n	405f9a <socket_cb+0x16>
 }
  405f94:	b04b      	add	sp, #300	; 0x12c
  405f96:	e8bd 83f0 	ldmia.w	sp!, {r4, r5, r6, r7, r8, r9, pc}
  405f9a:	4615      	mov	r5, r2
		 switch (u8Msg) {
  405f9c:	2905      	cmp	r1, #5
  405f9e:	d00e      	beq.n	405fbe <socket_cb+0x3a>
  405fa0:	2906      	cmp	r1, #6
  405fa2:	d1f7      	bne.n	405f94 <socket_cb+0x10>
				 if (pstrRecv && pstrRecv->s16BufferSize > 0) {
  405fa4:	b122      	cbz	r2, 405fb0 <socket_cb+0x2c>
  405fa6:	f9b2 3004 	ldrsh.w	r3, [r2, #4]
  405faa:	2b00      	cmp	r3, #0
  405fac:	f300 8095 	bgt.w	4060da <socket_cb+0x156>
					 close(tcp_client_socket);
  405fb0:	4620      	mov	r0, r4
  405fb2:	4b52      	ldr	r3, [pc, #328]	; (4060fc <socket_cb+0x178>)
  405fb4:	4798      	blx	r3
					 tcp_client_socket = -1;
  405fb6:	22ff      	movs	r2, #255	; 0xff
  405fb8:	4b4f      	ldr	r3, [pc, #316]	; (4060f8 <socket_cb+0x174>)
  405fba:	701a      	strb	r2, [r3, #0]
 }
  405fbc:	e7ea      	b.n	405f94 <socket_cb+0x10>
				 if (gbTcpConnection) {
  405fbe:	4b50      	ldr	r3, [pc, #320]	; (406100 <socket_cb+0x17c>)
  405fc0:	781b      	ldrb	r3, [r3, #0]
  405fc2:	2b00      	cmp	r3, #0
  405fc4:	d0e6      	beq.n	405f94 <socket_cb+0x10>
					 memset(gau8ReceivedBuffer, 0, sizeof(gau8ReceivedBuffer));
  405fc6:	4f4f      	ldr	r7, [pc, #316]	; (406104 <socket_cb+0x180>)
  405fc8:	f44f 6216 	mov.w	r2, #2400	; 0x960
  405fcc:	2100      	movs	r1, #0
  405fce:	4638      	mov	r0, r7
  405fd0:	4b4d      	ldr	r3, [pc, #308]	; (406108 <socket_cb+0x184>)
  405fd2:	4798      	blx	r3
					 sprintf(buffer, "{\"%s\":%d,\"%s\":%d,\"%s\":%d ,\"%s\":\"%s\"}", "dispositivo" , dispositivo, "id", id, "value", value, "timestamp", timestamp);
  405fd4:	4b4d      	ldr	r3, [pc, #308]	; (40610c <socket_cb+0x188>)
  405fd6:	681b      	ldr	r3, [r3, #0]
  405fd8:	ae06      	add	r6, sp, #24
  405fda:	f8df 9184 	ldr.w	r9, [pc, #388]	; 406160 <socket_cb+0x1dc>
  405fde:	f8cd 9014 	str.w	r9, [sp, #20]
  405fe2:	4a4b      	ldr	r2, [pc, #300]	; (406110 <socket_cb+0x18c>)
  405fe4:	9204      	str	r2, [sp, #16]
  405fe6:	4a4b      	ldr	r2, [pc, #300]	; (406114 <socket_cb+0x190>)
  405fe8:	6812      	ldr	r2, [r2, #0]
  405fea:	9203      	str	r2, [sp, #12]
  405fec:	4a4a      	ldr	r2, [pc, #296]	; (406118 <socket_cb+0x194>)
  405fee:	9202      	str	r2, [sp, #8]
  405ff0:	4a4a      	ldr	r2, [pc, #296]	; (40611c <socket_cb+0x198>)
  405ff2:	6812      	ldr	r2, [r2, #0]
  405ff4:	9201      	str	r2, [sp, #4]
  405ff6:	4a4a      	ldr	r2, [pc, #296]	; (406120 <socket_cb+0x19c>)
  405ff8:	9200      	str	r2, [sp, #0]
  405ffa:	4a4a      	ldr	r2, [pc, #296]	; (406124 <socket_cb+0x1a0>)
  405ffc:	494a      	ldr	r1, [pc, #296]	; (406128 <socket_cb+0x1a4>)
  405ffe:	4630      	mov	r0, r6
  406000:	4c4a      	ldr	r4, [pc, #296]	; (40612c <socket_cb+0x1a8>)
  406002:	47a0      	blx	r4
					 sprintf((char *)gau8ReceivedBuffer, "%sContent-Length: %d\n%s%s", "PUT /1 HTTP/1.0\n", strlen(buffer),
  406004:	4630      	mov	r0, r6
  406006:	4b4a      	ldr	r3, [pc, #296]	; (406130 <socket_cb+0x1ac>)
  406008:	4798      	blx	r3
  40600a:	9601      	str	r6, [sp, #4]
  40600c:	4b49      	ldr	r3, [pc, #292]	; (406134 <socket_cb+0x1b0>)
  40600e:	9300      	str	r3, [sp, #0]
  406010:	4603      	mov	r3, r0
  406012:	4a49      	ldr	r2, [pc, #292]	; (406138 <socket_cb+0x1b4>)
  406014:	4949      	ldr	r1, [pc, #292]	; (40613c <socket_cb+0x1b8>)
  406016:	4638      	mov	r0, r7
  406018:	47a0      	blx	r4
					 printf("\n\n");
  40601a:	4f49      	ldr	r7, [pc, #292]	; (406140 <socket_cb+0x1bc>)
  40601c:	4638      	mov	r0, r7
  40601e:	4c49      	ldr	r4, [pc, #292]	; (406144 <socket_cb+0x1c0>)
  406020:	47a0      	blx	r4
					 printf("\n----------------------------------------------\n");
  406022:	f8df 8140 	ldr.w	r8, [pc, #320]	; 406164 <socket_cb+0x1e0>
  406026:	4640      	mov	r0, r8
  406028:	47a0      	blx	r4
					 printf(buffer);
  40602a:	4630      	mov	r0, r6
  40602c:	47a0      	blx	r4
					 printf("\n%s", timestamp);
  40602e:	4649      	mov	r1, r9
  406030:	4845      	ldr	r0, [pc, #276]	; (406148 <socket_cb+0x1c4>)
  406032:	47a0      	blx	r4
					 printf("\n----------------------------------------------\n");
  406034:	4640      	mov	r0, r8
  406036:	47a0      	blx	r4
					 printf("\n\n");
  406038:	4638      	mov	r0, r7
  40603a:	47a0      	blx	r4
					 if (pstrConnect && pstrConnect->s8Error >= SOCK_ERR_NO_ERROR) {
  40603c:	2d00      	cmp	r5, #0
  40603e:	d03e      	beq.n	4060be <socket_cb+0x13a>
  406040:	f995 3001 	ldrsb.w	r3, [r5, #1]
  406044:	2b00      	cmp	r3, #0
  406046:	db3a      	blt.n	4060be <socket_cb+0x13a>
						 send(tcp_client_socket, gau8ReceivedBuffer, strlen((char *)gau8ReceivedBuffer), 0);
  406048:	4c2e      	ldr	r4, [pc, #184]	; (406104 <socket_cb+0x180>)
  40604a:	4620      	mov	r0, r4
  40604c:	4b38      	ldr	r3, [pc, #224]	; (406130 <socket_cb+0x1ac>)
  40604e:	4798      	blx	r3
  406050:	4d29      	ldr	r5, [pc, #164]	; (4060f8 <socket_cb+0x174>)
  406052:	2300      	movs	r3, #0
  406054:	b282      	uxth	r2, r0
  406056:	4621      	mov	r1, r4
  406058:	f995 0000 	ldrsb.w	r0, [r5]
  40605c:	4e3b      	ldr	r6, [pc, #236]	; (40614c <socket_cb+0x1c8>)
  40605e:	47b0      	blx	r6
						 memset(gau8ReceivedBuffer, 0, MAIN_WIFI_M2M_BUFFER_SIZE);
  406060:	f44f 6616 	mov.w	r6, #2400	; 0x960
  406064:	4632      	mov	r2, r6
  406066:	2100      	movs	r1, #0
  406068:	4620      	mov	r0, r4
  40606a:	4b27      	ldr	r3, [pc, #156]	; (406108 <socket_cb+0x184>)
  40606c:	4798      	blx	r3
						 recv(tcp_client_socket, &gau8ReceivedBuffer[0], MAIN_WIFI_M2M_BUFFER_SIZE, 0);
  40606e:	2300      	movs	r3, #0
  406070:	4632      	mov	r2, r6
  406072:	4621      	mov	r1, r4
  406074:	f995 0000 	ldrsb.w	r0, [r5]
  406078:	4c35      	ldr	r4, [pc, #212]	; (406150 <socket_cb+0x1cc>)
  40607a:	47a0      	blx	r4
__always_inline static void arch_ioport_toggle_pin_level(ioport_pin_t pin)
{
	Pio *port = arch_ioport_pin_to_base(pin);
	ioport_port_mask_t mask = arch_ioport_pin_to_mask(pin);

	if (port->PIO_PDSR & arch_ioport_pin_to_mask(pin)) {
  40607c:	4b35      	ldr	r3, [pc, #212]	; (406154 <socket_cb+0x1d0>)
  40607e:	6bdb      	ldr	r3, [r3, #60]	; 0x3c
  406080:	f413 7f80 	tst.w	r3, #256	; 0x100
  406084:	d011      	beq.n	4060aa <socket_cb+0x126>
		port->PIO_CODR = mask;
  406086:	f44f 7280 	mov.w	r2, #256	; 0x100
  40608a:	4b32      	ldr	r3, [pc, #200]	; (406154 <socket_cb+0x1d0>)
  40608c:	635a      	str	r2, [r3, #52]	; 0x34
						vTaskDelay(1000);
  40608e:	f44f 707a 	mov.w	r0, #1000	; 0x3e8
  406092:	4b31      	ldr	r3, [pc, #196]	; (406158 <socket_cb+0x1d4>)
  406094:	4798      	blx	r3
	if (port->PIO_PDSR & arch_ioport_pin_to_mask(pin)) {
  406096:	4b2f      	ldr	r3, [pc, #188]	; (406154 <socket_cb+0x1d0>)
  406098:	6bdb      	ldr	r3, [r3, #60]	; 0x3c
  40609a:	f413 7f80 	tst.w	r3, #256	; 0x100
  40609e:	d009      	beq.n	4060b4 <socket_cb+0x130>
		port->PIO_CODR = mask;
  4060a0:	f44f 7280 	mov.w	r2, #256	; 0x100
  4060a4:	4b2b      	ldr	r3, [pc, #172]	; (406154 <socket_cb+0x1d0>)
  4060a6:	635a      	str	r2, [r3, #52]	; 0x34
  4060a8:	e774      	b.n	405f94 <socket_cb+0x10>
	} else {
		port->PIO_SODR = mask;
  4060aa:	f44f 7280 	mov.w	r2, #256	; 0x100
  4060ae:	4b29      	ldr	r3, [pc, #164]	; (406154 <socket_cb+0x1d0>)
  4060b0:	631a      	str	r2, [r3, #48]	; 0x30
  4060b2:	e7ec      	b.n	40608e <socket_cb+0x10a>
  4060b4:	f44f 7280 	mov.w	r2, #256	; 0x100
  4060b8:	4b26      	ldr	r3, [pc, #152]	; (406154 <socket_cb+0x1d0>)
  4060ba:	631a      	str	r2, [r3, #48]	; 0x30
  4060bc:	e76a      	b.n	405f94 <socket_cb+0x10>
						 printf("\nsocket_cb: connect error!\r\n");
  4060be:	4827      	ldr	r0, [pc, #156]	; (40615c <socket_cb+0x1d8>)
  4060c0:	4b20      	ldr	r3, [pc, #128]	; (406144 <socket_cb+0x1c0>)
  4060c2:	4798      	blx	r3
						 gbTcpConnection = false;
  4060c4:	2200      	movs	r2, #0
  4060c6:	4b0e      	ldr	r3, [pc, #56]	; (406100 <socket_cb+0x17c>)
  4060c8:	701a      	strb	r2, [r3, #0]
						 close(tcp_client_socket);
  4060ca:	4c0b      	ldr	r4, [pc, #44]	; (4060f8 <socket_cb+0x174>)
  4060cc:	f994 0000 	ldrsb.w	r0, [r4]
  4060d0:	4b0a      	ldr	r3, [pc, #40]	; (4060fc <socket_cb+0x178>)
  4060d2:	4798      	blx	r3
						 tcp_client_socket = -1;
  4060d4:	23ff      	movs	r3, #255	; 0xff
  4060d6:	7023      	strb	r3, [r4, #0]
  4060d8:	e75c      	b.n	405f94 <socket_cb+0x10>
					 memset(gau8ReceivedBuffer, 0, sizeof(gau8ReceivedBuffer));
  4060da:	4d0a      	ldr	r5, [pc, #40]	; (406104 <socket_cb+0x180>)
  4060dc:	f44f 6616 	mov.w	r6, #2400	; 0x960
  4060e0:	4632      	mov	r2, r6
  4060e2:	2100      	movs	r1, #0
  4060e4:	4628      	mov	r0, r5
  4060e6:	4b08      	ldr	r3, [pc, #32]	; (406108 <socket_cb+0x184>)
  4060e8:	4798      	blx	r3
					 recv(tcp_client_socket, &gau8ReceivedBuffer[0], MAIN_WIFI_M2M_BUFFER_SIZE, 0);
  4060ea:	2300      	movs	r3, #0
  4060ec:	4632      	mov	r2, r6
  4060ee:	4629      	mov	r1, r5
  4060f0:	4620      	mov	r0, r4
  4060f2:	4c17      	ldr	r4, [pc, #92]	; (406150 <socket_cb+0x1cc>)
  4060f4:	47a0      	blx	r4
  4060f6:	e74d      	b.n	405f94 <socket_cb+0x10>
  4060f8:	20400024 	.word	0x20400024
  4060fc:	00404db9 	.word	0x00404db9
  406100:	2040cd4c 	.word	0x2040cd4c
  406104:	2040c3ec 	.word	0x2040c3ec
  406108:	00407711 	.word	0x00407711
  40610c:	20400020 	.word	0x20400020
  406110:	0040e048 	.word	0x0040e048
  406114:	2040cfac 	.word	0x2040cfac
  406118:	0040e054 	.word	0x0040e054
  40611c:	2040cf84 	.word	0x2040cf84
  406120:	0040e05c 	.word	0x0040e05c
  406124:	0040e014 	.word	0x0040e014
  406128:	0040e020 	.word	0x0040e020
  40612c:	0040794d 	.word	0x0040794d
  406130:	00407a81 	.word	0x00407a81
  406134:	0040e090 	.word	0x0040e090
  406138:	0040e060 	.word	0x0040e060
  40613c:	0040e074 	.word	0x0040e074
  406140:	0040e0b4 	.word	0x0040e0b4
  406144:	004075b5 	.word	0x004075b5
  406148:	0040e0ec 	.word	0x0040e0ec
  40614c:	00404c7d 	.word	0x00404c7d
  406150:	00404d19 	.word	0x00404d19
  406154:	400e1200 	.word	0x400e1200
  406158:	004019ed 	.word	0x004019ed
  40615c:	0040e0f0 	.word	0x0040e0f0
  406160:	2040cf2c 	.word	0x2040cf2c
  406164:	0040e0b8 	.word	0x0040e0b8

00406168 <wifi_cb>:
 {
  406168:	b530      	push	{r4, r5, lr}
  40616a:	b083      	sub	sp, #12
  40616c:	460c      	mov	r4, r1
	 switch (u8MsgType) {
  40616e:	282c      	cmp	r0, #44	; 0x2c
  406170:	d005      	beq.n	40617e <wifi_cb+0x16>
  406172:	2832      	cmp	r0, #50	; 0x32
  406174:	d015      	beq.n	4061a2 <wifi_cb+0x3a>
  406176:	281b      	cmp	r0, #27
  406178:	d01f      	beq.n	4061ba <wifi_cb+0x52>
 }
  40617a:	b003      	add	sp, #12
  40617c:	bd30      	pop	{r4, r5, pc}
			 if (pstrWifiState->u8CurrState == M2M_WIFI_CONNECTED) {
  40617e:	780b      	ldrb	r3, [r1, #0]
  406180:	2b01      	cmp	r3, #1
  406182:	d008      	beq.n	406196 <wifi_cb+0x2e>
				 } else if (pstrWifiState->u8CurrState == M2M_WIFI_DISCONNECTED) {
  406184:	2b00      	cmp	r3, #0
  406186:	d1f8      	bne.n	40617a <wifi_cb+0x12>
				 printf("wifi_cb: M2M_WIFI_DISCONNECTED\r\n");
  406188:	4821      	ldr	r0, [pc, #132]	; (406210 <wifi_cb+0xa8>)
  40618a:	4b22      	ldr	r3, [pc, #136]	; (406214 <wifi_cb+0xac>)
  40618c:	4798      	blx	r3
				 wifi_connected = 0;
  40618e:	2200      	movs	r2, #0
  406190:	4b21      	ldr	r3, [pc, #132]	; (406218 <wifi_cb+0xb0>)
  406192:	701a      	strb	r2, [r3, #0]
  406194:	e7f1      	b.n	40617a <wifi_cb+0x12>
				 printf("wifi_cb: M2M_WIFI_CONNECTED\r\n");
  406196:	4821      	ldr	r0, [pc, #132]	; (40621c <wifi_cb+0xb4>)
  406198:	4b1e      	ldr	r3, [pc, #120]	; (406214 <wifi_cb+0xac>)
  40619a:	4798      	blx	r3
				 m2m_wifi_request_dhcp_client();
  40619c:	4b20      	ldr	r3, [pc, #128]	; (406220 <wifi_cb+0xb8>)
  40619e:	4798      	blx	r3
  4061a0:	e7eb      	b.n	40617a <wifi_cb+0x12>
			 printf("wifi_cb: IP address is %u.%u.%u.%u\r\n",
  4061a2:	788b      	ldrb	r3, [r1, #2]
  4061a4:	784a      	ldrb	r2, [r1, #1]
  4061a6:	7809      	ldrb	r1, [r1, #0]
  4061a8:	78e0      	ldrb	r0, [r4, #3]
  4061aa:	9000      	str	r0, [sp, #0]
  4061ac:	481d      	ldr	r0, [pc, #116]	; (406224 <wifi_cb+0xbc>)
  4061ae:	4c19      	ldr	r4, [pc, #100]	; (406214 <wifi_cb+0xac>)
  4061b0:	47a0      	blx	r4
			 wifi_connected = M2M_WIFI_CONNECTED;
  4061b2:	2201      	movs	r2, #1
  4061b4:	4b18      	ldr	r3, [pc, #96]	; (406218 <wifi_cb+0xb0>)
  4061b6:	701a      	strb	r2, [r3, #0]
			 break;
  4061b8:	e7df      	b.n	40617a <wifi_cb+0x12>
			 printf("socket_cb: Year: %d, Month: %d, The GMT time is %u:%02u:%02u\r\n",
  4061ba:	790b      	ldrb	r3, [r1, #4]
  4061bc:	788a      	ldrb	r2, [r1, #2]
  4061be:	8809      	ldrh	r1, [r1, #0]
  4061c0:	79a0      	ldrb	r0, [r4, #6]
  4061c2:	9001      	str	r0, [sp, #4]
  4061c4:	7960      	ldrb	r0, [r4, #5]
  4061c6:	9000      	str	r0, [sp, #0]
  4061c8:	4817      	ldr	r0, [pc, #92]	; (406228 <wifi_cb+0xc0>)
  4061ca:	4d12      	ldr	r5, [pc, #72]	; (406214 <wifi_cb+0xac>)
  4061cc:	47a8      	blx	r5
			 year = strSysTime_now->u16Year;
  4061ce:	8822      	ldrh	r2, [r4, #0]
  4061d0:	4b16      	ldr	r3, [pc, #88]	; (40622c <wifi_cb+0xc4>)
  4061d2:	601a      	str	r2, [r3, #0]
			 month = strSysTime_now->u8Month;
  4061d4:	78a2      	ldrb	r2, [r4, #2]
  4061d6:	4b16      	ldr	r3, [pc, #88]	; (406230 <wifi_cb+0xc8>)
  4061d8:	601a      	str	r2, [r3, #0]
			 day = strSysTime_now->u8Day;
  4061da:	78e2      	ldrb	r2, [r4, #3]
  4061dc:	4b15      	ldr	r3, [pc, #84]	; (406234 <wifi_cb+0xcc>)
  4061de:	601a      	str	r2, [r3, #0]
			 hour = (strSysTime_now->u8Hour) - 3;
  4061e0:	7921      	ldrb	r1, [r4, #4]
  4061e2:	3903      	subs	r1, #3
  4061e4:	4b14      	ldr	r3, [pc, #80]	; (406238 <wifi_cb+0xd0>)
  4061e6:	6019      	str	r1, [r3, #0]
			 minute = strSysTime_now->u8Minute;
  4061e8:	7962      	ldrb	r2, [r4, #5]
  4061ea:	4b14      	ldr	r3, [pc, #80]	; (40623c <wifi_cb+0xd4>)
  4061ec:	601a      	str	r2, [r3, #0]
			 second = strSysTime_now->u8Second;
  4061ee:	79a3      	ldrb	r3, [r4, #6]
  4061f0:	4813      	ldr	r0, [pc, #76]	; (406240 <wifi_cb+0xd8>)
  4061f2:	6003      	str	r3, [r0, #0]
			 rtc_set_time(RTC, hour, minute, second);
  4061f4:	4c13      	ldr	r4, [pc, #76]	; (406244 <wifi_cb+0xdc>)
  4061f6:	4620      	mov	r0, r4
  4061f8:	4d13      	ldr	r5, [pc, #76]	; (406248 <wifi_cb+0xe0>)
  4061fa:	47a8      	blx	r5
			 rtc_set_date(RTC, YEAR, MONTH, DAY, NULL);
  4061fc:	2300      	movs	r3, #0
  4061fe:	9300      	str	r3, [sp, #0]
  406200:	2313      	movs	r3, #19
  406202:	2203      	movs	r2, #3
  406204:	f240 71e2 	movw	r1, #2018	; 0x7e2
  406208:	4620      	mov	r0, r4
  40620a:	4c10      	ldr	r4, [pc, #64]	; (40624c <wifi_cb+0xe4>)
  40620c:	47a0      	blx	r4
 }
  40620e:	e7b4      	b.n	40617a <wifi_cb+0x12>
  406210:	0040e214 	.word	0x0040e214
  406214:	004075b5 	.word	0x004075b5
  406218:	2040cd58 	.word	0x2040cd58
  40621c:	0040e1f4 	.word	0x0040e1f4
  406220:	00403679 	.word	0x00403679
  406224:	0040e238 	.word	0x0040e238
  406228:	0040e260 	.word	0x0040e260
  40622c:	2040cf9c 	.word	0x2040cf9c
  406230:	2040cf78 	.word	0x2040cf78
  406234:	2040cfa4 	.word	0x2040cfa4
  406238:	2040cf90 	.word	0x2040cf90
  40623c:	2040cf88 	.word	0x2040cf88
  406240:	2040cf7c 	.word	0x2040cf7c
  406244:	400e1860 	.word	0x400e1860
  406248:	0040051d 	.word	0x0040051d
  40624c:	00400621 	.word	0x00400621

00406250 <usart_serial_getchar>:
 * \param p_usart   Base address of the USART instance.
 * \param data   Data to read
 *
 */
static inline void usart_serial_getchar(usart_if p_usart, uint8_t *data)
{
  406250:	b5f0      	push	{r4, r5, r6, r7, lr}
  406252:	b083      	sub	sp, #12
  406254:	4605      	mov	r5, r0
  406256:	460c      	mov	r4, r1
	uint32_t val = 0;
  406258:	2300      	movs	r3, #0
  40625a:	9301      	str	r3, [sp, #4]
	if (UART == (Uart*)p_usart) {
		while (uart_read((Uart*)p_usart, data));
	}
#else
# ifdef UART0
	if (UART0 == (Uart*)p_usart) {
  40625c:	4b2a      	ldr	r3, [pc, #168]	; (406308 <usart_serial_getchar+0xb8>)
  40625e:	4298      	cmp	r0, r3
  406260:	d013      	beq.n	40628a <usart_serial_getchar+0x3a>
		while (uart_read((Uart*)p_usart, data));
	}
# endif
# ifdef UART1
	if (UART1 == (Uart*)p_usart) {
  406262:	4b2a      	ldr	r3, [pc, #168]	; (40630c <usart_serial_getchar+0xbc>)
  406264:	4298      	cmp	r0, r3
  406266:	d018      	beq.n	40629a <usart_serial_getchar+0x4a>
		while (uart_read((Uart*)p_usart, data));
	}
# endif
# ifdef UART2
	if (UART2 == (Uart*)p_usart) {
  406268:	4b29      	ldr	r3, [pc, #164]	; (406310 <usart_serial_getchar+0xc0>)
  40626a:	4298      	cmp	r0, r3
  40626c:	d01d      	beq.n	4062aa <usart_serial_getchar+0x5a>
		while (uart_read((Uart*)p_usart, data));
	}
# endif
# ifdef UART3
	if (UART3 == (Uart*)p_usart) {
  40626e:	4b29      	ldr	r3, [pc, #164]	; (406314 <usart_serial_getchar+0xc4>)
  406270:	429d      	cmp	r5, r3
  406272:	d022      	beq.n	4062ba <usart_serial_getchar+0x6a>
		while (usart_read(p_usart, &val));
		*data = (uint8_t)(val & 0xFF);
	}
#else
# ifdef USART0
	if (USART0 == p_usart) {
  406274:	4b28      	ldr	r3, [pc, #160]	; (406318 <usart_serial_getchar+0xc8>)
  406276:	429d      	cmp	r5, r3
  406278:	d027      	beq.n	4062ca <usart_serial_getchar+0x7a>
		while (usart_read(p_usart, &val));
		*data = (uint8_t)(val & 0xFF);
	}
# endif
# ifdef USART1
	if (USART1 == p_usart) {
  40627a:	4b28      	ldr	r3, [pc, #160]	; (40631c <usart_serial_getchar+0xcc>)
  40627c:	429d      	cmp	r5, r3
  40627e:	d02e      	beq.n	4062de <usart_serial_getchar+0x8e>
		while (usart_read(p_usart, &val));
		*data = (uint8_t)(val & 0xFF);
	}
# endif
# ifdef USART2
	if (USART2 == p_usart) {
  406280:	4b27      	ldr	r3, [pc, #156]	; (406320 <usart_serial_getchar+0xd0>)
  406282:	429d      	cmp	r5, r3
  406284:	d035      	beq.n	4062f2 <usart_serial_getchar+0xa2>
		*data = (uint8_t)(val & 0xFF);
	}
# endif
#endif /* ifdef USART */

}
  406286:	b003      	add	sp, #12
  406288:	bdf0      	pop	{r4, r5, r6, r7, pc}
		while (uart_read((Uart*)p_usart, data));
  40628a:	461f      	mov	r7, r3
  40628c:	4e25      	ldr	r6, [pc, #148]	; (406324 <usart_serial_getchar+0xd4>)
  40628e:	4621      	mov	r1, r4
  406290:	4638      	mov	r0, r7
  406292:	47b0      	blx	r6
  406294:	2800      	cmp	r0, #0
  406296:	d1fa      	bne.n	40628e <usart_serial_getchar+0x3e>
  406298:	e7e9      	b.n	40626e <usart_serial_getchar+0x1e>
		while (uart_read((Uart*)p_usart, data));
  40629a:	461f      	mov	r7, r3
  40629c:	4e21      	ldr	r6, [pc, #132]	; (406324 <usart_serial_getchar+0xd4>)
  40629e:	4621      	mov	r1, r4
  4062a0:	4638      	mov	r0, r7
  4062a2:	47b0      	blx	r6
  4062a4:	2800      	cmp	r0, #0
  4062a6:	d1fa      	bne.n	40629e <usart_serial_getchar+0x4e>
  4062a8:	e7e4      	b.n	406274 <usart_serial_getchar+0x24>
		while (uart_read((Uart*)p_usart, data));
  4062aa:	461f      	mov	r7, r3
  4062ac:	4e1d      	ldr	r6, [pc, #116]	; (406324 <usart_serial_getchar+0xd4>)
  4062ae:	4621      	mov	r1, r4
  4062b0:	4638      	mov	r0, r7
  4062b2:	47b0      	blx	r6
  4062b4:	2800      	cmp	r0, #0
  4062b6:	d1fa      	bne.n	4062ae <usart_serial_getchar+0x5e>
  4062b8:	e7df      	b.n	40627a <usart_serial_getchar+0x2a>
		while (uart_read((Uart*)p_usart, data));
  4062ba:	461f      	mov	r7, r3
  4062bc:	4e19      	ldr	r6, [pc, #100]	; (406324 <usart_serial_getchar+0xd4>)
  4062be:	4621      	mov	r1, r4
  4062c0:	4638      	mov	r0, r7
  4062c2:	47b0      	blx	r6
  4062c4:	2800      	cmp	r0, #0
  4062c6:	d1fa      	bne.n	4062be <usart_serial_getchar+0x6e>
  4062c8:	e7da      	b.n	406280 <usart_serial_getchar+0x30>
		while (usart_read(p_usart, &val));
  4062ca:	461e      	mov	r6, r3
  4062cc:	4d16      	ldr	r5, [pc, #88]	; (406328 <usart_serial_getchar+0xd8>)
  4062ce:	a901      	add	r1, sp, #4
  4062d0:	4630      	mov	r0, r6
  4062d2:	47a8      	blx	r5
  4062d4:	2800      	cmp	r0, #0
  4062d6:	d1fa      	bne.n	4062ce <usart_serial_getchar+0x7e>
		*data = (uint8_t)(val & 0xFF);
  4062d8:	9b01      	ldr	r3, [sp, #4]
  4062da:	7023      	strb	r3, [r4, #0]
  4062dc:	e7d3      	b.n	406286 <usart_serial_getchar+0x36>
		while (usart_read(p_usart, &val));
  4062de:	461e      	mov	r6, r3
  4062e0:	4d11      	ldr	r5, [pc, #68]	; (406328 <usart_serial_getchar+0xd8>)
  4062e2:	a901      	add	r1, sp, #4
  4062e4:	4630      	mov	r0, r6
  4062e6:	47a8      	blx	r5
  4062e8:	2800      	cmp	r0, #0
  4062ea:	d1fa      	bne.n	4062e2 <usart_serial_getchar+0x92>
		*data = (uint8_t)(val & 0xFF);
  4062ec:	9b01      	ldr	r3, [sp, #4]
  4062ee:	7023      	strb	r3, [r4, #0]
  4062f0:	e7c9      	b.n	406286 <usart_serial_getchar+0x36>
		while (usart_read(p_usart, &val));
  4062f2:	461e      	mov	r6, r3
  4062f4:	4d0c      	ldr	r5, [pc, #48]	; (406328 <usart_serial_getchar+0xd8>)
  4062f6:	a901      	add	r1, sp, #4
  4062f8:	4630      	mov	r0, r6
  4062fa:	47a8      	blx	r5
  4062fc:	2800      	cmp	r0, #0
  4062fe:	d1fa      	bne.n	4062f6 <usart_serial_getchar+0xa6>
		*data = (uint8_t)(val & 0xFF);
  406300:	9b01      	ldr	r3, [sp, #4]
  406302:	7023      	strb	r3, [r4, #0]
}
  406304:	e7bf      	b.n	406286 <usart_serial_getchar+0x36>
  406306:	bf00      	nop
  406308:	400e0800 	.word	0x400e0800
  40630c:	400e0a00 	.word	0x400e0a00
  406310:	400e1a00 	.word	0x400e1a00
  406314:	400e1c00 	.word	0x400e1c00
  406318:	40024000 	.word	0x40024000
  40631c:	40028000 	.word	0x40028000
  406320:	4002c000 	.word	0x4002c000
  406324:	00405993 	.word	0x00405993
  406328:	00405a9f 	.word	0x00405a9f

0040632c <vApplicationStackOverflowHook>:
 {
  40632c:	b508      	push	{r3, lr}
	 printf("stack overflow %x %s\r\n", pxTask, (portCHAR *)pcTaskName);
  40632e:	460a      	mov	r2, r1
  406330:	4601      	mov	r1, r0
  406332:	4802      	ldr	r0, [pc, #8]	; (40633c <vApplicationStackOverflowHook+0x10>)
  406334:	4b02      	ldr	r3, [pc, #8]	; (406340 <vApplicationStackOverflowHook+0x14>)
  406336:	4798      	blx	r3
  406338:	e7fe      	b.n	406338 <vApplicationStackOverflowHook+0xc>
  40633a:	bf00      	nop
  40633c:	0040e1dc 	.word	0x0040e1dc
  406340:	004075b5 	.word	0x004075b5

00406344 <vApplicationTickHook>:
 {
  406344:	4770      	bx	lr

00406346 <vApplicationMallocFailedHook>:

portFORCE_INLINE static void vPortRaiseBASEPRI( void )
{
uint32_t ulNewBASEPRI;

	__asm volatile
  406346:	f04f 0380 	mov.w	r3, #128	; 0x80
  40634a:	b672      	cpsid	i
  40634c:	f383 8811 	msr	BASEPRI, r3
  406350:	f3bf 8f6f 	isb	sy
  406354:	f3bf 8f4f 	dsb	sy
  406358:	b662      	cpsie	i
  40635a:	e7fe      	b.n	40635a <vApplicationMallocFailedHook+0x14>

0040635c <TC0_Handler>:
void TC0_Handler(void){
  40635c:	b500      	push	{lr}
  40635e:	b083      	sub	sp, #12
	ul_dummy = tc_get_status(TC0, 1);
  406360:	2101      	movs	r1, #1
  406362:	4805      	ldr	r0, [pc, #20]	; (406378 <TC0_Handler+0x1c>)
  406364:	4b05      	ldr	r3, [pc, #20]	; (40637c <TC0_Handler+0x20>)
  406366:	4798      	blx	r3
  406368:	9001      	str	r0, [sp, #4]
	UNUSED(ul_dummy);
  40636a:	9b01      	ldr	r3, [sp, #4]
	flag_tc = true;
  40636c:	2201      	movs	r2, #1
  40636e:	4b04      	ldr	r3, [pc, #16]	; (406380 <TC0_Handler+0x24>)
  406370:	601a      	str	r2, [r3, #0]
}
  406372:	b003      	add	sp, #12
  406374:	f85d fb04 	ldr.w	pc, [sp], #4
  406378:	4000c000 	.word	0x4000c000
  40637c:	00405979 	.word	0x00405979
  406380:	2040c3e8 	.word	0x2040c3e8

00406384 <RTC_Handler>:
{
  406384:	b538      	push	{r3, r4, r5, lr}
	printf("ALBBBBBBBBBBBBBBRME");
  406386:	480c      	ldr	r0, [pc, #48]	; (4063b8 <RTC_Handler+0x34>)
  406388:	4b0c      	ldr	r3, [pc, #48]	; (4063bc <RTC_Handler+0x38>)
  40638a:	4798      	blx	r3
	uint32_t ul_status = rtc_get_status(RTC);
  40638c:	4c0c      	ldr	r4, [pc, #48]	; (4063c0 <RTC_Handler+0x3c>)
  40638e:	4620      	mov	r0, r4
  406390:	4b0c      	ldr	r3, [pc, #48]	; (4063c4 <RTC_Handler+0x40>)
  406392:	4798      	blx	r3
	rtc_clear_status(RTC, RTC_SCCR_ACKCLR);
  406394:	2101      	movs	r1, #1
  406396:	4620      	mov	r0, r4
  406398:	4d0b      	ldr	r5, [pc, #44]	; (4063c8 <RTC_Handler+0x44>)
  40639a:	47a8      	blx	r5
	rtc_clear_status(RTC, RTC_SCCR_TIMCLR);
  40639c:	2108      	movs	r1, #8
  40639e:	4620      	mov	r0, r4
  4063a0:	47a8      	blx	r5
	rtc_clear_status(RTC, RTC_SCCR_CALCLR);
  4063a2:	2110      	movs	r1, #16
  4063a4:	4620      	mov	r0, r4
  4063a6:	47a8      	blx	r5
	rtc_clear_status(RTC, RTC_SCCR_TDERRCLR);
  4063a8:	2120      	movs	r1, #32
  4063aa:	4620      	mov	r0, r4
  4063ac:	47a8      	blx	r5
	rtc_clear_status(RTC, RTC_SCCR_SECCLR);
  4063ae:	2104      	movs	r1, #4
  4063b0:	4620      	mov	r0, r4
  4063b2:	47a8      	blx	r5
  4063b4:	bd38      	pop	{r3, r4, r5, pc}
  4063b6:	bf00      	nop
  4063b8:	0040ded8 	.word	0x0040ded8
  4063bc:	004075b5 	.word	0x004075b5
  4063c0:	400e1860 	.word	0x400e1860
  4063c4:	004006d9 	.word	0x004006d9
  4063c8:	004006dd 	.word	0x004006dd

004063cc <TC_init0>:
void TC_init0(Tc * TC, int ID_TC, int TC_CHANNEL, int freq){
  4063cc:	b570      	push	{r4, r5, r6, lr}
  4063ce:	4605      	mov	r5, r0
  4063d0:	460c      	mov	r4, r1
  4063d2:	4616      	mov	r6, r2
	pmc_enable_periph_clk(ID_TC);
  4063d4:	4608      	mov	r0, r1
  4063d6:	4b0f      	ldr	r3, [pc, #60]	; (406414 <TC_init0+0x48>)
  4063d8:	4798      	blx	r3
	tc_init(TC, TC_CHANNEL, TC_CMR_TCCLKS_TIMER_CLOCK5 | TC_CMR_CPCTRG);
  4063da:	f244 0204 	movw	r2, #16388	; 0x4004
  4063de:	4631      	mov	r1, r6
  4063e0:	4628      	mov	r0, r5
  4063e2:	4b0d      	ldr	r3, [pc, #52]	; (406418 <TC_init0+0x4c>)
  4063e4:	4798      	blx	r3
	tc_write_rc(TC, TC_CHANNEL, 65535);
  4063e6:	f64f 72ff 	movw	r2, #65535	; 0xffff
  4063ea:	4631      	mov	r1, r6
  4063ec:	4628      	mov	r0, r5
  4063ee:	4b0b      	ldr	r3, [pc, #44]	; (40641c <TC_init0+0x50>)
  4063f0:	4798      	blx	r3
    \param [in]      IRQn  External interrupt number. Value cannot be negative.
 */
__STATIC_INLINE void NVIC_EnableIRQ(IRQn_Type IRQn)
{
/*  NVIC->ISER[((uint32_t)(IRQn) >> 5)] = (1 << ((uint32_t)(IRQn) & 0x1F));  enable interrupt */
  NVIC->ISER[(uint32_t)((int32_t)IRQn) >> 5] = (uint32_t)(1 << ((uint32_t)((int32_t)IRQn) & (uint32_t)0x1F)); /* enable interrupt */
  4063f2:	b263      	sxtb	r3, r4
  4063f4:	095b      	lsrs	r3, r3, #5
  4063f6:	f004 041f 	and.w	r4, r4, #31
  4063fa:	2201      	movs	r2, #1
  4063fc:	fa02 f404 	lsl.w	r4, r2, r4
  406400:	4a07      	ldr	r2, [pc, #28]	; (406420 <TC_init0+0x54>)
  406402:	f842 4023 	str.w	r4, [r2, r3, lsl #2]
	tc_enable_interrupt(TC, TC_CHANNEL, TC_IER_CPCS);
  406406:	2210      	movs	r2, #16
  406408:	4631      	mov	r1, r6
  40640a:	4628      	mov	r0, r5
  40640c:	4b05      	ldr	r3, [pc, #20]	; (406424 <TC_init0+0x58>)
  40640e:	4798      	blx	r3
  406410:	bd70      	pop	{r4, r5, r6, pc}
  406412:	bf00      	nop
  406414:	00405799 	.word	0x00405799
  406418:	0040593f 	.word	0x0040593f
  40641c:	00405969 	.word	0x00405969
  406420:	e000e100 	.word	0xe000e100
  406424:	00405971 	.word	0x00405971

00406428 <RTC_init>:
void RTC_init(){
  406428:	b508      	push	{r3, lr}
	pmc_enable_periph_clk(ID_RTC);
  40642a:	2002      	movs	r0, #2
  40642c:	4b03      	ldr	r3, [pc, #12]	; (40643c <RTC_init+0x14>)
  40642e:	4798      	blx	r3
	rtc_set_hour_mode(RTC, 0);
  406430:	2100      	movs	r1, #0
  406432:	4803      	ldr	r0, [pc, #12]	; (406440 <RTC_init+0x18>)
  406434:	4b03      	ldr	r3, [pc, #12]	; (406444 <RTC_init+0x1c>)
  406436:	4798      	blx	r3
  406438:	bd08      	pop	{r3, pc}
  40643a:	bf00      	nop
  40643c:	00405799 	.word	0x00405799
  406440:	400e1860 	.word	0x400e1860
  406444:	004004ad 	.word	0x004004ad

00406448 <io_init>:
void io_init(void){
  406448:	b570      	push	{r4, r5, r6, lr}
  40644a:	b082      	sub	sp, #8
	pmc_enable_periph_clk(TRIGGER_PIO_ID_A);
  40644c:	2010      	movs	r0, #16
  40644e:	4c24      	ldr	r4, [pc, #144]	; (4064e0 <io_init+0x98>)
  406450:	47a0      	blx	r4
	pio_configure(TRIGGER_PIO_A, PIO_OUTPUT_0, TRIGGER_IDX_MASK_A, PIO_DEFAULT);
  406452:	2300      	movs	r3, #0
  406454:	f04f 6280 	mov.w	r2, #67108864	; 0x4000000
  406458:	f04f 5140 	mov.w	r1, #805306368	; 0x30000000
  40645c:	4821      	ldr	r0, [pc, #132]	; (4064e4 <io_init+0x9c>)
  40645e:	4e22      	ldr	r6, [pc, #136]	; (4064e8 <io_init+0xa0>)
  406460:	47b0      	blx	r6
	pmc_enable_periph_clk(ECHO_PIO_ID_A);
  406462:	200c      	movs	r0, #12
  406464:	47a0      	blx	r4
	pio_configure(ECHO_PIO_A, PIO_INPUT, ECHO_IDX_MASK_A, PIO_PULLUP);
  406466:	4d21      	ldr	r5, [pc, #132]	; (4064ec <io_init+0xa4>)
  406468:	2301      	movs	r3, #1
  40646a:	f44f 5200 	mov.w	r2, #8192	; 0x2000
  40646e:	f04f 5120 	mov.w	r1, #671088640	; 0x28000000
  406472:	4628      	mov	r0, r5
  406474:	47b0      	blx	r6
	pmc_enable_periph_clk(WATER_PIO_ID_A);
  406476:	200a      	movs	r0, #10
  406478:	47a0      	blx	r4
	pio_configure(WATER_PIO_A, PIO_INPUT, WATER_IDX_MASK_A, PIO_PULLUP);
  40647a:	4c1d      	ldr	r4, [pc, #116]	; (4064f0 <io_init+0xa8>)
  40647c:	2301      	movs	r3, #1
  40647e:	2210      	movs	r2, #16
  406480:	f04f 5120 	mov.w	r1, #671088640	; 0x28000000
  406484:	4620      	mov	r0, r4
  406486:	47b0      	blx	r6
	pio_handler_set(ECHO_PIO_A,
  406488:	4b1a      	ldr	r3, [pc, #104]	; (4064f4 <io_init+0xac>)
  40648a:	9300      	str	r3, [sp, #0]
  40648c:	2340      	movs	r3, #64	; 0x40
  40648e:	f44f 5200 	mov.w	r2, #8192	; 0x2000
  406492:	210c      	movs	r1, #12
  406494:	4628      	mov	r0, r5
  406496:	4e18      	ldr	r6, [pc, #96]	; (4064f8 <io_init+0xb0>)
  406498:	47b0      	blx	r6
	pio_handler_set(WATER_PIO_A,
  40649a:	4b18      	ldr	r3, [pc, #96]	; (4064fc <io_init+0xb4>)
  40649c:	9300      	str	r3, [sp, #0]
  40649e:	2340      	movs	r3, #64	; 0x40
  4064a0:	2210      	movs	r2, #16
  4064a2:	210a      	movs	r1, #10
  4064a4:	4620      	mov	r0, r4
  4064a6:	47b0      	blx	r6
  4064a8:	4b15      	ldr	r3, [pc, #84]	; (406500 <io_init+0xb8>)
  4064aa:	f44f 5280 	mov.w	r2, #4096	; 0x1000
  4064ae:	601a      	str	r2, [r3, #0]
__STATIC_INLINE void NVIC_SetPriority(IRQn_Type IRQn, uint32_t priority)
{
  if(IRQn < 0) {
    SCB->SHPR[((uint32_t)(IRQn) & 0xF)-4] = ((priority << (8 - __NVIC_PRIO_BITS)) & 0xff); } /* set Priority for Cortex-M  System Interrupts */
  else {
    NVIC->IP[(uint32_t)(IRQn)]            = ((priority << (8 - __NVIC_PRIO_BITS)) & 0xff); } /* set Priority for device specific Interrupts  */
  4064b0:	22a0      	movs	r2, #160	; 0xa0
  4064b2:	f883 230c 	strb.w	r2, [r3, #780]	; 0x30c
  NVIC->ISER[(uint32_t)((int32_t)IRQn) >> 5] = (uint32_t)(1 << ((uint32_t)((int32_t)IRQn) & (uint32_t)0x1F)); /* enable interrupt */
  4064b6:	f44f 6180 	mov.w	r1, #1024	; 0x400
  4064ba:	6019      	str	r1, [r3, #0]
    NVIC->IP[(uint32_t)(IRQn)]            = ((priority << (8 - __NVIC_PRIO_BITS)) & 0xff); } /* set Priority for device specific Interrupts  */
  4064bc:	f883 230a 	strb.w	r2, [r3, #778]	; 0x30a
	pio_enable_interrupt(ECHO_PIO_A, ECHO_IDX_MASK_A);
  4064c0:	f44f 5100 	mov.w	r1, #8192	; 0x2000
  4064c4:	4628      	mov	r0, r5
  4064c6:	4e0f      	ldr	r6, [pc, #60]	; (406504 <io_init+0xbc>)
  4064c8:	47b0      	blx	r6
	pio_enable_interrupt(WATER_PIO_A, WATER_IDX_MASK_A);
  4064ca:	2110      	movs	r1, #16
  4064cc:	4620      	mov	r0, r4
  4064ce:	47b0      	blx	r6
	pio_get_interrupt_status(ECHO_PIO_A); // clear IRQ
  4064d0:	4628      	mov	r0, r5
  4064d2:	4d0d      	ldr	r5, [pc, #52]	; (406508 <io_init+0xc0>)
  4064d4:	47a8      	blx	r5
	pio_get_interrupt_status(WATER_PIO_A); // clear IRQ
  4064d6:	4620      	mov	r0, r4
  4064d8:	47a8      	blx	r5
}
  4064da:	b002      	add	sp, #8
  4064dc:	bd70      	pop	{r4, r5, r6, pc}
  4064de:	bf00      	nop
  4064e0:	00405799 	.word	0x00405799
  4064e4:	400e1400 	.word	0x400e1400
  4064e8:	004052cd 	.word	0x004052cd
  4064ec:	400e1200 	.word	0x400e1200
  4064f0:	400e0e00 	.word	0x400e0e00
  4064f4:	00405d85 	.word	0x00405d85
  4064f8:	00405521 	.word	0x00405521
  4064fc:	00405e1d 	.word	0x00405e1d
  406500:	e000e100 	.word	0xe000e100
  406504:	0040538f 	.word	0x0040538f
  406508:	00405397 	.word	0x00405397

0040650c <signal_trigger>:
void signal_trigger(void){
  40650c:	b510      	push	{r4, lr}
	pio_set(TRIGGER_PIO_A, TRIGGER_IDX_MASK_A);
  40650e:	4c08      	ldr	r4, [pc, #32]	; (406530 <signal_trigger+0x24>)
  406510:	f04f 6180 	mov.w	r1, #67108864	; 0x4000000
  406514:	4620      	mov	r0, r4
  406516:	4b07      	ldr	r3, [pc, #28]	; (406534 <signal_trigger+0x28>)
  406518:	4798      	blx	r3
	delay_us(10);
  40651a:	f44f 70fd 	mov.w	r0, #506	; 0x1fa
  40651e:	4b06      	ldr	r3, [pc, #24]	; (406538 <signal_trigger+0x2c>)
  406520:	4798      	blx	r3
	pio_clear(TRIGGER_PIO_A, TRIGGER_IDX_MASK_A);
  406522:	f04f 6180 	mov.w	r1, #67108864	; 0x4000000
  406526:	4620      	mov	r0, r4
  406528:	4b04      	ldr	r3, [pc, #16]	; (40653c <signal_trigger+0x30>)
  40652a:	4798      	blx	r3
  40652c:	bd10      	pop	{r4, pc}
  40652e:	bf00      	nop
  406530:	400e1400 	.word	0x400e1400
  406534:	004051bb 	.word	0x004051bb
  406538:	20400001 	.word	0x20400001
  40653c:	004051bf 	.word	0x004051bf

00406540 <get_time>:
void get_time(char *timestamp){
  406540:	e92d 4ff0 	stmdb	sp!, {r4, r5, r6, r7, r8, r9, sl, fp, lr}
  406544:	b085      	sub	sp, #20
  406546:	4683      	mov	fp, r0
	rtc_get_date(RTC, &year, &month, &day, &week);
  406548:	f8df 8074 	ldr.w	r8, [pc, #116]	; 4065c0 <get_time+0x80>
  40654c:	f8df 9074 	ldr.w	r9, [pc, #116]	; 4065c4 <get_time+0x84>
  406550:	4c13      	ldr	r4, [pc, #76]	; (4065a0 <get_time+0x60>)
  406552:	f8df a074 	ldr.w	sl, [pc, #116]	; 4065c8 <get_time+0x88>
  406556:	4b13      	ldr	r3, [pc, #76]	; (4065a4 <get_time+0x64>)
  406558:	9300      	str	r3, [sp, #0]
  40655a:	4643      	mov	r3, r8
  40655c:	464a      	mov	r2, r9
  40655e:	4621      	mov	r1, r4
  406560:	4650      	mov	r0, sl
  406562:	4d11      	ldr	r5, [pc, #68]	; (4065a8 <get_time+0x68>)
  406564:	47a8      	blx	r5
	rtc_get_time(RTC, &hour, &minute, &second);
  406566:	4f11      	ldr	r7, [pc, #68]	; (4065ac <get_time+0x6c>)
  406568:	4e11      	ldr	r6, [pc, #68]	; (4065b0 <get_time+0x70>)
  40656a:	4d12      	ldr	r5, [pc, #72]	; (4065b4 <get_time+0x74>)
  40656c:	463b      	mov	r3, r7
  40656e:	4632      	mov	r2, r6
  406570:	4629      	mov	r1, r5
  406572:	4650      	mov	r0, sl
  406574:	f8df a054 	ldr.w	sl, [pc, #84]	; 4065cc <get_time+0x8c>
  406578:	47d0      	blx	sl
	sprintf(timestamp, "%d/%d/%d - %02d:%02d:%02d", day, month, year, hour, minute, second);
  40657a:	f8d9 3000 	ldr.w	r3, [r9]
  40657e:	f8d8 2000 	ldr.w	r2, [r8]
  406582:	6839      	ldr	r1, [r7, #0]
  406584:	9103      	str	r1, [sp, #12]
  406586:	6831      	ldr	r1, [r6, #0]
  406588:	9102      	str	r1, [sp, #8]
  40658a:	6829      	ldr	r1, [r5, #0]
  40658c:	9101      	str	r1, [sp, #4]
  40658e:	6821      	ldr	r1, [r4, #0]
  406590:	9100      	str	r1, [sp, #0]
  406592:	4909      	ldr	r1, [pc, #36]	; (4065b8 <get_time+0x78>)
  406594:	4658      	mov	r0, fp
  406596:	4c09      	ldr	r4, [pc, #36]	; (4065bc <get_time+0x7c>)
  406598:	47a0      	blx	r4
}
  40659a:	b005      	add	sp, #20
  40659c:	e8bd 8ff0 	ldmia.w	sp!, {r4, r5, r6, r7, r8, r9, sl, fp, pc}
  4065a0:	2040cf9c 	.word	0x2040cf9c
  4065a4:	2040cf28 	.word	0x2040cf28
  4065a8:	004005ad 	.word	0x004005ad
  4065ac:	2040cf7c 	.word	0x2040cf7c
  4065b0:	2040cf88 	.word	0x2040cf88
  4065b4:	2040cf90 	.word	0x2040cf90
  4065b8:	0040deec 	.word	0x0040deec
  4065bc:	0040794d 	.word	0x0040794d
  4065c0:	2040cfa4 	.word	0x2040cfa4
  4065c4:	2040cf78 	.word	0x2040cf78
  4065c8:	400e1860 	.word	0x400e1860
  4065cc:	004004c3 	.word	0x004004c3

004065d0 <task_afec>:
void task_afec(void){
  4065d0:	b5f0      	push	{r4, r5, r6, r7, lr}
  4065d2:	b0ad      	sub	sp, #180	; 0xb4
	xQueueAfec = xQueueCreate( 10, sizeof( int32_t ) );
  4065d4:	2200      	movs	r2, #0
  4065d6:	2104      	movs	r1, #4
  4065d8:	200a      	movs	r0, #10
  4065da:	4b31      	ldr	r3, [pc, #196]	; (4066a0 <task_afec+0xd0>)
  4065dc:	4798      	blx	r3
  4065de:	4b31      	ldr	r3, [pc, #196]	; (4066a4 <task_afec+0xd4>)
  4065e0:	6018      	str	r0, [r3, #0]
	afec_enable(AFEC0);
  4065e2:	4c31      	ldr	r4, [pc, #196]	; (4066a8 <task_afec+0xd8>)
  4065e4:	4620      	mov	r0, r4
  4065e6:	4b31      	ldr	r3, [pc, #196]	; (4066ac <task_afec+0xdc>)
  4065e8:	4798      	blx	r3
	afec_get_config_defaults(&afec_cfg);
  4065ea:	a803      	add	r0, sp, #12
  4065ec:	4b30      	ldr	r3, [pc, #192]	; (4066b0 <task_afec+0xe0>)
  4065ee:	4798      	blx	r3
	afec_init(AFEC0, &afec_cfg);
  4065f0:	a903      	add	r1, sp, #12
  4065f2:	4620      	mov	r0, r4
  4065f4:	4b2f      	ldr	r3, [pc, #188]	; (4066b4 <task_afec+0xe4>)
  4065f6:	4798      	blx	r3
	reg = afec->AFEC_MR;
  4065f8:	6863      	ldr	r3, [r4, #4]
		reg &= ~(AFEC_MR_TRGSEL_Msk | AFEC_MR_TRGEN | AFEC_MR_FREERUN_ON);
  4065fa:	f023 038f 	bic.w	r3, r3, #143	; 0x8f
	afec->AFEC_MR = reg;
  4065fe:	6063      	str	r3, [r4, #4]
	afec_set_callback(AFEC0, AFEC_INTERRUPT_EOC_0,	AFEC_callback, 5);
  406600:	2305      	movs	r3, #5
  406602:	4a2d      	ldr	r2, [pc, #180]	; (4066b8 <task_afec+0xe8>)
  406604:	2100      	movs	r1, #0
  406606:	4620      	mov	r0, r4
  406608:	4d2c      	ldr	r5, [pc, #176]	; (4066bc <task_afec+0xec>)
  40660a:	47a8      	blx	r5
	afec_ch_get_config_defaults(&afec_ch_cfg);
  40660c:	4668      	mov	r0, sp
  40660e:	4b2c      	ldr	r3, [pc, #176]	; (4066c0 <task_afec+0xf0>)
  406610:	4798      	blx	r3
	afec_ch_cfg.gain = AFEC_GAINVALUE_0;
  406612:	2500      	movs	r5, #0
  406614:	f88d 5001 	strb.w	r5, [sp, #1]
	afec_ch_set_config(AFEC0, AFEC_CHANNEL, &afec_ch_cfg);
  406618:	466a      	mov	r2, sp
  40661a:	4629      	mov	r1, r5
  40661c:	4620      	mov	r0, r4
  40661e:	4b29      	ldr	r3, [pc, #164]	; (4066c4 <task_afec+0xf4>)
  406620:	4798      	blx	r3
static inline void afec_channel_set_analog_offset(Afec *const afec,
		enum afec_channel_num afec_ch, uint16_t aoffset)
{
	afec_ch_sanity_check(afec, afec_ch);

	afec->AFEC_CSELR = afec_ch;
  406622:	6665      	str	r5, [r4, #100]	; 0x64
	afec->AFEC_COCR = (aoffset & AFEC_COCR_AOFF_Msk);
  406624:	f44f 7300 	mov.w	r3, #512	; 0x200
  406628:	66e3      	str	r3, [r4, #108]	; 0x6c
	afec_temp_sensor_get_config_defaults(&afec_temp_sensor_cfg);
  40662a:	a801      	add	r0, sp, #4
  40662c:	4b26      	ldr	r3, [pc, #152]	; (4066c8 <task_afec+0xf8>)
  40662e:	4798      	blx	r3
	afec_temp_sensor_set_config(AFEC0, &afec_temp_sensor_cfg);
  406630:	a901      	add	r1, sp, #4
  406632:	4620      	mov	r0, r4
  406634:	4b25      	ldr	r3, [pc, #148]	; (4066cc <task_afec+0xfc>)
  406636:	4798      	blx	r3
	afec->AFEC_CHER = (afec_ch == AFEC_CHANNEL_ALL) ?
  406638:	2301      	movs	r3, #1
  40663a:	6163      	str	r3, [r4, #20]
	afec->AFEC_CR = AFEC_CR_START;
  40663c:	2302      	movs	r3, #2
  40663e:	6023      	str	r3, [r4, #0]
		if (xQueueReceive( xQueueAfec, &(adc_value), ( TickType_t )  2000 / portTICK_PERIOD_MS)) {
  406640:	4f18      	ldr	r7, [pc, #96]	; (4066a4 <task_afec+0xd4>)
  406642:	4e23      	ldr	r6, [pc, #140]	; (4066d0 <task_afec+0x100>)
	vTaskDelay(1000 / portTICK_PERIOD_MS);
  406644:	4d23      	ldr	r5, [pc, #140]	; (4066d4 <task_afec+0x104>)
  406646:	e001      	b.n	40664c <task_afec+0x7c>
		vTaskDelay(200);
  406648:	20c8      	movs	r0, #200	; 0xc8
  40664a:	47a8      	blx	r5
		if (xQueueReceive( xQueueAfec, &(adc_value), ( TickType_t )  2000 / portTICK_PERIOD_MS)) {
  40664c:	2300      	movs	r3, #0
  40664e:	f44f 62fa 	mov.w	r2, #2000	; 0x7d0
  406652:	a919      	add	r1, sp, #100	; 0x64
  406654:	6838      	ldr	r0, [r7, #0]
  406656:	47b0      	blx	r6
  406658:	2800      	cmp	r0, #0
  40665a:	d0f5      	beq.n	406648 <task_afec+0x78>
	ul_vol = ADC_value * 100 / 4096;
  40665c:	2464      	movs	r4, #100	; 0x64
  40665e:	9b19      	ldr	r3, [sp, #100]	; 0x64
  406660:	fb04 f403 	mul.w	r4, r4, r3
	vTaskDelay(1000 / portTICK_PERIOD_MS);
  406664:	f44f 707a 	mov.w	r0, #1000	; 0x3e8
  406668:	47a8      	blx	r5
  40666a:	2202      	movs	r2, #2
  40666c:	4b0e      	ldr	r3, [pc, #56]	; (4066a8 <task_afec+0xd8>)
  40666e:	601a      	str	r2, [r3, #0]
			get_time(&timestamp);
  406670:	a809      	add	r0, sp, #36	; 0x24
  406672:	4b19      	ldr	r3, [pc, #100]	; (4066d8 <task_afec+0x108>)
  406674:	4798      	blx	r3
			data.id = 3;
  406676:	2303      	movs	r3, #3
  406678:	931a      	str	r3, [sp, #104]	; 0x68
			ph_value = (int) (convert_adc_to_ph(adc_value))/10;
  40667a:	4b18      	ldr	r3, [pc, #96]	; (4066dc <task_afec+0x10c>)
  40667c:	fb83 2304 	smull	r2, r3, r3, r4
  406680:	17e4      	asrs	r4, r4, #31
  406682:	ebc4 34a3 	rsb	r4, r4, r3, asr #14
			data.value = ph_value;
  406686:	941b      	str	r4, [sp, #108]	; 0x6c
			strcpy(data.timestamp, timestamp);
  406688:	a909      	add	r1, sp, #36	; 0x24
  40668a:	a81c      	add	r0, sp, #112	; 0x70
  40668c:	4b14      	ldr	r3, [pc, #80]	; (4066e0 <task_afec+0x110>)
  40668e:	4798      	blx	r3
			xQueueSend( xQueueData, &data, 0);
  406690:	2300      	movs	r3, #0
  406692:	461a      	mov	r2, r3
  406694:	a91a      	add	r1, sp, #104	; 0x68
  406696:	4813      	ldr	r0, [pc, #76]	; (4066e4 <task_afec+0x114>)
  406698:	6800      	ldr	r0, [r0, #0]
  40669a:	4c13      	ldr	r4, [pc, #76]	; (4066e8 <task_afec+0x118>)
  40669c:	47a0      	blx	r4
  40669e:	e7d3      	b.n	406648 <task_afec+0x78>
  4066a0:	00400d85 	.word	0x00400d85
  4066a4:	2040cf98 	.word	0x2040cf98
  4066a8:	4003c000 	.word	0x4003c000
  4066ac:	00400449 	.word	0x00400449
  4066b0:	00400279 	.word	0x00400279
  4066b4:	004002c9 	.word	0x004002c9
  4066b8:	00405df1 	.word	0x00405df1
  4066bc:	004003c9 	.word	0x004003c9
  4066c0:	004002a9 	.word	0x004002a9
  4066c4:	00400235 	.word	0x00400235
  4066c8:	004002b3 	.word	0x004002b3
  4066cc:	00400265 	.word	0x00400265
  4066d0:	004011c5 	.word	0x004011c5
  4066d4:	004019ed 	.word	0x004019ed
  4066d8:	00406541 	.word	0x00406541
  4066dc:	66666667 	.word	0x66666667
  4066e0:	00407999 	.word	0x00407999
  4066e4:	2040cfa8 	.word	0x2040cfa8
  4066e8:	00400e01 	.word	0x00400e01
  4066ec:	00000000 	.word	0x00000000

004066f0 <task_water_cicles>:
static void task_water_cicles(void *pvParameters){
  4066f0:	e92d 4f70 	stmdb	sp!, {r4, r5, r6, r8, r9, sl, fp, lr}
  4066f4:	b0a2      	sub	sp, #136	; 0x88
	xSemaphoreWater = xSemaphoreCreateBinary();
  4066f6:	2203      	movs	r2, #3
  4066f8:	2100      	movs	r1, #0
  4066fa:	2001      	movs	r0, #1
  4066fc:	4c2a      	ldr	r4, [pc, #168]	; (4067a8 <task_water_cicles+0xb8>)
  4066fe:	47a0      	blx	r4
  406700:	4b2a      	ldr	r3, [pc, #168]	; (4067ac <task_water_cicles+0xbc>)
  406702:	6018      	str	r0, [r3, #0]
	xSemaphoreCounter = xSemaphoreCreateBinary();
  406704:	2203      	movs	r2, #3
  406706:	2100      	movs	r1, #0
  406708:	2001      	movs	r0, #1
  40670a:	47a0      	blx	r4
  40670c:	4b28      	ldr	r3, [pc, #160]	; (4067b0 <task_water_cicles+0xc0>)
  40670e:	6018      	str	r0, [r3, #0]
	io_init();
  406710:	4b28      	ldr	r3, [pc, #160]	; (4067b4 <task_water_cicles+0xc4>)
  406712:	4798      	blx	r3
		if( xSemaphoreTake(xSemaphoreWater, ( TickType_t ) 50) == pdTRUE)
  406714:	f8df a094 	ldr.w	sl, [pc, #148]	; 4067ac <task_water_cicles+0xbc>
  406718:	2400      	movs	r4, #0
  40671a:	4d27      	ldr	r5, [pc, #156]	; (4067b8 <task_water_cicles+0xc8>)
				water_flow = 7.2727 * cicles + 3.63636;
  40671c:	f20f 0978 	addw	r9, pc, #120	; 0x78
  406720:	e9d9 8900 	ldrd	r8, r9, [r9]
  406724:	e011      	b.n	40674a <task_water_cicles+0x5a>
				water_flow = 0;
  406726:	4626      	mov	r6, r4
			get_time(&timestamp);
  406728:	4668      	mov	r0, sp
  40672a:	4b24      	ldr	r3, [pc, #144]	; (4067bc <task_water_cicles+0xcc>)
  40672c:	4798      	blx	r3
			data.id = 2;
  40672e:	2302      	movs	r3, #2
  406730:	9310      	str	r3, [sp, #64]	; 0x40
			data.value = water_flow;
  406732:	9611      	str	r6, [sp, #68]	; 0x44
			strcpy(data.timestamp, timestamp);
  406734:	4669      	mov	r1, sp
  406736:	a812      	add	r0, sp, #72	; 0x48
  406738:	4b21      	ldr	r3, [pc, #132]	; (4067c0 <task_water_cicles+0xd0>)
  40673a:	4798      	blx	r3
			xQueueSend( xQueueData, &data, 0);
  40673c:	4623      	mov	r3, r4
  40673e:	4622      	mov	r2, r4
  406740:	a910      	add	r1, sp, #64	; 0x40
  406742:	4820      	ldr	r0, [pc, #128]	; (4067c4 <task_water_cicles+0xd4>)
  406744:	6800      	ldr	r0, [r0, #0]
  406746:	4e20      	ldr	r6, [pc, #128]	; (4067c8 <task_water_cicles+0xd8>)
  406748:	47b0      	blx	r6
static void task_water_cicles(void *pvParameters){
  40674a:	f04f 0b00 	mov.w	fp, #0
		if( xSemaphoreTake(xSemaphoreWater, ( TickType_t ) 50) == pdTRUE)
  40674e:	4623      	mov	r3, r4
  406750:	2232      	movs	r2, #50	; 0x32
  406752:	4621      	mov	r1, r4
  406754:	f8da 0000 	ldr.w	r0, [sl]
  406758:	47a8      	blx	r5
  40675a:	2801      	cmp	r0, #1
			cicles = cicles + 1;
  40675c:	bf08      	it	eq
  40675e:	f10b 0b01 	addeq.w	fp, fp, #1
		if( xSemaphoreTake(xSemaphoreCounter, ( TickType_t ) 5) == pdTRUE){
  406762:	4623      	mov	r3, r4
  406764:	2205      	movs	r2, #5
  406766:	4621      	mov	r1, r4
  406768:	4811      	ldr	r0, [pc, #68]	; (4067b0 <task_water_cicles+0xc0>)
  40676a:	6800      	ldr	r0, [r0, #0]
  40676c:	47a8      	blx	r5
  40676e:	2801      	cmp	r0, #1
  406770:	d1ed      	bne.n	40674e <task_water_cicles+0x5e>
			if(cicles <= 16){
  406772:	f1bb 0f10 	cmp.w	fp, #16
  406776:	ddd6      	ble.n	406726 <task_water_cicles+0x36>
				water_flow = 7.2727 * cicles + 3.63636;
  406778:	4658      	mov	r0, fp
  40677a:	4b14      	ldr	r3, [pc, #80]	; (4067cc <task_water_cicles+0xdc>)
  40677c:	4798      	blx	r3
  40677e:	4642      	mov	r2, r8
  406780:	464b      	mov	r3, r9
  406782:	4e13      	ldr	r6, [pc, #76]	; (4067d0 <task_water_cicles+0xe0>)
  406784:	47b0      	blx	r6
  406786:	a306      	add	r3, pc, #24	; (adr r3, 4067a0 <task_water_cicles+0xb0>)
  406788:	e9d3 2300 	ldrd	r2, r3, [r3]
  40678c:	4e11      	ldr	r6, [pc, #68]	; (4067d4 <task_water_cicles+0xe4>)
  40678e:	47b0      	blx	r6
  406790:	4b11      	ldr	r3, [pc, #68]	; (4067d8 <task_water_cicles+0xe8>)
  406792:	4798      	blx	r3
  406794:	4606      	mov	r6, r0
  406796:	e7c7      	b.n	406728 <task_water_cicles+0x38>
  406798:	ab367a10 	.word	0xab367a10
  40679c:	401d173e 	.word	0x401d173e
  4067a0:	e963dc48 	.word	0xe963dc48
  4067a4:	400d1743 	.word	0x400d1743
  4067a8:	00400d85 	.word	0x00400d85
  4067ac:	2040cf94 	.word	0x2040cf94
  4067b0:	2040cf6c 	.word	0x2040cf6c
  4067b4:	00406449 	.word	0x00406449
  4067b8:	004011c5 	.word	0x004011c5
  4067bc:	00406541 	.word	0x00406541
  4067c0:	00407999 	.word	0x00407999
  4067c4:	2040cfa8 	.word	0x2040cfa8
  4067c8:	00400e01 	.word	0x00400e01
  4067cc:	00406f85 	.word	0x00406f85
  4067d0:	00407051 	.word	0x00407051
  4067d4:	00406ced 	.word	0x00406ced
  4067d8:	00407475 	.word	0x00407475

004067dc <task_hc04_A>:
static void task_hc04_A(void *pvParameters){
  4067dc:	e92d 4ed0 	stmdb	sp!, {r4, r6, r7, r9, sl, fp, lr}
  4067e0:	ed2d 8b02 	vpush	{d8}
  4067e4:	b0a5      	sub	sp, #148	; 0x94
	xSemaphoreCounter2 = xSemaphoreCreateBinary();
  4067e6:	2203      	movs	r2, #3
  4067e8:	2100      	movs	r1, #0
  4067ea:	2001      	movs	r0, #1
  4067ec:	4c2c      	ldr	r4, [pc, #176]	; (4068a0 <task_hc04_A+0xc4>)
  4067ee:	47a0      	blx	r4
  4067f0:	4b2c      	ldr	r3, [pc, #176]	; (4068a4 <task_hc04_A+0xc8>)
  4067f2:	6018      	str	r0, [r3, #0]
	hc04_A_EchoQueue = xQueueCreate( 1, sizeof( float ) );
  4067f4:	2200      	movs	r2, #0
  4067f6:	2104      	movs	r1, #4
  4067f8:	2001      	movs	r0, #1
  4067fa:	47a0      	blx	r4
  4067fc:	4b2a      	ldr	r3, [pc, #168]	; (4068a8 <task_hc04_A+0xcc>)
  4067fe:	6018      	str	r0, [r3, #0]
	TC_init0(TIMER_A, TIMER_ID_A, TIMER_CHANNEL_A, TIMER_FREQ_A);
  406800:	232a      	movs	r3, #42	; 0x2a
  406802:	2201      	movs	r2, #1
  406804:	2118      	movs	r1, #24
  406806:	4829      	ldr	r0, [pc, #164]	; (4068ac <task_hc04_A+0xd0>)
  406808:	4c29      	ldr	r4, [pc, #164]	; (4068b0 <task_hc04_A+0xd4>)
  40680a:	47a0      	blx	r4
		signal_trigger();
  40680c:	f8df a0d8 	ldr.w	sl, [pc, #216]	; 4068e8 <task_hc04_A+0x10c>
		if( xQueueReceive(hc04_A_EchoQueue, &ts, ( TickType_t ) 100 / portTICK_PERIOD_MS) == pdTRUE ){
  406810:	f8df 9094 	ldr.w	r9, [pc, #148]	; 4068a8 <task_hc04_A+0xcc>
	return(ts * SOUND_SPEED_MS/2);
  406814:	2600      	movs	r6, #0
  406816:	4f27      	ldr	r7, [pc, #156]	; (4068b4 <task_hc04_A+0xd8>)
			int water_level = (int) (45 - (dm*100));
  406818:	eddf 8a27 	vldr	s17, [pc, #156]	; 4068b8 <task_hc04_A+0xdc>
  40681c:	ed9f 8a27 	vldr	s16, [pc, #156]	; 4068bc <task_hc04_A+0xe0>
  406820:	e003      	b.n	40682a <task_hc04_A+0x4e>
		vTaskDelay(500 / portTICK_PERIOD_MS);
  406822:	f44f 70fa 	mov.w	r0, #500	; 0x1f4
  406826:	4b26      	ldr	r3, [pc, #152]	; (4068c0 <task_hc04_A+0xe4>)
  406828:	4798      	blx	r3
		signal_trigger();
  40682a:	47d0      	blx	sl
		if( xQueueReceive(hc04_A_EchoQueue, &ts, ( TickType_t ) 100 / portTICK_PERIOD_MS) == pdTRUE ){
  40682c:	2300      	movs	r3, #0
  40682e:	2264      	movs	r2, #100	; 0x64
  406830:	a911      	add	r1, sp, #68	; 0x44
  406832:	f8d9 0000 	ldr.w	r0, [r9]
  406836:	4c23      	ldr	r4, [pc, #140]	; (4068c4 <task_hc04_A+0xe8>)
  406838:	47a0      	blx	r4
  40683a:	2801      	cmp	r0, #1
  40683c:	d1f1      	bne.n	406822 <task_hc04_A+0x46>
			float dm = calc_distance_m(ts);
  40683e:	f8dd b044 	ldr.w	fp, [sp, #68]	; 0x44
			if( xSemaphoreTake(xSemaphoreCounter2, ( TickType_t ) 5) == pdTRUE){
  406842:	2300      	movs	r3, #0
  406844:	2205      	movs	r2, #5
  406846:	4619      	mov	r1, r3
  406848:	4816      	ldr	r0, [pc, #88]	; (4068a4 <task_hc04_A+0xc8>)
  40684a:	6800      	ldr	r0, [r0, #0]
  40684c:	47a0      	blx	r4
  40684e:	2801      	cmp	r0, #1
  406850:	d1e7      	bne.n	406822 <task_hc04_A+0x46>
				get_time(&timestamp);
  406852:	a801      	add	r0, sp, #4
  406854:	4b1c      	ldr	r3, [pc, #112]	; (4068c8 <task_hc04_A+0xec>)
  406856:	4798      	blx	r3
				data.id = 1;
  406858:	2301      	movs	r3, #1
  40685a:	9312      	str	r3, [sp, #72]	; 0x48
	return(ts * SOUND_SPEED_MS/2);
  40685c:	4658      	mov	r0, fp
  40685e:	4b1b      	ldr	r3, [pc, #108]	; (4068cc <task_hc04_A+0xf0>)
  406860:	4798      	blx	r3
  406862:	4c1b      	ldr	r4, [pc, #108]	; (4068d0 <task_hc04_A+0xf4>)
  406864:	4632      	mov	r2, r6
  406866:	463b      	mov	r3, r7
  406868:	47a0      	blx	r4
  40686a:	2200      	movs	r2, #0
  40686c:	4b19      	ldr	r3, [pc, #100]	; (4068d4 <task_hc04_A+0xf8>)
  40686e:	47a0      	blx	r4
  406870:	4b19      	ldr	r3, [pc, #100]	; (4068d8 <task_hc04_A+0xfc>)
  406872:	4798      	blx	r3
			int water_level = (int) (45 - (dm*100));
  406874:	ee07 0a90 	vmov	s15, r0
  406878:	ee67 7aa8 	vmul.f32	s15, s15, s17
  40687c:	ee78 7a67 	vsub.f32	s15, s16, s15
  406880:	eefd 7ae7 	vcvt.s32.f32	s15, s15
  406884:	edcd 7a13 	vstr	s15, [sp, #76]	; 0x4c
				strcpy(data.timestamp, timestamp);
  406888:	a901      	add	r1, sp, #4
  40688a:	a814      	add	r0, sp, #80	; 0x50
  40688c:	4b13      	ldr	r3, [pc, #76]	; (4068dc <task_hc04_A+0x100>)
  40688e:	4798      	blx	r3
				xQueueSend( xQueueData, &data, 0);
  406890:	2300      	movs	r3, #0
  406892:	461a      	mov	r2, r3
  406894:	a912      	add	r1, sp, #72	; 0x48
  406896:	4812      	ldr	r0, [pc, #72]	; (4068e0 <task_hc04_A+0x104>)
  406898:	6800      	ldr	r0, [r0, #0]
  40689a:	4c12      	ldr	r4, [pc, #72]	; (4068e4 <task_hc04_A+0x108>)
  40689c:	47a0      	blx	r4
  40689e:	e7c0      	b.n	406822 <task_hc04_A+0x46>
  4068a0:	00400d85 	.word	0x00400d85
  4068a4:	2040cf74 	.word	0x2040cf74
  4068a8:	2040cf8c 	.word	0x2040cf8c
  4068ac:	4000c000 	.word	0x4000c000
  4068b0:	004063cd 	.word	0x004063cd
  4068b4:	40754000 	.word	0x40754000
  4068b8:	42c80000 	.word	0x42c80000
  4068bc:	42340000 	.word	0x42340000
  4068c0:	004019ed 	.word	0x004019ed
  4068c4:	004011c5 	.word	0x004011c5
  4068c8:	00406541 	.word	0x00406541
  4068cc:	00406fa9 	.word	0x00406fa9
  4068d0:	00407051 	.word	0x00407051
  4068d4:	3fe00000 	.word	0x3fe00000
  4068d8:	004074c5 	.word	0x004074c5
  4068dc:	00407999 	.word	0x00407999
  4068e0:	2040cfa8 	.word	0x2040cfa8
  4068e4:	00400e01 	.word	0x00400e01
  4068e8:	0040650d 	.word	0x0040650d

004068ec <inet_aton>:
 {
  4068ec:	b4f0      	push	{r4, r5, r6, r7}
  4068ee:	3801      	subs	r0, #1
	 register u_long acc = 0, addr = 0;
  4068f0:	2400      	movs	r4, #0
  4068f2:	4622      	mov	r2, r4
	 int dots = 0;
  4068f4:	4625      	mov	r5, r4
			 acc = 0;
  4068f6:	4626      	mov	r6, r4
  4068f8:	e011      	b.n	40691e <inet_aton+0x32>
		 switch (cc) {
  4068fa:	f1a3 0730 	sub.w	r7, r3, #48	; 0x30
  4068fe:	2f09      	cmp	r7, #9
  406900:	d814      	bhi.n	40692c <inet_aton+0x40>
			 acc = acc * 10 + (cc - '0');
  406902:	eb02 0282 	add.w	r2, r2, r2, lsl #2
  406906:	eb07 0242 	add.w	r2, r7, r2, lsl #1
			 break;
  40690a:	e007      	b.n	40691c <inet_aton+0x30>
			 if (++dots > 3) {
  40690c:	3501      	adds	r5, #1
  40690e:	2d03      	cmp	r5, #3
  406910:	dc24      	bgt.n	40695c <inet_aton+0x70>
			 if (acc > 255) {
  406912:	2aff      	cmp	r2, #255	; 0xff
  406914:	d824      	bhi.n	406960 <inet_aton+0x74>
			 addr = addr << 8 | acc;
  406916:	ea42 2404 	orr.w	r4, r2, r4, lsl #8
			 acc = 0;
  40691a:	4632      	mov	r2, r6
	 } while (*cp++) ;
  40691c:	b14b      	cbz	r3, 406932 <inet_aton+0x46>
		 register char cc = *cp;
  40691e:	f810 3f01 	ldrb.w	r3, [r0, #1]!
		 switch (cc) {
  406922:	2b2e      	cmp	r3, #46	; 0x2e
  406924:	d0f2      	beq.n	40690c <inet_aton+0x20>
  406926:	d8e8      	bhi.n	4068fa <inet_aton+0xe>
  406928:	2b00      	cmp	r3, #0
  40692a:	d0f2      	beq.n	406912 <inet_aton+0x26>
			 return 0;
  40692c:	2000      	movs	r0, #0
 }
  40692e:	bcf0      	pop	{r4, r5, r6, r7}
  406930:	4770      	bx	lr
	 if (dots < 3) {
  406932:	2d02      	cmp	r5, #2
  406934:	dc03      	bgt.n	40693e <inet_aton+0x52>
		 addr <<= 8 * (3 - dots) ;
  406936:	f1c5 0303 	rsb	r3, r5, #3
  40693a:	00db      	lsls	r3, r3, #3
  40693c:	409c      	lsls	r4, r3
	 if (ap) {
  40693e:	b189      	cbz	r1, 406964 <inet_aton+0x78>
		 ap->s_addr = _htonl(addr);
  406940:	0e23      	lsrs	r3, r4, #24
  406942:	ea43 6304 	orr.w	r3, r3, r4, lsl #24
  406946:	0222      	lsls	r2, r4, #8
  406948:	f402 027f 	and.w	r2, r2, #16711680	; 0xff0000
  40694c:	431a      	orrs	r2, r3
  40694e:	0a23      	lsrs	r3, r4, #8
  406950:	f403 437f 	and.w	r3, r3, #65280	; 0xff00
  406954:	4313      	orrs	r3, r2
  406956:	600b      	str	r3, [r1, #0]
	 return 1;
  406958:	2001      	movs	r0, #1
  40695a:	e7e8      	b.n	40692e <inet_aton+0x42>
				 return 0;
  40695c:	2000      	movs	r0, #0
  40695e:	e7e6      	b.n	40692e <inet_aton+0x42>
				 return 0;
  406960:	2000      	movs	r0, #0
  406962:	e7e4      	b.n	40692e <inet_aton+0x42>
	 return 1;
  406964:	2001      	movs	r0, #1
  406966:	e7e2      	b.n	40692e <inet_aton+0x42>

00406968 <task_wifi>:
		 printf(szList);
		 vTaskDelay(1000);
	 }
 }

 static void task_wifi(void *pvParameters) {
  406968:	b5f0      	push	{r4, r5, r6, r7, lr}
  40696a:	b09f      	sub	sp, #124	; 0x7c
	 
	 
	 xQueueData = xQueueCreate( 10, sizeof( sensorData ) );
  40696c:	2200      	movs	r2, #0
  40696e:	2148      	movs	r1, #72	; 0x48
  406970:	200a      	movs	r0, #10
  406972:	4b40      	ldr	r3, [pc, #256]	; (406a74 <task_wifi+0x10c>)
  406974:	4798      	blx	r3
  406976:	4b40      	ldr	r3, [pc, #256]	; (406a78 <task_wifi+0x110>)
  406978:	6018      	str	r0, [r3, #0]
	 uint8_t mac_addr[6];
	 uint8_t u8IsMacAddrValid;
	 struct sockaddr_in addr_in;
	 
	 /* Initialize the BSP. */
	 nm_bsp_init();
  40697a:	4b40      	ldr	r3, [pc, #256]	; (406a7c <task_wifi+0x114>)
  40697c:	4798      	blx	r3
	 
	 /* Initialize Wi-Fi parameters structure. */
	 memset((uint8_t *)&param, 0, sizeof(tstrWifiInitParam));
  40697e:	2300      	movs	r3, #0
  406980:	9307      	str	r3, [sp, #28]
  406982:	9308      	str	r3, [sp, #32]
  406984:	9309      	str	r3, [sp, #36]	; 0x24
  406986:	930a      	str	r3, [sp, #40]	; 0x28
  406988:	930b      	str	r3, [sp, #44]	; 0x2c

	 /* Initialize Wi-Fi driver with data and status callbacks. */
	 param.pfAppWifiCb = wifi_cb;
  40698a:	4b3d      	ldr	r3, [pc, #244]	; (406a80 <task_wifi+0x118>)
  40698c:	9306      	str	r3, [sp, #24]
	 ret = m2m_wifi_init(&param);
  40698e:	a806      	add	r0, sp, #24
  406990:	4b3c      	ldr	r3, [pc, #240]	; (406a84 <task_wifi+0x11c>)
  406992:	4798      	blx	r3
	 if (M2M_SUCCESS != ret) {
  406994:	b120      	cbz	r0, 4069a0 <task_wifi+0x38>
  406996:	4601      	mov	r1, r0
		 printf("main: m2m_wifi_init call error!(%d)\r\n", ret);
  406998:	483b      	ldr	r0, [pc, #236]	; (406a88 <task_wifi+0x120>)
  40699a:	4b3c      	ldr	r3, [pc, #240]	; (406a8c <task_wifi+0x124>)
  40699c:	4798      	blx	r3
  40699e:	e7fe      	b.n	40699e <task_wifi+0x36>
			 
		 }
	 }
	 
	 /* Initialize socket module. */
	 socketInit();
  4069a0:	4b3b      	ldr	r3, [pc, #236]	; (406a90 <task_wifi+0x128>)
  4069a2:	4798      	blx	r3

	 /* Register socket callback function. */
	 registerSocketCallback(socket_cb, resolve_cb);
  4069a4:	493b      	ldr	r1, [pc, #236]	; (406a94 <task_wifi+0x12c>)
  4069a6:	483c      	ldr	r0, [pc, #240]	; (406a98 <task_wifi+0x130>)
  4069a8:	4b3c      	ldr	r3, [pc, #240]	; (406a9c <task_wifi+0x134>)
  4069aa:	4798      	blx	r3

	 /* Connect to router. */
	 printf("main: connecting to WiFi AP %s...\r\n", (char *)MAIN_WLAN_SSID);
  4069ac:	4d3c      	ldr	r5, [pc, #240]	; (406aa0 <task_wifi+0x138>)
  4069ae:	4629      	mov	r1, r5
  4069b0:	483c      	ldr	r0, [pc, #240]	; (406aa4 <task_wifi+0x13c>)
  4069b2:	4c36      	ldr	r4, [pc, #216]	; (406a8c <task_wifi+0x124>)
  4069b4:	47a0      	blx	r4
	 m2m_wifi_connect((char *)MAIN_WLAN_SSID, sizeof(MAIN_WLAN_SSID), MAIN_WLAN_AUTH, (char *)MAIN_WLAN_PSK, M2M_WIFI_CH_ALL);
  4069b6:	23ff      	movs	r3, #255	; 0xff
  4069b8:	9300      	str	r3, [sp, #0]
  4069ba:	4b3b      	ldr	r3, [pc, #236]	; (406aa8 <task_wifi+0x140>)
  4069bc:	2202      	movs	r2, #2
  4069be:	2104      	movs	r1, #4
  4069c0:	4628      	mov	r0, r5
  4069c2:	4d3a      	ldr	r5, [pc, #232]	; (406aac <task_wifi+0x144>)
  4069c4:	47a8      	blx	r5

	 addr_in.sin_family = AF_INET;
  4069c6:	2302      	movs	r3, #2
  4069c8:	f8ad 3008 	strh.w	r3, [sp, #8]
	 addr_in.sin_port = _htons(MAIN_SERVER_PORT);
  4069cc:	f648 0313 	movw	r3, #34835	; 0x8813
  4069d0:	f8ad 300a 	strh.w	r3, [sp, #10]
	 inet_aton(MAIN_SERVER_NAME, &addr_in.sin_addr);
  4069d4:	a903      	add	r1, sp, #12
  4069d6:	4836      	ldr	r0, [pc, #216]	; (406ab0 <task_wifi+0x148>)
  4069d8:	4b36      	ldr	r3, [pc, #216]	; (406ab4 <task_wifi+0x14c>)
  4069da:	4798      	blx	r3
	 printf("Inet aton : %d", addr_in.sin_addr);
  4069dc:	9903      	ldr	r1, [sp, #12]
  4069de:	4836      	ldr	r0, [pc, #216]	; (406ab8 <task_wifi+0x150>)
  4069e0:	47a0      	blx	r4
	 
	 while(1){
		 if (xQueueReceive( xQueueData, &(data), ( TickType_t )  500 / portTICK_PERIOD_MS)) {
  4069e2:	4e25      	ldr	r6, [pc, #148]	; (406a78 <task_wifi+0x110>)
  4069e4:	4d35      	ldr	r5, [pc, #212]	; (406abc <task_wifi+0x154>)
  4069e6:	2400      	movs	r4, #0
  4069e8:	e002      	b.n	4069f0 <task_wifi+0x88>
				 /* Open client socket. */
				 if (tcp_client_socket < 0) {
					 //printf("socket init \n");
					 //printf("\n%d/%d/%d, The GMT time is %u:%02u:%02u\r\n", day, month, year, hour, minute, second);
					 if ((tcp_client_socket = socket(AF_INET, SOCK_STREAM, 0)) < 0) {
						 printf("main: failed to create TCP client socket error!\r\n");
  4069ea:	4835      	ldr	r0, [pc, #212]	; (406ac0 <task_wifi+0x158>)
  4069ec:	4b27      	ldr	r3, [pc, #156]	; (406a8c <task_wifi+0x124>)
  4069ee:	4798      	blx	r3
		 if (xQueueReceive( xQueueData, &(data), ( TickType_t )  500 / portTICK_PERIOD_MS)) {
  4069f0:	4623      	mov	r3, r4
  4069f2:	f44f 72fa 	mov.w	r2, #500	; 0x1f4
  4069f6:	a90c      	add	r1, sp, #48	; 0x30
  4069f8:	6830      	ldr	r0, [r6, #0]
  4069fa:	47a8      	blx	r5
  4069fc:	2800      	cmp	r0, #0
  4069fe:	d0f7      	beq.n	4069f0 <task_wifi+0x88>
			id = data.id;
  406a00:	9a0c      	ldr	r2, [sp, #48]	; 0x30
  406a02:	4b30      	ldr	r3, [pc, #192]	; (406ac4 <task_wifi+0x15c>)
  406a04:	601a      	str	r2, [r3, #0]
			value = data.value;
  406a06:	9a0d      	ldr	r2, [sp, #52]	; 0x34
  406a08:	4b2f      	ldr	r3, [pc, #188]	; (406ac8 <task_wifi+0x160>)
  406a0a:	601a      	str	r2, [r3, #0]
			strcpy(data.timestamp, timestamp);
  406a0c:	492f      	ldr	r1, [pc, #188]	; (406acc <task_wifi+0x164>)
  406a0e:	a80e      	add	r0, sp, #56	; 0x38
  406a10:	4b2f      	ldr	r3, [pc, #188]	; (406ad0 <task_wifi+0x168>)
  406a12:	4798      	blx	r3
			 m2m_wifi_handle_events(NULL);
  406a14:	4620      	mov	r0, r4
  406a16:	4b2f      	ldr	r3, [pc, #188]	; (406ad4 <task_wifi+0x16c>)
  406a18:	4798      	blx	r3
			 if (wifi_connected == M2M_WIFI_CONNECTED) {
  406a1a:	4b2f      	ldr	r3, [pc, #188]	; (406ad8 <task_wifi+0x170>)
  406a1c:	781b      	ldrb	r3, [r3, #0]
  406a1e:	2b01      	cmp	r3, #1
  406a20:	d1e6      	bne.n	4069f0 <task_wifi+0x88>
				 if (tcp_client_socket < 0) {
  406a22:	4b2e      	ldr	r3, [pc, #184]	; (406adc <task_wifi+0x174>)
  406a24:	f993 3000 	ldrsb.w	r3, [r3]
  406a28:	2b00      	cmp	r3, #0
  406a2a:	dae1      	bge.n	4069f0 <task_wifi+0x88>
					 if ((tcp_client_socket = socket(AF_INET, SOCK_STREAM, 0)) < 0) {
  406a2c:	4622      	mov	r2, r4
  406a2e:	2101      	movs	r1, #1
  406a30:	2002      	movs	r0, #2
  406a32:	4b2b      	ldr	r3, [pc, #172]	; (406ae0 <task_wifi+0x178>)
  406a34:	4798      	blx	r3
  406a36:	4b29      	ldr	r3, [pc, #164]	; (406adc <task_wifi+0x174>)
  406a38:	7018      	strb	r0, [r3, #0]
  406a3a:	2800      	cmp	r0, #0
  406a3c:	dbd5      	blt.n	4069ea <task_wifi+0x82>
						 continue;
					 }

					 /* Connect server */
					 printf("\nsocket connecting\n");
  406a3e:	4829      	ldr	r0, [pc, #164]	; (406ae4 <task_wifi+0x17c>)
  406a40:	4b12      	ldr	r3, [pc, #72]	; (406a8c <task_wifi+0x124>)
  406a42:	4798      	blx	r3
				 
					 if (connect(tcp_client_socket, (struct sockaddr *)&addr_in, sizeof(struct sockaddr_in)) != SOCK_ERR_NO_ERROR) {
  406a44:	2210      	movs	r2, #16
  406a46:	a902      	add	r1, sp, #8
  406a48:	4b24      	ldr	r3, [pc, #144]	; (406adc <task_wifi+0x174>)
  406a4a:	f993 0000 	ldrsb.w	r0, [r3]
  406a4e:	4b26      	ldr	r3, [pc, #152]	; (406ae8 <task_wifi+0x180>)
  406a50:	4798      	blx	r3
  406a52:	b918      	cbnz	r0, 406a5c <task_wifi+0xf4>
						 close(tcp_client_socket);
						 tcp_client_socket = -1;
						 printf("error\n");
						 }else{
						 gbTcpConnection = true;
  406a54:	2201      	movs	r2, #1
  406a56:	4b25      	ldr	r3, [pc, #148]	; (406aec <task_wifi+0x184>)
  406a58:	701a      	strb	r2, [r3, #0]
  406a5a:	e7c9      	b.n	4069f0 <task_wifi+0x88>
						 close(tcp_client_socket);
  406a5c:	4f1f      	ldr	r7, [pc, #124]	; (406adc <task_wifi+0x174>)
  406a5e:	f997 0000 	ldrsb.w	r0, [r7]
  406a62:	4b23      	ldr	r3, [pc, #140]	; (406af0 <task_wifi+0x188>)
  406a64:	4798      	blx	r3
						 tcp_client_socket = -1;
  406a66:	23ff      	movs	r3, #255	; 0xff
  406a68:	703b      	strb	r3, [r7, #0]
						 printf("error\n");
  406a6a:	4822      	ldr	r0, [pc, #136]	; (406af4 <task_wifi+0x18c>)
  406a6c:	4b07      	ldr	r3, [pc, #28]	; (406a8c <task_wifi+0x124>)
  406a6e:	4798      	blx	r3
  406a70:	e7be      	b.n	4069f0 <task_wifi+0x88>
  406a72:	bf00      	nop
  406a74:	00400d85 	.word	0x00400d85
  406a78:	2040cfa8 	.word	0x2040cfa8
  406a7c:	004024c5 	.word	0x004024c5
  406a80:	00406169 	.word	0x00406169
  406a84:	00403305 	.word	0x00403305
  406a88:	0040e110 	.word	0x0040e110
  406a8c:	004075b5 	.word	0x004075b5
  406a90:	00404ab5 	.word	0x00404ab5
  406a94:	00405d55 	.word	0x00405d55
  406a98:	00405f85 	.word	0x00405f85
  406a9c:	00404af9 	.word	0x00404af9
  406aa0:	0040e138 	.word	0x0040e138
  406aa4:	0040e13c 	.word	0x0040e13c
  406aa8:	0040e160 	.word	0x0040e160
  406aac:	0040365d 	.word	0x0040365d
  406ab0:	0040e16c 	.word	0x0040e16c
  406ab4:	004068ed 	.word	0x004068ed
  406ab8:	0040e17c 	.word	0x0040e17c
  406abc:	004011c5 	.word	0x004011c5
  406ac0:	0040e18c 	.word	0x0040e18c
  406ac4:	2040cf84 	.word	0x2040cf84
  406ac8:	2040cfac 	.word	0x2040cfac
  406acc:	2040cf2c 	.word	0x2040cf2c
  406ad0:	00407999 	.word	0x00407999
  406ad4:	00403401 	.word	0x00403401
  406ad8:	2040cd58 	.word	0x2040cd58
  406adc:	20400024 	.word	0x20400024
  406ae0:	00404b0d 	.word	0x00404b0d
  406ae4:	0040e1c0 	.word	0x0040e1c0
  406ae8:	00404bed 	.word	0x00404bed
  406aec:	2040cd4c 	.word	0x2040cd4c
  406af0:	00404db9 	.word	0x00404db9
  406af4:	0040e1d4 	.word	0x0040e1d4

00406af8 <main>:
 * Initialize system, UART console, network then start weather client.
 *
 * \return Program return value.
 */
 int main(void)
 {
  406af8:	b500      	push	{lr}
  406afa:	b08b      	sub	sp, #44	; 0x2c
	 /* Initialize the board. */
	 sysclk_init();
  406afc:	4b54      	ldr	r3, [pc, #336]	; (406c50 <main+0x158>)
  406afe:	4798      	blx	r3
	 board_init();
  406b00:	4b54      	ldr	r3, [pc, #336]	; (406c54 <main+0x15c>)
  406b02:	4798      	blx	r3
 *
 * \param ul_id Id (number) of the peripheral clock.
 */
static inline void sysclk_enable_peripheral_clock(uint32_t ul_id)
{
	pmc_enable_periph_clk(ul_id);
  406b04:	200e      	movs	r0, #14
  406b06:	4e54      	ldr	r6, [pc, #336]	; (406c58 <main+0x160>)
  406b08:	47b0      	blx	r6
 * \param opt         Options needed to set up RS232 communication (see \ref usart_options_t).
 *
 */
static inline void stdio_serial_init(volatile void *usart, const usart_serial_options_t *opt)
{
	stdio_base = (void *)usart;
  406b0a:	4d54      	ldr	r5, [pc, #336]	; (406c5c <main+0x164>)
  406b0c:	4b54      	ldr	r3, [pc, #336]	; (406c60 <main+0x168>)
  406b0e:	601d      	str	r5, [r3, #0]
	ptr_put = (int (*)(void volatile*,char))&usart_serial_putchar;
  406b10:	4a54      	ldr	r2, [pc, #336]	; (406c64 <main+0x16c>)
  406b12:	4b55      	ldr	r3, [pc, #340]	; (406c68 <main+0x170>)
  406b14:	601a      	str	r2, [r3, #0]
	ptr_get = (void (*)(void volatile*,char*))&usart_serial_getchar;
  406b16:	4a55      	ldr	r2, [pc, #340]	; (406c6c <main+0x174>)
  406b18:	4b55      	ldr	r3, [pc, #340]	; (406c70 <main+0x178>)
  406b1a:	601a      	str	r2, [r3, #0]
	usart_settings.baudrate = opt->baudrate;
  406b1c:	f44f 33e1 	mov.w	r3, #115200	; 0x1c200
  406b20:	9304      	str	r3, [sp, #16]
	usart_settings.char_length = opt->charlength;
  406b22:	23c0      	movs	r3, #192	; 0xc0
  406b24:	9305      	str	r3, [sp, #20]
	usart_settings.parity_type = opt->paritytype;
  406b26:	f44f 6300 	mov.w	r3, #2048	; 0x800
  406b2a:	9306      	str	r3, [sp, #24]
	usart_settings.stop_bits= opt->stopbits;
  406b2c:	2400      	movs	r4, #0
  406b2e:	9407      	str	r4, [sp, #28]
	usart_settings.channel_mode= US_MR_CHMODE_NORMAL;
  406b30:	9408      	str	r4, [sp, #32]
  406b32:	200e      	movs	r0, #14
  406b34:	47b0      	blx	r6
		usart_init_rs232(p_usart, &usart_settings,
  406b36:	4a4f      	ldr	r2, [pc, #316]	; (406c74 <main+0x17c>)
  406b38:	a904      	add	r1, sp, #16
  406b3a:	4628      	mov	r0, r5
  406b3c:	4b4e      	ldr	r3, [pc, #312]	; (406c78 <main+0x180>)
  406b3e:	4798      	blx	r3
		usart_enable_tx(p_usart);
  406b40:	4628      	mov	r0, r5
  406b42:	4b4e      	ldr	r3, [pc, #312]	; (406c7c <main+0x184>)
  406b44:	4798      	blx	r3
		usart_enable_rx(p_usart);
  406b46:	4628      	mov	r0, r5
  406b48:	4b4d      	ldr	r3, [pc, #308]	; (406c80 <main+0x188>)
  406b4a:	4798      	blx	r3
	fdevopen((int (*)(char, FILE*))(_write),(int (*)(FILE*))(_read));
#  endif
#  if UC3 || SAM
	// For AVR32 and SAM GCC
	// Specify that stdout and stdin should not be buffered.
	setbuf(stdout, NULL);
  406b4c:	4e4d      	ldr	r6, [pc, #308]	; (406c84 <main+0x18c>)
  406b4e:	6833      	ldr	r3, [r6, #0]
  406b50:	4621      	mov	r1, r4
  406b52:	6898      	ldr	r0, [r3, #8]
  406b54:	4d4c      	ldr	r5, [pc, #304]	; (406c88 <main+0x190>)
  406b56:	47a8      	blx	r5
	setbuf(stdin, NULL);
  406b58:	6833      	ldr	r3, [r6, #0]
  406b5a:	4621      	mov	r1, r4
  406b5c:	6858      	ldr	r0, [r3, #4]
  406b5e:	47a8      	blx	r5

	 /* Initialize the UART console. */
	 configure_console();
	 RTC_init();
  406b60:	4b4a      	ldr	r3, [pc, #296]	; (406c8c <main+0x194>)
  406b62:	4798      	blx	r3
	 
	 printf(STRING_HEADER);
  406b64:	484a      	ldr	r0, [pc, #296]	; (406c90 <main+0x198>)
  406b66:	4b4b      	ldr	r3, [pc, #300]	; (406c94 <main+0x19c>)
  406b68:	4798      	blx	r3
	 
	 
	/* Create task to run the hc04_A sensor*/
	if (xTaskCreate(task_hc04_A, "hc04_A", TASK_UARTTX_STACK_SIZE, NULL,
  406b6a:	9403      	str	r4, [sp, #12]
  406b6c:	9402      	str	r4, [sp, #8]
  406b6e:	9401      	str	r4, [sp, #4]
  406b70:	9400      	str	r4, [sp, #0]
  406b72:	4623      	mov	r3, r4
  406b74:	f44f 7200 	mov.w	r2, #512	; 0x200
  406b78:	4947      	ldr	r1, [pc, #284]	; (406c98 <main+0x1a0>)
  406b7a:	4848      	ldr	r0, [pc, #288]	; (406c9c <main+0x1a4>)
  406b7c:	4c48      	ldr	r4, [pc, #288]	; (406ca0 <main+0x1a8>)
  406b7e:	47a0      	blx	r4
  406b80:	2801      	cmp	r0, #1
  406b82:	d002      	beq.n	406b8a <main+0x92>
	TASK_UARTTX_STACK_PRIORITY, NULL) != pdPASS) {
		printf("Failed to create UartTx task\r\n");
  406b84:	4847      	ldr	r0, [pc, #284]	; (406ca4 <main+0x1ac>)
  406b86:	4b43      	ldr	r3, [pc, #268]	; (406c94 <main+0x19c>)
  406b88:	4798      	blx	r3
	}
	 	
	if (xTaskCreate(task_water_cicles, "cicles", TASK_UARTTX_STACK_SIZE, NULL,
  406b8a:	2300      	movs	r3, #0
  406b8c:	9303      	str	r3, [sp, #12]
  406b8e:	9302      	str	r3, [sp, #8]
  406b90:	9301      	str	r3, [sp, #4]
  406b92:	9300      	str	r3, [sp, #0]
  406b94:	f44f 7200 	mov.w	r2, #512	; 0x200
  406b98:	4943      	ldr	r1, [pc, #268]	; (406ca8 <main+0x1b0>)
  406b9a:	4844      	ldr	r0, [pc, #272]	; (406cac <main+0x1b4>)
  406b9c:	4c40      	ldr	r4, [pc, #256]	; (406ca0 <main+0x1a8>)
  406b9e:	47a0      	blx	r4
  406ba0:	2801      	cmp	r0, #1
  406ba2:	d002      	beq.n	406baa <main+0xb2>
	TASK_UARTTX_STACK_PRIORITY, NULL) != pdPASS) {
		printf("Failed to create UartTx task\r\n");
  406ba4:	483f      	ldr	r0, [pc, #252]	; (406ca4 <main+0x1ac>)
  406ba6:	4b3b      	ldr	r3, [pc, #236]	; (406c94 <main+0x19c>)
  406ba8:	4798      	blx	r3
	}

	if (xTaskCreate(task_timer, "timer", TASK_UARTTX_STACK_SIZE, NULL,
  406baa:	2300      	movs	r3, #0
  406bac:	9303      	str	r3, [sp, #12]
  406bae:	9302      	str	r3, [sp, #8]
  406bb0:	9301      	str	r3, [sp, #4]
  406bb2:	9300      	str	r3, [sp, #0]
  406bb4:	f44f 7200 	mov.w	r2, #512	; 0x200
  406bb8:	493d      	ldr	r1, [pc, #244]	; (406cb0 <main+0x1b8>)
  406bba:	483e      	ldr	r0, [pc, #248]	; (406cb4 <main+0x1bc>)
  406bbc:	4c38      	ldr	r4, [pc, #224]	; (406ca0 <main+0x1a8>)
  406bbe:	47a0      	blx	r4
  406bc0:	2801      	cmp	r0, #1
  406bc2:	d002      	beq.n	406bca <main+0xd2>
	TASK_UARTTX_STACK_PRIORITY, NULL) != pdPASS) {
		printf("Failed to create UartTx task\r\n");
  406bc4:	4837      	ldr	r0, [pc, #220]	; (406ca4 <main+0x1ac>)
  406bc6:	4b33      	ldr	r3, [pc, #204]	; (406c94 <main+0x19c>)
  406bc8:	4798      	blx	r3
	}
	 	
	if (xTaskCreate(task_timer2, "timer2", TASK_UARTTX_STACK_SIZE, NULL,
  406bca:	2300      	movs	r3, #0
  406bcc:	9303      	str	r3, [sp, #12]
  406bce:	9302      	str	r3, [sp, #8]
  406bd0:	9301      	str	r3, [sp, #4]
  406bd2:	9300      	str	r3, [sp, #0]
  406bd4:	f44f 7200 	mov.w	r2, #512	; 0x200
  406bd8:	4937      	ldr	r1, [pc, #220]	; (406cb8 <main+0x1c0>)
  406bda:	4838      	ldr	r0, [pc, #224]	; (406cbc <main+0x1c4>)
  406bdc:	4c30      	ldr	r4, [pc, #192]	; (406ca0 <main+0x1a8>)
  406bde:	47a0      	blx	r4
  406be0:	2801      	cmp	r0, #1
  406be2:	d002      	beq.n	406bea <main+0xf2>
	TASK_UARTTX_STACK_PRIORITY, NULL) != pdPASS) {
		printf("Failed to create UartTx task\r\n");
  406be4:	482f      	ldr	r0, [pc, #188]	; (406ca4 <main+0x1ac>)
  406be6:	4b2b      	ldr	r3, [pc, #172]	; (406c94 <main+0x19c>)
  406be8:	4798      	blx	r3
	}

	if (xTaskCreate(task_afec, "afec", TASK_UARTTX_STACK_SIZE, NULL,
  406bea:	2300      	movs	r3, #0
  406bec:	9303      	str	r3, [sp, #12]
  406bee:	9302      	str	r3, [sp, #8]
  406bf0:	9301      	str	r3, [sp, #4]
  406bf2:	9300      	str	r3, [sp, #0]
  406bf4:	f44f 7200 	mov.w	r2, #512	; 0x200
  406bf8:	4931      	ldr	r1, [pc, #196]	; (406cc0 <main+0x1c8>)
  406bfa:	4832      	ldr	r0, [pc, #200]	; (406cc4 <main+0x1cc>)
  406bfc:	4c28      	ldr	r4, [pc, #160]	; (406ca0 <main+0x1a8>)
  406bfe:	47a0      	blx	r4
  406c00:	2801      	cmp	r0, #1
  406c02:	d002      	beq.n	406c0a <main+0x112>
	TASK_UARTTX_STACK_PRIORITY, NULL) != pdPASS) {
		printf("Failed to create UartTx task\r\n");
  406c04:	4827      	ldr	r0, [pc, #156]	; (406ca4 <main+0x1ac>)
  406c06:	4b23      	ldr	r3, [pc, #140]	; (406c94 <main+0x19c>)
  406c08:	4798      	blx	r3
	}

	if (xTaskCreate(task_data, "data", TASK_UARTTX_STACK_SIZE, NULL,
  406c0a:	2300      	movs	r3, #0
  406c0c:	9303      	str	r3, [sp, #12]
  406c0e:	9302      	str	r3, [sp, #8]
  406c10:	9301      	str	r3, [sp, #4]
  406c12:	9300      	str	r3, [sp, #0]
  406c14:	f44f 7200 	mov.w	r2, #512	; 0x200
  406c18:	492b      	ldr	r1, [pc, #172]	; (406cc8 <main+0x1d0>)
  406c1a:	482c      	ldr	r0, [pc, #176]	; (406ccc <main+0x1d4>)
  406c1c:	4c20      	ldr	r4, [pc, #128]	; (406ca0 <main+0x1a8>)
  406c1e:	47a0      	blx	r4
  406c20:	2801      	cmp	r0, #1
  406c22:	d002      	beq.n	406c2a <main+0x132>
	TASK_UARTTX_STACK_PRIORITY, NULL) != pdPASS) {
		printf("Failed to create UartTx task\r\n");
  406c24:	481f      	ldr	r0, [pc, #124]	; (406ca4 <main+0x1ac>)
  406c26:	4b1b      	ldr	r3, [pc, #108]	; (406c94 <main+0x19c>)
  406c28:	4798      	blx	r3
	}
	 
	 if (xTaskCreate(task_wifi, "Wifi", TASK_WIFI_STACK_SIZE, NULL,
  406c2a:	2300      	movs	r3, #0
  406c2c:	9303      	str	r3, [sp, #12]
  406c2e:	9302      	str	r3, [sp, #8]
  406c30:	9301      	str	r3, [sp, #4]
  406c32:	9300      	str	r3, [sp, #0]
  406c34:	f44f 6280 	mov.w	r2, #1024	; 0x400
  406c38:	4925      	ldr	r1, [pc, #148]	; (406cd0 <main+0x1d8>)
  406c3a:	4826      	ldr	r0, [pc, #152]	; (406cd4 <main+0x1dc>)
  406c3c:	4c18      	ldr	r4, [pc, #96]	; (406ca0 <main+0x1a8>)
  406c3e:	47a0      	blx	r4
  406c40:	2801      	cmp	r0, #1
  406c42:	d002      	beq.n	406c4a <main+0x152>
	 TASK_WIFI_STACK_PRIORITY, NULL) != pdPASS) {
		 printf("Failed to create Wifi task\r\n");
  406c44:	4824      	ldr	r0, [pc, #144]	; (406cd8 <main+0x1e0>)
  406c46:	4b13      	ldr	r3, [pc, #76]	; (406c94 <main+0x19c>)
  406c48:	4798      	blx	r3
	 }

	 vTaskStartScheduler();
  406c4a:	4b24      	ldr	r3, [pc, #144]	; (406cdc <main+0x1e4>)
  406c4c:	4798      	blx	r3
  406c4e:	e7fe      	b.n	406c4e <main+0x156>
  406c50:	00404f1d 	.word	0x00404f1d
  406c54:	00405019 	.word	0x00405019
  406c58:	00405799 	.word	0x00405799
  406c5c:	40028000 	.word	0x40028000
  406c60:	2040cf20 	.word	0x2040cf20
  406c64:	00405e41 	.word	0x00405e41
  406c68:	2040cf1c 	.word	0x2040cf1c
  406c6c:	00406251 	.word	0x00406251
  406c70:	2040cf18 	.word	0x2040cf18
  406c74:	08f0d180 	.word	0x08f0d180
  406c78:	00405a29 	.word	0x00405a29
  406c7c:	00405a7d 	.word	0x00405a7d
  406c80:	00405a83 	.word	0x00405a83
  406c84:	20400028 	.word	0x20400028
  406c88:	004077ad 	.word	0x004077ad
  406c8c:	00406429 	.word	0x00406429
  406c90:	0040df08 	.word	0x0040df08
  406c94:	004075b5 	.word	0x004075b5
  406c98:	0040df6c 	.word	0x0040df6c
  406c9c:	004067dd 	.word	0x004067dd
  406ca0:	004014a5 	.word	0x004014a5
  406ca4:	0040df74 	.word	0x0040df74
  406ca8:	0040df94 	.word	0x0040df94
  406cac:	004066f1 	.word	0x004066f1
  406cb0:	0040df9c 	.word	0x0040df9c
  406cb4:	00405f4d 	.word	0x00405f4d
  406cb8:	0040dfa4 	.word	0x0040dfa4
  406cbc:	00405f15 	.word	0x00405f15
  406cc0:	0040dfac 	.word	0x0040dfac
  406cc4:	004065d1 	.word	0x004065d1
  406cc8:	0040dfb4 	.word	0x0040dfb4
  406ccc:	00405d51 	.word	0x00405d51
  406cd0:	0040dfbc 	.word	0x0040dfbc
  406cd4:	00406969 	.word	0x00406969
  406cd8:	0040dfc4 	.word	0x0040dfc4
  406cdc:	004016d9 	.word	0x004016d9

00406ce0 <__aeabi_drsub>:
  406ce0:	f081 4100 	eor.w	r1, r1, #2147483648	; 0x80000000
  406ce4:	e002      	b.n	406cec <__adddf3>
  406ce6:	bf00      	nop

00406ce8 <__aeabi_dsub>:
  406ce8:	f083 4300 	eor.w	r3, r3, #2147483648	; 0x80000000

00406cec <__adddf3>:
  406cec:	b530      	push	{r4, r5, lr}
  406cee:	ea4f 0441 	mov.w	r4, r1, lsl #1
  406cf2:	ea4f 0543 	mov.w	r5, r3, lsl #1
  406cf6:	ea94 0f05 	teq	r4, r5
  406cfa:	bf08      	it	eq
  406cfc:	ea90 0f02 	teqeq	r0, r2
  406d00:	bf1f      	itttt	ne
  406d02:	ea54 0c00 	orrsne.w	ip, r4, r0
  406d06:	ea55 0c02 	orrsne.w	ip, r5, r2
  406d0a:	ea7f 5c64 	mvnsne.w	ip, r4, asr #21
  406d0e:	ea7f 5c65 	mvnsne.w	ip, r5, asr #21
  406d12:	f000 80e2 	beq.w	406eda <__adddf3+0x1ee>
  406d16:	ea4f 5454 	mov.w	r4, r4, lsr #21
  406d1a:	ebd4 5555 	rsbs	r5, r4, r5, lsr #21
  406d1e:	bfb8      	it	lt
  406d20:	426d      	neglt	r5, r5
  406d22:	dd0c      	ble.n	406d3e <__adddf3+0x52>
  406d24:	442c      	add	r4, r5
  406d26:	ea80 0202 	eor.w	r2, r0, r2
  406d2a:	ea81 0303 	eor.w	r3, r1, r3
  406d2e:	ea82 0000 	eor.w	r0, r2, r0
  406d32:	ea83 0101 	eor.w	r1, r3, r1
  406d36:	ea80 0202 	eor.w	r2, r0, r2
  406d3a:	ea81 0303 	eor.w	r3, r1, r3
  406d3e:	2d36      	cmp	r5, #54	; 0x36
  406d40:	bf88      	it	hi
  406d42:	bd30      	pophi	{r4, r5, pc}
  406d44:	f011 4f00 	tst.w	r1, #2147483648	; 0x80000000
  406d48:	ea4f 3101 	mov.w	r1, r1, lsl #12
  406d4c:	f44f 1c80 	mov.w	ip, #1048576	; 0x100000
  406d50:	ea4c 3111 	orr.w	r1, ip, r1, lsr #12
  406d54:	d002      	beq.n	406d5c <__adddf3+0x70>
  406d56:	4240      	negs	r0, r0
  406d58:	eb61 0141 	sbc.w	r1, r1, r1, lsl #1
  406d5c:	f013 4f00 	tst.w	r3, #2147483648	; 0x80000000
  406d60:	ea4f 3303 	mov.w	r3, r3, lsl #12
  406d64:	ea4c 3313 	orr.w	r3, ip, r3, lsr #12
  406d68:	d002      	beq.n	406d70 <__adddf3+0x84>
  406d6a:	4252      	negs	r2, r2
  406d6c:	eb63 0343 	sbc.w	r3, r3, r3, lsl #1
  406d70:	ea94 0f05 	teq	r4, r5
  406d74:	f000 80a7 	beq.w	406ec6 <__adddf3+0x1da>
  406d78:	f1a4 0401 	sub.w	r4, r4, #1
  406d7c:	f1d5 0e20 	rsbs	lr, r5, #32
  406d80:	db0d      	blt.n	406d9e <__adddf3+0xb2>
  406d82:	fa02 fc0e 	lsl.w	ip, r2, lr
  406d86:	fa22 f205 	lsr.w	r2, r2, r5
  406d8a:	1880      	adds	r0, r0, r2
  406d8c:	f141 0100 	adc.w	r1, r1, #0
  406d90:	fa03 f20e 	lsl.w	r2, r3, lr
  406d94:	1880      	adds	r0, r0, r2
  406d96:	fa43 f305 	asr.w	r3, r3, r5
  406d9a:	4159      	adcs	r1, r3
  406d9c:	e00e      	b.n	406dbc <__adddf3+0xd0>
  406d9e:	f1a5 0520 	sub.w	r5, r5, #32
  406da2:	f10e 0e20 	add.w	lr, lr, #32
  406da6:	2a01      	cmp	r2, #1
  406da8:	fa03 fc0e 	lsl.w	ip, r3, lr
  406dac:	bf28      	it	cs
  406dae:	f04c 0c02 	orrcs.w	ip, ip, #2
  406db2:	fa43 f305 	asr.w	r3, r3, r5
  406db6:	18c0      	adds	r0, r0, r3
  406db8:	eb51 71e3 	adcs.w	r1, r1, r3, asr #31
  406dbc:	f001 4500 	and.w	r5, r1, #2147483648	; 0x80000000
  406dc0:	d507      	bpl.n	406dd2 <__adddf3+0xe6>
  406dc2:	f04f 0e00 	mov.w	lr, #0
  406dc6:	f1dc 0c00 	rsbs	ip, ip, #0
  406dca:	eb7e 0000 	sbcs.w	r0, lr, r0
  406dce:	eb6e 0101 	sbc.w	r1, lr, r1
  406dd2:	f5b1 1f80 	cmp.w	r1, #1048576	; 0x100000
  406dd6:	d31b      	bcc.n	406e10 <__adddf3+0x124>
  406dd8:	f5b1 1f00 	cmp.w	r1, #2097152	; 0x200000
  406ddc:	d30c      	bcc.n	406df8 <__adddf3+0x10c>
  406dde:	0849      	lsrs	r1, r1, #1
  406de0:	ea5f 0030 	movs.w	r0, r0, rrx
  406de4:	ea4f 0c3c 	mov.w	ip, ip, rrx
  406de8:	f104 0401 	add.w	r4, r4, #1
  406dec:	ea4f 5244 	mov.w	r2, r4, lsl #21
  406df0:	f512 0f80 	cmn.w	r2, #4194304	; 0x400000
  406df4:	f080 809a 	bcs.w	406f2c <__adddf3+0x240>
  406df8:	f1bc 4f00 	cmp.w	ip, #2147483648	; 0x80000000
  406dfc:	bf08      	it	eq
  406dfe:	ea5f 0c50 	movseq.w	ip, r0, lsr #1
  406e02:	f150 0000 	adcs.w	r0, r0, #0
  406e06:	eb41 5104 	adc.w	r1, r1, r4, lsl #20
  406e0a:	ea41 0105 	orr.w	r1, r1, r5
  406e0e:	bd30      	pop	{r4, r5, pc}
  406e10:	ea5f 0c4c 	movs.w	ip, ip, lsl #1
  406e14:	4140      	adcs	r0, r0
  406e16:	eb41 0101 	adc.w	r1, r1, r1
  406e1a:	f411 1f80 	tst.w	r1, #1048576	; 0x100000
  406e1e:	f1a4 0401 	sub.w	r4, r4, #1
  406e22:	d1e9      	bne.n	406df8 <__adddf3+0x10c>
  406e24:	f091 0f00 	teq	r1, #0
  406e28:	bf04      	itt	eq
  406e2a:	4601      	moveq	r1, r0
  406e2c:	2000      	moveq	r0, #0
  406e2e:	fab1 f381 	clz	r3, r1
  406e32:	bf08      	it	eq
  406e34:	3320      	addeq	r3, #32
  406e36:	f1a3 030b 	sub.w	r3, r3, #11
  406e3a:	f1b3 0220 	subs.w	r2, r3, #32
  406e3e:	da0c      	bge.n	406e5a <__adddf3+0x16e>
  406e40:	320c      	adds	r2, #12
  406e42:	dd08      	ble.n	406e56 <__adddf3+0x16a>
  406e44:	f102 0c14 	add.w	ip, r2, #20
  406e48:	f1c2 020c 	rsb	r2, r2, #12
  406e4c:	fa01 f00c 	lsl.w	r0, r1, ip
  406e50:	fa21 f102 	lsr.w	r1, r1, r2
  406e54:	e00c      	b.n	406e70 <__adddf3+0x184>
  406e56:	f102 0214 	add.w	r2, r2, #20
  406e5a:	bfd8      	it	le
  406e5c:	f1c2 0c20 	rsble	ip, r2, #32
  406e60:	fa01 f102 	lsl.w	r1, r1, r2
  406e64:	fa20 fc0c 	lsr.w	ip, r0, ip
  406e68:	bfdc      	itt	le
  406e6a:	ea41 010c 	orrle.w	r1, r1, ip
  406e6e:	4090      	lslle	r0, r2
  406e70:	1ae4      	subs	r4, r4, r3
  406e72:	bfa2      	ittt	ge
  406e74:	eb01 5104 	addge.w	r1, r1, r4, lsl #20
  406e78:	4329      	orrge	r1, r5
  406e7a:	bd30      	popge	{r4, r5, pc}
  406e7c:	ea6f 0404 	mvn.w	r4, r4
  406e80:	3c1f      	subs	r4, #31
  406e82:	da1c      	bge.n	406ebe <__adddf3+0x1d2>
  406e84:	340c      	adds	r4, #12
  406e86:	dc0e      	bgt.n	406ea6 <__adddf3+0x1ba>
  406e88:	f104 0414 	add.w	r4, r4, #20
  406e8c:	f1c4 0220 	rsb	r2, r4, #32
  406e90:	fa20 f004 	lsr.w	r0, r0, r4
  406e94:	fa01 f302 	lsl.w	r3, r1, r2
  406e98:	ea40 0003 	orr.w	r0, r0, r3
  406e9c:	fa21 f304 	lsr.w	r3, r1, r4
  406ea0:	ea45 0103 	orr.w	r1, r5, r3
  406ea4:	bd30      	pop	{r4, r5, pc}
  406ea6:	f1c4 040c 	rsb	r4, r4, #12
  406eaa:	f1c4 0220 	rsb	r2, r4, #32
  406eae:	fa20 f002 	lsr.w	r0, r0, r2
  406eb2:	fa01 f304 	lsl.w	r3, r1, r4
  406eb6:	ea40 0003 	orr.w	r0, r0, r3
  406eba:	4629      	mov	r1, r5
  406ebc:	bd30      	pop	{r4, r5, pc}
  406ebe:	fa21 f004 	lsr.w	r0, r1, r4
  406ec2:	4629      	mov	r1, r5
  406ec4:	bd30      	pop	{r4, r5, pc}
  406ec6:	f094 0f00 	teq	r4, #0
  406eca:	f483 1380 	eor.w	r3, r3, #1048576	; 0x100000
  406ece:	bf06      	itte	eq
  406ed0:	f481 1180 	eoreq.w	r1, r1, #1048576	; 0x100000
  406ed4:	3401      	addeq	r4, #1
  406ed6:	3d01      	subne	r5, #1
  406ed8:	e74e      	b.n	406d78 <__adddf3+0x8c>
  406eda:	ea7f 5c64 	mvns.w	ip, r4, asr #21
  406ede:	bf18      	it	ne
  406ee0:	ea7f 5c65 	mvnsne.w	ip, r5, asr #21
  406ee4:	d029      	beq.n	406f3a <__adddf3+0x24e>
  406ee6:	ea94 0f05 	teq	r4, r5
  406eea:	bf08      	it	eq
  406eec:	ea90 0f02 	teqeq	r0, r2
  406ef0:	d005      	beq.n	406efe <__adddf3+0x212>
  406ef2:	ea54 0c00 	orrs.w	ip, r4, r0
  406ef6:	bf04      	itt	eq
  406ef8:	4619      	moveq	r1, r3
  406efa:	4610      	moveq	r0, r2
  406efc:	bd30      	pop	{r4, r5, pc}
  406efe:	ea91 0f03 	teq	r1, r3
  406f02:	bf1e      	ittt	ne
  406f04:	2100      	movne	r1, #0
  406f06:	2000      	movne	r0, #0
  406f08:	bd30      	popne	{r4, r5, pc}
  406f0a:	ea5f 5c54 	movs.w	ip, r4, lsr #21
  406f0e:	d105      	bne.n	406f1c <__adddf3+0x230>
  406f10:	0040      	lsls	r0, r0, #1
  406f12:	4149      	adcs	r1, r1
  406f14:	bf28      	it	cs
  406f16:	f041 4100 	orrcs.w	r1, r1, #2147483648	; 0x80000000
  406f1a:	bd30      	pop	{r4, r5, pc}
  406f1c:	f514 0480 	adds.w	r4, r4, #4194304	; 0x400000
  406f20:	bf3c      	itt	cc
  406f22:	f501 1180 	addcc.w	r1, r1, #1048576	; 0x100000
  406f26:	bd30      	popcc	{r4, r5, pc}
  406f28:	f001 4500 	and.w	r5, r1, #2147483648	; 0x80000000
  406f2c:	f045 41fe 	orr.w	r1, r5, #2130706432	; 0x7f000000
  406f30:	f441 0170 	orr.w	r1, r1, #15728640	; 0xf00000
  406f34:	f04f 0000 	mov.w	r0, #0
  406f38:	bd30      	pop	{r4, r5, pc}
  406f3a:	ea7f 5c64 	mvns.w	ip, r4, asr #21
  406f3e:	bf1a      	itte	ne
  406f40:	4619      	movne	r1, r3
  406f42:	4610      	movne	r0, r2
  406f44:	ea7f 5c65 	mvnseq.w	ip, r5, asr #21
  406f48:	bf1c      	itt	ne
  406f4a:	460b      	movne	r3, r1
  406f4c:	4602      	movne	r2, r0
  406f4e:	ea50 3401 	orrs.w	r4, r0, r1, lsl #12
  406f52:	bf06      	itte	eq
  406f54:	ea52 3503 	orrseq.w	r5, r2, r3, lsl #12
  406f58:	ea91 0f03 	teqeq	r1, r3
  406f5c:	f441 2100 	orrne.w	r1, r1, #524288	; 0x80000
  406f60:	bd30      	pop	{r4, r5, pc}
  406f62:	bf00      	nop

00406f64 <__aeabi_ui2d>:
  406f64:	f090 0f00 	teq	r0, #0
  406f68:	bf04      	itt	eq
  406f6a:	2100      	moveq	r1, #0
  406f6c:	4770      	bxeq	lr
  406f6e:	b530      	push	{r4, r5, lr}
  406f70:	f44f 6480 	mov.w	r4, #1024	; 0x400
  406f74:	f104 0432 	add.w	r4, r4, #50	; 0x32
  406f78:	f04f 0500 	mov.w	r5, #0
  406f7c:	f04f 0100 	mov.w	r1, #0
  406f80:	e750      	b.n	406e24 <__adddf3+0x138>
  406f82:	bf00      	nop

00406f84 <__aeabi_i2d>:
  406f84:	f090 0f00 	teq	r0, #0
  406f88:	bf04      	itt	eq
  406f8a:	2100      	moveq	r1, #0
  406f8c:	4770      	bxeq	lr
  406f8e:	b530      	push	{r4, r5, lr}
  406f90:	f44f 6480 	mov.w	r4, #1024	; 0x400
  406f94:	f104 0432 	add.w	r4, r4, #50	; 0x32
  406f98:	f010 4500 	ands.w	r5, r0, #2147483648	; 0x80000000
  406f9c:	bf48      	it	mi
  406f9e:	4240      	negmi	r0, r0
  406fa0:	f04f 0100 	mov.w	r1, #0
  406fa4:	e73e      	b.n	406e24 <__adddf3+0x138>
  406fa6:	bf00      	nop

00406fa8 <__aeabi_f2d>:
  406fa8:	0042      	lsls	r2, r0, #1
  406faa:	ea4f 01e2 	mov.w	r1, r2, asr #3
  406fae:	ea4f 0131 	mov.w	r1, r1, rrx
  406fb2:	ea4f 7002 	mov.w	r0, r2, lsl #28
  406fb6:	bf1f      	itttt	ne
  406fb8:	f012 437f 	andsne.w	r3, r2, #4278190080	; 0xff000000
  406fbc:	f093 4f7f 	teqne	r3, #4278190080	; 0xff000000
  406fc0:	f081 5160 	eorne.w	r1, r1, #939524096	; 0x38000000
  406fc4:	4770      	bxne	lr
  406fc6:	f092 0f00 	teq	r2, #0
  406fca:	bf14      	ite	ne
  406fcc:	f093 4f7f 	teqne	r3, #4278190080	; 0xff000000
  406fd0:	4770      	bxeq	lr
  406fd2:	b530      	push	{r4, r5, lr}
  406fd4:	f44f 7460 	mov.w	r4, #896	; 0x380
  406fd8:	f001 4500 	and.w	r5, r1, #2147483648	; 0x80000000
  406fdc:	f021 4100 	bic.w	r1, r1, #2147483648	; 0x80000000
  406fe0:	e720      	b.n	406e24 <__adddf3+0x138>
  406fe2:	bf00      	nop

00406fe4 <__aeabi_ul2d>:
  406fe4:	ea50 0201 	orrs.w	r2, r0, r1
  406fe8:	bf08      	it	eq
  406fea:	4770      	bxeq	lr
  406fec:	b530      	push	{r4, r5, lr}
  406fee:	f04f 0500 	mov.w	r5, #0
  406ff2:	e00a      	b.n	40700a <__aeabi_l2d+0x16>

00406ff4 <__aeabi_l2d>:
  406ff4:	ea50 0201 	orrs.w	r2, r0, r1
  406ff8:	bf08      	it	eq
  406ffa:	4770      	bxeq	lr
  406ffc:	b530      	push	{r4, r5, lr}
  406ffe:	f011 4500 	ands.w	r5, r1, #2147483648	; 0x80000000
  407002:	d502      	bpl.n	40700a <__aeabi_l2d+0x16>
  407004:	4240      	negs	r0, r0
  407006:	eb61 0141 	sbc.w	r1, r1, r1, lsl #1
  40700a:	f44f 6480 	mov.w	r4, #1024	; 0x400
  40700e:	f104 0432 	add.w	r4, r4, #50	; 0x32
  407012:	ea5f 5c91 	movs.w	ip, r1, lsr #22
  407016:	f43f aedc 	beq.w	406dd2 <__adddf3+0xe6>
  40701a:	f04f 0203 	mov.w	r2, #3
  40701e:	ea5f 0cdc 	movs.w	ip, ip, lsr #3
  407022:	bf18      	it	ne
  407024:	3203      	addne	r2, #3
  407026:	ea5f 0cdc 	movs.w	ip, ip, lsr #3
  40702a:	bf18      	it	ne
  40702c:	3203      	addne	r2, #3
  40702e:	eb02 02dc 	add.w	r2, r2, ip, lsr #3
  407032:	f1c2 0320 	rsb	r3, r2, #32
  407036:	fa00 fc03 	lsl.w	ip, r0, r3
  40703a:	fa20 f002 	lsr.w	r0, r0, r2
  40703e:	fa01 fe03 	lsl.w	lr, r1, r3
  407042:	ea40 000e 	orr.w	r0, r0, lr
  407046:	fa21 f102 	lsr.w	r1, r1, r2
  40704a:	4414      	add	r4, r2
  40704c:	e6c1      	b.n	406dd2 <__adddf3+0xe6>
  40704e:	bf00      	nop

00407050 <__aeabi_dmul>:
  407050:	b570      	push	{r4, r5, r6, lr}
  407052:	f04f 0cff 	mov.w	ip, #255	; 0xff
  407056:	f44c 6ce0 	orr.w	ip, ip, #1792	; 0x700
  40705a:	ea1c 5411 	ands.w	r4, ip, r1, lsr #20
  40705e:	bf1d      	ittte	ne
  407060:	ea1c 5513 	andsne.w	r5, ip, r3, lsr #20
  407064:	ea94 0f0c 	teqne	r4, ip
  407068:	ea95 0f0c 	teqne	r5, ip
  40706c:	f000 f8de 	bleq	40722c <__aeabi_dmul+0x1dc>
  407070:	442c      	add	r4, r5
  407072:	ea81 0603 	eor.w	r6, r1, r3
  407076:	ea21 514c 	bic.w	r1, r1, ip, lsl #21
  40707a:	ea23 534c 	bic.w	r3, r3, ip, lsl #21
  40707e:	ea50 3501 	orrs.w	r5, r0, r1, lsl #12
  407082:	bf18      	it	ne
  407084:	ea52 3503 	orrsne.w	r5, r2, r3, lsl #12
  407088:	f441 1180 	orr.w	r1, r1, #1048576	; 0x100000
  40708c:	f443 1380 	orr.w	r3, r3, #1048576	; 0x100000
  407090:	d038      	beq.n	407104 <__aeabi_dmul+0xb4>
  407092:	fba0 ce02 	umull	ip, lr, r0, r2
  407096:	f04f 0500 	mov.w	r5, #0
  40709a:	fbe1 e502 	umlal	lr, r5, r1, r2
  40709e:	f006 4200 	and.w	r2, r6, #2147483648	; 0x80000000
  4070a2:	fbe0 e503 	umlal	lr, r5, r0, r3
  4070a6:	f04f 0600 	mov.w	r6, #0
  4070aa:	fbe1 5603 	umlal	r5, r6, r1, r3
  4070ae:	f09c 0f00 	teq	ip, #0
  4070b2:	bf18      	it	ne
  4070b4:	f04e 0e01 	orrne.w	lr, lr, #1
  4070b8:	f1a4 04ff 	sub.w	r4, r4, #255	; 0xff
  4070bc:	f5b6 7f00 	cmp.w	r6, #512	; 0x200
  4070c0:	f564 7440 	sbc.w	r4, r4, #768	; 0x300
  4070c4:	d204      	bcs.n	4070d0 <__aeabi_dmul+0x80>
  4070c6:	ea5f 0e4e 	movs.w	lr, lr, lsl #1
  4070ca:	416d      	adcs	r5, r5
  4070cc:	eb46 0606 	adc.w	r6, r6, r6
  4070d0:	ea42 21c6 	orr.w	r1, r2, r6, lsl #11
  4070d4:	ea41 5155 	orr.w	r1, r1, r5, lsr #21
  4070d8:	ea4f 20c5 	mov.w	r0, r5, lsl #11
  4070dc:	ea40 505e 	orr.w	r0, r0, lr, lsr #21
  4070e0:	ea4f 2ece 	mov.w	lr, lr, lsl #11
  4070e4:	f1b4 0cfd 	subs.w	ip, r4, #253	; 0xfd
  4070e8:	bf88      	it	hi
  4070ea:	f5bc 6fe0 	cmphi.w	ip, #1792	; 0x700
  4070ee:	d81e      	bhi.n	40712e <__aeabi_dmul+0xde>
  4070f0:	f1be 4f00 	cmp.w	lr, #2147483648	; 0x80000000
  4070f4:	bf08      	it	eq
  4070f6:	ea5f 0e50 	movseq.w	lr, r0, lsr #1
  4070fa:	f150 0000 	adcs.w	r0, r0, #0
  4070fe:	eb41 5104 	adc.w	r1, r1, r4, lsl #20
  407102:	bd70      	pop	{r4, r5, r6, pc}
  407104:	f006 4600 	and.w	r6, r6, #2147483648	; 0x80000000
  407108:	ea46 0101 	orr.w	r1, r6, r1
  40710c:	ea40 0002 	orr.w	r0, r0, r2
  407110:	ea81 0103 	eor.w	r1, r1, r3
  407114:	ebb4 045c 	subs.w	r4, r4, ip, lsr #1
  407118:	bfc2      	ittt	gt
  40711a:	ebd4 050c 	rsbsgt	r5, r4, ip
  40711e:	ea41 5104 	orrgt.w	r1, r1, r4, lsl #20
  407122:	bd70      	popgt	{r4, r5, r6, pc}
  407124:	f441 1180 	orr.w	r1, r1, #1048576	; 0x100000
  407128:	f04f 0e00 	mov.w	lr, #0
  40712c:	3c01      	subs	r4, #1
  40712e:	f300 80ab 	bgt.w	407288 <__aeabi_dmul+0x238>
  407132:	f114 0f36 	cmn.w	r4, #54	; 0x36
  407136:	bfde      	ittt	le
  407138:	2000      	movle	r0, #0
  40713a:	f001 4100 	andle.w	r1, r1, #2147483648	; 0x80000000
  40713e:	bd70      	pople	{r4, r5, r6, pc}
  407140:	f1c4 0400 	rsb	r4, r4, #0
  407144:	3c20      	subs	r4, #32
  407146:	da35      	bge.n	4071b4 <__aeabi_dmul+0x164>
  407148:	340c      	adds	r4, #12
  40714a:	dc1b      	bgt.n	407184 <__aeabi_dmul+0x134>
  40714c:	f104 0414 	add.w	r4, r4, #20
  407150:	f1c4 0520 	rsb	r5, r4, #32
  407154:	fa00 f305 	lsl.w	r3, r0, r5
  407158:	fa20 f004 	lsr.w	r0, r0, r4
  40715c:	fa01 f205 	lsl.w	r2, r1, r5
  407160:	ea40 0002 	orr.w	r0, r0, r2
  407164:	f001 4200 	and.w	r2, r1, #2147483648	; 0x80000000
  407168:	f021 4100 	bic.w	r1, r1, #2147483648	; 0x80000000
  40716c:	eb10 70d3 	adds.w	r0, r0, r3, lsr #31
  407170:	fa21 f604 	lsr.w	r6, r1, r4
  407174:	eb42 0106 	adc.w	r1, r2, r6
  407178:	ea5e 0e43 	orrs.w	lr, lr, r3, lsl #1
  40717c:	bf08      	it	eq
  40717e:	ea20 70d3 	biceq.w	r0, r0, r3, lsr #31
  407182:	bd70      	pop	{r4, r5, r6, pc}
  407184:	f1c4 040c 	rsb	r4, r4, #12
  407188:	f1c4 0520 	rsb	r5, r4, #32
  40718c:	fa00 f304 	lsl.w	r3, r0, r4
  407190:	fa20 f005 	lsr.w	r0, r0, r5
  407194:	fa01 f204 	lsl.w	r2, r1, r4
  407198:	ea40 0002 	orr.w	r0, r0, r2
  40719c:	f001 4100 	and.w	r1, r1, #2147483648	; 0x80000000
  4071a0:	eb10 70d3 	adds.w	r0, r0, r3, lsr #31
  4071a4:	f141 0100 	adc.w	r1, r1, #0
  4071a8:	ea5e 0e43 	orrs.w	lr, lr, r3, lsl #1
  4071ac:	bf08      	it	eq
  4071ae:	ea20 70d3 	biceq.w	r0, r0, r3, lsr #31
  4071b2:	bd70      	pop	{r4, r5, r6, pc}
  4071b4:	f1c4 0520 	rsb	r5, r4, #32
  4071b8:	fa00 f205 	lsl.w	r2, r0, r5
  4071bc:	ea4e 0e02 	orr.w	lr, lr, r2
  4071c0:	fa20 f304 	lsr.w	r3, r0, r4
  4071c4:	fa01 f205 	lsl.w	r2, r1, r5
  4071c8:	ea43 0302 	orr.w	r3, r3, r2
  4071cc:	fa21 f004 	lsr.w	r0, r1, r4
  4071d0:	f001 4100 	and.w	r1, r1, #2147483648	; 0x80000000
  4071d4:	fa21 f204 	lsr.w	r2, r1, r4
  4071d8:	ea20 0002 	bic.w	r0, r0, r2
  4071dc:	eb00 70d3 	add.w	r0, r0, r3, lsr #31
  4071e0:	ea5e 0e43 	orrs.w	lr, lr, r3, lsl #1
  4071e4:	bf08      	it	eq
  4071e6:	ea20 70d3 	biceq.w	r0, r0, r3, lsr #31
  4071ea:	bd70      	pop	{r4, r5, r6, pc}
  4071ec:	f094 0f00 	teq	r4, #0
  4071f0:	d10f      	bne.n	407212 <__aeabi_dmul+0x1c2>
  4071f2:	f001 4600 	and.w	r6, r1, #2147483648	; 0x80000000
  4071f6:	0040      	lsls	r0, r0, #1
  4071f8:	eb41 0101 	adc.w	r1, r1, r1
  4071fc:	f411 1f80 	tst.w	r1, #1048576	; 0x100000
  407200:	bf08      	it	eq
  407202:	3c01      	subeq	r4, #1
  407204:	d0f7      	beq.n	4071f6 <__aeabi_dmul+0x1a6>
  407206:	ea41 0106 	orr.w	r1, r1, r6
  40720a:	f095 0f00 	teq	r5, #0
  40720e:	bf18      	it	ne
  407210:	4770      	bxne	lr
  407212:	f003 4600 	and.w	r6, r3, #2147483648	; 0x80000000
  407216:	0052      	lsls	r2, r2, #1
  407218:	eb43 0303 	adc.w	r3, r3, r3
  40721c:	f413 1f80 	tst.w	r3, #1048576	; 0x100000
  407220:	bf08      	it	eq
  407222:	3d01      	subeq	r5, #1
  407224:	d0f7      	beq.n	407216 <__aeabi_dmul+0x1c6>
  407226:	ea43 0306 	orr.w	r3, r3, r6
  40722a:	4770      	bx	lr
  40722c:	ea94 0f0c 	teq	r4, ip
  407230:	ea0c 5513 	and.w	r5, ip, r3, lsr #20
  407234:	bf18      	it	ne
  407236:	ea95 0f0c 	teqne	r5, ip
  40723a:	d00c      	beq.n	407256 <__aeabi_dmul+0x206>
  40723c:	ea50 0641 	orrs.w	r6, r0, r1, lsl #1
  407240:	bf18      	it	ne
  407242:	ea52 0643 	orrsne.w	r6, r2, r3, lsl #1
  407246:	d1d1      	bne.n	4071ec <__aeabi_dmul+0x19c>
  407248:	ea81 0103 	eor.w	r1, r1, r3
  40724c:	f001 4100 	and.w	r1, r1, #2147483648	; 0x80000000
  407250:	f04f 0000 	mov.w	r0, #0
  407254:	bd70      	pop	{r4, r5, r6, pc}
  407256:	ea50 0641 	orrs.w	r6, r0, r1, lsl #1
  40725a:	bf06      	itte	eq
  40725c:	4610      	moveq	r0, r2
  40725e:	4619      	moveq	r1, r3
  407260:	ea52 0643 	orrsne.w	r6, r2, r3, lsl #1
  407264:	d019      	beq.n	40729a <__aeabi_dmul+0x24a>
  407266:	ea94 0f0c 	teq	r4, ip
  40726a:	d102      	bne.n	407272 <__aeabi_dmul+0x222>
  40726c:	ea50 3601 	orrs.w	r6, r0, r1, lsl #12
  407270:	d113      	bne.n	40729a <__aeabi_dmul+0x24a>
  407272:	ea95 0f0c 	teq	r5, ip
  407276:	d105      	bne.n	407284 <__aeabi_dmul+0x234>
  407278:	ea52 3603 	orrs.w	r6, r2, r3, lsl #12
  40727c:	bf1c      	itt	ne
  40727e:	4610      	movne	r0, r2
  407280:	4619      	movne	r1, r3
  407282:	d10a      	bne.n	40729a <__aeabi_dmul+0x24a>
  407284:	ea81 0103 	eor.w	r1, r1, r3
  407288:	f001 4100 	and.w	r1, r1, #2147483648	; 0x80000000
  40728c:	f041 41fe 	orr.w	r1, r1, #2130706432	; 0x7f000000
  407290:	f441 0170 	orr.w	r1, r1, #15728640	; 0xf00000
  407294:	f04f 0000 	mov.w	r0, #0
  407298:	bd70      	pop	{r4, r5, r6, pc}
  40729a:	f041 41fe 	orr.w	r1, r1, #2130706432	; 0x7f000000
  40729e:	f441 0178 	orr.w	r1, r1, #16252928	; 0xf80000
  4072a2:	bd70      	pop	{r4, r5, r6, pc}

004072a4 <__aeabi_ddiv>:
  4072a4:	b570      	push	{r4, r5, r6, lr}
  4072a6:	f04f 0cff 	mov.w	ip, #255	; 0xff
  4072aa:	f44c 6ce0 	orr.w	ip, ip, #1792	; 0x700
  4072ae:	ea1c 5411 	ands.w	r4, ip, r1, lsr #20
  4072b2:	bf1d      	ittte	ne
  4072b4:	ea1c 5513 	andsne.w	r5, ip, r3, lsr #20
  4072b8:	ea94 0f0c 	teqne	r4, ip
  4072bc:	ea95 0f0c 	teqne	r5, ip
  4072c0:	f000 f8a7 	bleq	407412 <__aeabi_ddiv+0x16e>
  4072c4:	eba4 0405 	sub.w	r4, r4, r5
  4072c8:	ea81 0e03 	eor.w	lr, r1, r3
  4072cc:	ea52 3503 	orrs.w	r5, r2, r3, lsl #12
  4072d0:	ea4f 3101 	mov.w	r1, r1, lsl #12
  4072d4:	f000 8088 	beq.w	4073e8 <__aeabi_ddiv+0x144>
  4072d8:	ea4f 3303 	mov.w	r3, r3, lsl #12
  4072dc:	f04f 5580 	mov.w	r5, #268435456	; 0x10000000
  4072e0:	ea45 1313 	orr.w	r3, r5, r3, lsr #4
  4072e4:	ea43 6312 	orr.w	r3, r3, r2, lsr #24
  4072e8:	ea4f 2202 	mov.w	r2, r2, lsl #8
  4072ec:	ea45 1511 	orr.w	r5, r5, r1, lsr #4
  4072f0:	ea45 6510 	orr.w	r5, r5, r0, lsr #24
  4072f4:	ea4f 2600 	mov.w	r6, r0, lsl #8
  4072f8:	f00e 4100 	and.w	r1, lr, #2147483648	; 0x80000000
  4072fc:	429d      	cmp	r5, r3
  4072fe:	bf08      	it	eq
  407300:	4296      	cmpeq	r6, r2
  407302:	f144 04fd 	adc.w	r4, r4, #253	; 0xfd
  407306:	f504 7440 	add.w	r4, r4, #768	; 0x300
  40730a:	d202      	bcs.n	407312 <__aeabi_ddiv+0x6e>
  40730c:	085b      	lsrs	r3, r3, #1
  40730e:	ea4f 0232 	mov.w	r2, r2, rrx
  407312:	1ab6      	subs	r6, r6, r2
  407314:	eb65 0503 	sbc.w	r5, r5, r3
  407318:	085b      	lsrs	r3, r3, #1
  40731a:	ea4f 0232 	mov.w	r2, r2, rrx
  40731e:	f44f 1080 	mov.w	r0, #1048576	; 0x100000
  407322:	f44f 2c00 	mov.w	ip, #524288	; 0x80000
  407326:	ebb6 0e02 	subs.w	lr, r6, r2
  40732a:	eb75 0e03 	sbcs.w	lr, r5, r3
  40732e:	bf22      	ittt	cs
  407330:	1ab6      	subcs	r6, r6, r2
  407332:	4675      	movcs	r5, lr
  407334:	ea40 000c 	orrcs.w	r0, r0, ip
  407338:	085b      	lsrs	r3, r3, #1
  40733a:	ea4f 0232 	mov.w	r2, r2, rrx
  40733e:	ebb6 0e02 	subs.w	lr, r6, r2
  407342:	eb75 0e03 	sbcs.w	lr, r5, r3
  407346:	bf22      	ittt	cs
  407348:	1ab6      	subcs	r6, r6, r2
  40734a:	4675      	movcs	r5, lr
  40734c:	ea40 005c 	orrcs.w	r0, r0, ip, lsr #1
  407350:	085b      	lsrs	r3, r3, #1
  407352:	ea4f 0232 	mov.w	r2, r2, rrx
  407356:	ebb6 0e02 	subs.w	lr, r6, r2
  40735a:	eb75 0e03 	sbcs.w	lr, r5, r3
  40735e:	bf22      	ittt	cs
  407360:	1ab6      	subcs	r6, r6, r2
  407362:	4675      	movcs	r5, lr
  407364:	ea40 009c 	orrcs.w	r0, r0, ip, lsr #2
  407368:	085b      	lsrs	r3, r3, #1
  40736a:	ea4f 0232 	mov.w	r2, r2, rrx
  40736e:	ebb6 0e02 	subs.w	lr, r6, r2
  407372:	eb75 0e03 	sbcs.w	lr, r5, r3
  407376:	bf22      	ittt	cs
  407378:	1ab6      	subcs	r6, r6, r2
  40737a:	4675      	movcs	r5, lr
  40737c:	ea40 00dc 	orrcs.w	r0, r0, ip, lsr #3
  407380:	ea55 0e06 	orrs.w	lr, r5, r6
  407384:	d018      	beq.n	4073b8 <__aeabi_ddiv+0x114>
  407386:	ea4f 1505 	mov.w	r5, r5, lsl #4
  40738a:	ea45 7516 	orr.w	r5, r5, r6, lsr #28
  40738e:	ea4f 1606 	mov.w	r6, r6, lsl #4
  407392:	ea4f 03c3 	mov.w	r3, r3, lsl #3
  407396:	ea43 7352 	orr.w	r3, r3, r2, lsr #29
  40739a:	ea4f 02c2 	mov.w	r2, r2, lsl #3
  40739e:	ea5f 1c1c 	movs.w	ip, ip, lsr #4
  4073a2:	d1c0      	bne.n	407326 <__aeabi_ddiv+0x82>
  4073a4:	f411 1f80 	tst.w	r1, #1048576	; 0x100000
  4073a8:	d10b      	bne.n	4073c2 <__aeabi_ddiv+0x11e>
  4073aa:	ea41 0100 	orr.w	r1, r1, r0
  4073ae:	f04f 0000 	mov.w	r0, #0
  4073b2:	f04f 4c00 	mov.w	ip, #2147483648	; 0x80000000
  4073b6:	e7b6      	b.n	407326 <__aeabi_ddiv+0x82>
  4073b8:	f411 1f80 	tst.w	r1, #1048576	; 0x100000
  4073bc:	bf04      	itt	eq
  4073be:	4301      	orreq	r1, r0
  4073c0:	2000      	moveq	r0, #0
  4073c2:	f1b4 0cfd 	subs.w	ip, r4, #253	; 0xfd
  4073c6:	bf88      	it	hi
  4073c8:	f5bc 6fe0 	cmphi.w	ip, #1792	; 0x700
  4073cc:	f63f aeaf 	bhi.w	40712e <__aeabi_dmul+0xde>
  4073d0:	ebb5 0c03 	subs.w	ip, r5, r3
  4073d4:	bf04      	itt	eq
  4073d6:	ebb6 0c02 	subseq.w	ip, r6, r2
  4073da:	ea5f 0c50 	movseq.w	ip, r0, lsr #1
  4073de:	f150 0000 	adcs.w	r0, r0, #0
  4073e2:	eb41 5104 	adc.w	r1, r1, r4, lsl #20
  4073e6:	bd70      	pop	{r4, r5, r6, pc}
  4073e8:	f00e 4e00 	and.w	lr, lr, #2147483648	; 0x80000000
  4073ec:	ea4e 3111 	orr.w	r1, lr, r1, lsr #12
  4073f0:	eb14 045c 	adds.w	r4, r4, ip, lsr #1
  4073f4:	bfc2      	ittt	gt
  4073f6:	ebd4 050c 	rsbsgt	r5, r4, ip
  4073fa:	ea41 5104 	orrgt.w	r1, r1, r4, lsl #20
  4073fe:	bd70      	popgt	{r4, r5, r6, pc}
  407400:	f441 1180 	orr.w	r1, r1, #1048576	; 0x100000
  407404:	f04f 0e00 	mov.w	lr, #0
  407408:	3c01      	subs	r4, #1
  40740a:	e690      	b.n	40712e <__aeabi_dmul+0xde>
  40740c:	ea45 0e06 	orr.w	lr, r5, r6
  407410:	e68d      	b.n	40712e <__aeabi_dmul+0xde>
  407412:	ea0c 5513 	and.w	r5, ip, r3, lsr #20
  407416:	ea94 0f0c 	teq	r4, ip
  40741a:	bf08      	it	eq
  40741c:	ea95 0f0c 	teqeq	r5, ip
  407420:	f43f af3b 	beq.w	40729a <__aeabi_dmul+0x24a>
  407424:	ea94 0f0c 	teq	r4, ip
  407428:	d10a      	bne.n	407440 <__aeabi_ddiv+0x19c>
  40742a:	ea50 3401 	orrs.w	r4, r0, r1, lsl #12
  40742e:	f47f af34 	bne.w	40729a <__aeabi_dmul+0x24a>
  407432:	ea95 0f0c 	teq	r5, ip
  407436:	f47f af25 	bne.w	407284 <__aeabi_dmul+0x234>
  40743a:	4610      	mov	r0, r2
  40743c:	4619      	mov	r1, r3
  40743e:	e72c      	b.n	40729a <__aeabi_dmul+0x24a>
  407440:	ea95 0f0c 	teq	r5, ip
  407444:	d106      	bne.n	407454 <__aeabi_ddiv+0x1b0>
  407446:	ea52 3503 	orrs.w	r5, r2, r3, lsl #12
  40744a:	f43f aefd 	beq.w	407248 <__aeabi_dmul+0x1f8>
  40744e:	4610      	mov	r0, r2
  407450:	4619      	mov	r1, r3
  407452:	e722      	b.n	40729a <__aeabi_dmul+0x24a>
  407454:	ea50 0641 	orrs.w	r6, r0, r1, lsl #1
  407458:	bf18      	it	ne
  40745a:	ea52 0643 	orrsne.w	r6, r2, r3, lsl #1
  40745e:	f47f aec5 	bne.w	4071ec <__aeabi_dmul+0x19c>
  407462:	ea50 0441 	orrs.w	r4, r0, r1, lsl #1
  407466:	f47f af0d 	bne.w	407284 <__aeabi_dmul+0x234>
  40746a:	ea52 0543 	orrs.w	r5, r2, r3, lsl #1
  40746e:	f47f aeeb 	bne.w	407248 <__aeabi_dmul+0x1f8>
  407472:	e712      	b.n	40729a <__aeabi_dmul+0x24a>

00407474 <__aeabi_d2iz>:
  407474:	ea4f 0241 	mov.w	r2, r1, lsl #1
  407478:	f512 1200 	adds.w	r2, r2, #2097152	; 0x200000
  40747c:	d215      	bcs.n	4074aa <__aeabi_d2iz+0x36>
  40747e:	d511      	bpl.n	4074a4 <__aeabi_d2iz+0x30>
  407480:	f46f 7378 	mvn.w	r3, #992	; 0x3e0
  407484:	ebb3 5262 	subs.w	r2, r3, r2, asr #21
  407488:	d912      	bls.n	4074b0 <__aeabi_d2iz+0x3c>
  40748a:	ea4f 23c1 	mov.w	r3, r1, lsl #11
  40748e:	f043 4300 	orr.w	r3, r3, #2147483648	; 0x80000000
  407492:	ea43 5350 	orr.w	r3, r3, r0, lsr #21
  407496:	f011 4f00 	tst.w	r1, #2147483648	; 0x80000000
  40749a:	fa23 f002 	lsr.w	r0, r3, r2
  40749e:	bf18      	it	ne
  4074a0:	4240      	negne	r0, r0
  4074a2:	4770      	bx	lr
  4074a4:	f04f 0000 	mov.w	r0, #0
  4074a8:	4770      	bx	lr
  4074aa:	ea50 3001 	orrs.w	r0, r0, r1, lsl #12
  4074ae:	d105      	bne.n	4074bc <__aeabi_d2iz+0x48>
  4074b0:	f011 4000 	ands.w	r0, r1, #2147483648	; 0x80000000
  4074b4:	bf08      	it	eq
  4074b6:	f06f 4000 	mvneq.w	r0, #2147483648	; 0x80000000
  4074ba:	4770      	bx	lr
  4074bc:	f04f 0000 	mov.w	r0, #0
  4074c0:	4770      	bx	lr
  4074c2:	bf00      	nop

004074c4 <__aeabi_d2f>:
  4074c4:	ea4f 0241 	mov.w	r2, r1, lsl #1
  4074c8:	f1b2 43e0 	subs.w	r3, r2, #1879048192	; 0x70000000
  4074cc:	bf24      	itt	cs
  4074ce:	f5b3 1c00 	subscs.w	ip, r3, #2097152	; 0x200000
  4074d2:	f1dc 5cfe 	rsbscs	ip, ip, #532676608	; 0x1fc00000
  4074d6:	d90d      	bls.n	4074f4 <__aeabi_d2f+0x30>
  4074d8:	f001 4c00 	and.w	ip, r1, #2147483648	; 0x80000000
  4074dc:	ea4f 02c0 	mov.w	r2, r0, lsl #3
  4074e0:	ea4c 7050 	orr.w	r0, ip, r0, lsr #29
  4074e4:	f1b2 4f00 	cmp.w	r2, #2147483648	; 0x80000000
  4074e8:	eb40 0083 	adc.w	r0, r0, r3, lsl #2
  4074ec:	bf08      	it	eq
  4074ee:	f020 0001 	biceq.w	r0, r0, #1
  4074f2:	4770      	bx	lr
  4074f4:	f011 4f80 	tst.w	r1, #1073741824	; 0x40000000
  4074f8:	d121      	bne.n	40753e <__aeabi_d2f+0x7a>
  4074fa:	f113 7238 	adds.w	r2, r3, #48234496	; 0x2e00000
  4074fe:	bfbc      	itt	lt
  407500:	f001 4000 	andlt.w	r0, r1, #2147483648	; 0x80000000
  407504:	4770      	bxlt	lr
  407506:	f441 1180 	orr.w	r1, r1, #1048576	; 0x100000
  40750a:	ea4f 5252 	mov.w	r2, r2, lsr #21
  40750e:	f1c2 0218 	rsb	r2, r2, #24
  407512:	f1c2 0c20 	rsb	ip, r2, #32
  407516:	fa10 f30c 	lsls.w	r3, r0, ip
  40751a:	fa20 f002 	lsr.w	r0, r0, r2
  40751e:	bf18      	it	ne
  407520:	f040 0001 	orrne.w	r0, r0, #1
  407524:	ea4f 23c1 	mov.w	r3, r1, lsl #11
  407528:	ea4f 23d3 	mov.w	r3, r3, lsr #11
  40752c:	fa03 fc0c 	lsl.w	ip, r3, ip
  407530:	ea40 000c 	orr.w	r0, r0, ip
  407534:	fa23 f302 	lsr.w	r3, r3, r2
  407538:	ea4f 0343 	mov.w	r3, r3, lsl #1
  40753c:	e7cc      	b.n	4074d8 <__aeabi_d2f+0x14>
  40753e:	ea7f 5362 	mvns.w	r3, r2, asr #21
  407542:	d107      	bne.n	407554 <__aeabi_d2f+0x90>
  407544:	ea50 3301 	orrs.w	r3, r0, r1, lsl #12
  407548:	bf1e      	ittt	ne
  40754a:	f04f 40fe 	movne.w	r0, #2130706432	; 0x7f000000
  40754e:	f440 0040 	orrne.w	r0, r0, #12582912	; 0xc00000
  407552:	4770      	bxne	lr
  407554:	f001 4000 	and.w	r0, r1, #2147483648	; 0x80000000
  407558:	f040 40fe 	orr.w	r0, r0, #2130706432	; 0x7f000000
  40755c:	f440 0000 	orr.w	r0, r0, #8388608	; 0x800000
  407560:	4770      	bx	lr
  407562:	bf00      	nop

00407564 <__libc_init_array>:
  407564:	b570      	push	{r4, r5, r6, lr}
  407566:	4e0f      	ldr	r6, [pc, #60]	; (4075a4 <__libc_init_array+0x40>)
  407568:	4d0f      	ldr	r5, [pc, #60]	; (4075a8 <__libc_init_array+0x44>)
  40756a:	1b76      	subs	r6, r6, r5
  40756c:	10b6      	asrs	r6, r6, #2
  40756e:	bf18      	it	ne
  407570:	2400      	movne	r4, #0
  407572:	d005      	beq.n	407580 <__libc_init_array+0x1c>
  407574:	3401      	adds	r4, #1
  407576:	f855 3b04 	ldr.w	r3, [r5], #4
  40757a:	4798      	blx	r3
  40757c:	42a6      	cmp	r6, r4
  40757e:	d1f9      	bne.n	407574 <__libc_init_array+0x10>
  407580:	4e0a      	ldr	r6, [pc, #40]	; (4075ac <__libc_init_array+0x48>)
  407582:	4d0b      	ldr	r5, [pc, #44]	; (4075b0 <__libc_init_array+0x4c>)
  407584:	1b76      	subs	r6, r6, r5
  407586:	f006 ffdf 	bl	40e548 <_init>
  40758a:	10b6      	asrs	r6, r6, #2
  40758c:	bf18      	it	ne
  40758e:	2400      	movne	r4, #0
  407590:	d006      	beq.n	4075a0 <__libc_init_array+0x3c>
  407592:	3401      	adds	r4, #1
  407594:	f855 3b04 	ldr.w	r3, [r5], #4
  407598:	4798      	blx	r3
  40759a:	42a6      	cmp	r6, r4
  40759c:	d1f9      	bne.n	407592 <__libc_init_array+0x2e>
  40759e:	bd70      	pop	{r4, r5, r6, pc}
  4075a0:	bd70      	pop	{r4, r5, r6, pc}
  4075a2:	bf00      	nop
  4075a4:	0040e554 	.word	0x0040e554
  4075a8:	0040e554 	.word	0x0040e554
  4075ac:	0040e55c 	.word	0x0040e55c
  4075b0:	0040e554 	.word	0x0040e554

004075b4 <iprintf>:
  4075b4:	b40f      	push	{r0, r1, r2, r3}
  4075b6:	b500      	push	{lr}
  4075b8:	4907      	ldr	r1, [pc, #28]	; (4075d8 <iprintf+0x24>)
  4075ba:	b083      	sub	sp, #12
  4075bc:	ab04      	add	r3, sp, #16
  4075be:	6808      	ldr	r0, [r1, #0]
  4075c0:	f853 2b04 	ldr.w	r2, [r3], #4
  4075c4:	6881      	ldr	r1, [r0, #8]
  4075c6:	9301      	str	r3, [sp, #4]
  4075c8:	f001 fd36 	bl	409038 <_vfiprintf_r>
  4075cc:	b003      	add	sp, #12
  4075ce:	f85d eb04 	ldr.w	lr, [sp], #4
  4075d2:	b004      	add	sp, #16
  4075d4:	4770      	bx	lr
  4075d6:	bf00      	nop
  4075d8:	20400028 	.word	0x20400028

004075dc <memcpy>:
  4075dc:	4684      	mov	ip, r0
  4075de:	ea41 0300 	orr.w	r3, r1, r0
  4075e2:	f013 0303 	ands.w	r3, r3, #3
  4075e6:	d16d      	bne.n	4076c4 <memcpy+0xe8>
  4075e8:	3a40      	subs	r2, #64	; 0x40
  4075ea:	d341      	bcc.n	407670 <memcpy+0x94>
  4075ec:	f851 3b04 	ldr.w	r3, [r1], #4
  4075f0:	f840 3b04 	str.w	r3, [r0], #4
  4075f4:	f851 3b04 	ldr.w	r3, [r1], #4
  4075f8:	f840 3b04 	str.w	r3, [r0], #4
  4075fc:	f851 3b04 	ldr.w	r3, [r1], #4
  407600:	f840 3b04 	str.w	r3, [r0], #4
  407604:	f851 3b04 	ldr.w	r3, [r1], #4
  407608:	f840 3b04 	str.w	r3, [r0], #4
  40760c:	f851 3b04 	ldr.w	r3, [r1], #4
  407610:	f840 3b04 	str.w	r3, [r0], #4
  407614:	f851 3b04 	ldr.w	r3, [r1], #4
  407618:	f840 3b04 	str.w	r3, [r0], #4
  40761c:	f851 3b04 	ldr.w	r3, [r1], #4
  407620:	f840 3b04 	str.w	r3, [r0], #4
  407624:	f851 3b04 	ldr.w	r3, [r1], #4
  407628:	f840 3b04 	str.w	r3, [r0], #4
  40762c:	f851 3b04 	ldr.w	r3, [r1], #4
  407630:	f840 3b04 	str.w	r3, [r0], #4
  407634:	f851 3b04 	ldr.w	r3, [r1], #4
  407638:	f840 3b04 	str.w	r3, [r0], #4
  40763c:	f851 3b04 	ldr.w	r3, [r1], #4
  407640:	f840 3b04 	str.w	r3, [r0], #4
  407644:	f851 3b04 	ldr.w	r3, [r1], #4
  407648:	f840 3b04 	str.w	r3, [r0], #4
  40764c:	f851 3b04 	ldr.w	r3, [r1], #4
  407650:	f840 3b04 	str.w	r3, [r0], #4
  407654:	f851 3b04 	ldr.w	r3, [r1], #4
  407658:	f840 3b04 	str.w	r3, [r0], #4
  40765c:	f851 3b04 	ldr.w	r3, [r1], #4
  407660:	f840 3b04 	str.w	r3, [r0], #4
  407664:	f851 3b04 	ldr.w	r3, [r1], #4
  407668:	f840 3b04 	str.w	r3, [r0], #4
  40766c:	3a40      	subs	r2, #64	; 0x40
  40766e:	d2bd      	bcs.n	4075ec <memcpy+0x10>
  407670:	3230      	adds	r2, #48	; 0x30
  407672:	d311      	bcc.n	407698 <memcpy+0xbc>
  407674:	f851 3b04 	ldr.w	r3, [r1], #4
  407678:	f840 3b04 	str.w	r3, [r0], #4
  40767c:	f851 3b04 	ldr.w	r3, [r1], #4
  407680:	f840 3b04 	str.w	r3, [r0], #4
  407684:	f851 3b04 	ldr.w	r3, [r1], #4
  407688:	f840 3b04 	str.w	r3, [r0], #4
  40768c:	f851 3b04 	ldr.w	r3, [r1], #4
  407690:	f840 3b04 	str.w	r3, [r0], #4
  407694:	3a10      	subs	r2, #16
  407696:	d2ed      	bcs.n	407674 <memcpy+0x98>
  407698:	320c      	adds	r2, #12
  40769a:	d305      	bcc.n	4076a8 <memcpy+0xcc>
  40769c:	f851 3b04 	ldr.w	r3, [r1], #4
  4076a0:	f840 3b04 	str.w	r3, [r0], #4
  4076a4:	3a04      	subs	r2, #4
  4076a6:	d2f9      	bcs.n	40769c <memcpy+0xc0>
  4076a8:	3204      	adds	r2, #4
  4076aa:	d008      	beq.n	4076be <memcpy+0xe2>
  4076ac:	07d2      	lsls	r2, r2, #31
  4076ae:	bf1c      	itt	ne
  4076b0:	f811 3b01 	ldrbne.w	r3, [r1], #1
  4076b4:	f800 3b01 	strbne.w	r3, [r0], #1
  4076b8:	d301      	bcc.n	4076be <memcpy+0xe2>
  4076ba:	880b      	ldrh	r3, [r1, #0]
  4076bc:	8003      	strh	r3, [r0, #0]
  4076be:	4660      	mov	r0, ip
  4076c0:	4770      	bx	lr
  4076c2:	bf00      	nop
  4076c4:	2a08      	cmp	r2, #8
  4076c6:	d313      	bcc.n	4076f0 <memcpy+0x114>
  4076c8:	078b      	lsls	r3, r1, #30
  4076ca:	d08d      	beq.n	4075e8 <memcpy+0xc>
  4076cc:	f010 0303 	ands.w	r3, r0, #3
  4076d0:	d08a      	beq.n	4075e8 <memcpy+0xc>
  4076d2:	f1c3 0304 	rsb	r3, r3, #4
  4076d6:	1ad2      	subs	r2, r2, r3
  4076d8:	07db      	lsls	r3, r3, #31
  4076da:	bf1c      	itt	ne
  4076dc:	f811 3b01 	ldrbne.w	r3, [r1], #1
  4076e0:	f800 3b01 	strbne.w	r3, [r0], #1
  4076e4:	d380      	bcc.n	4075e8 <memcpy+0xc>
  4076e6:	f831 3b02 	ldrh.w	r3, [r1], #2
  4076ea:	f820 3b02 	strh.w	r3, [r0], #2
  4076ee:	e77b      	b.n	4075e8 <memcpy+0xc>
  4076f0:	3a04      	subs	r2, #4
  4076f2:	d3d9      	bcc.n	4076a8 <memcpy+0xcc>
  4076f4:	3a01      	subs	r2, #1
  4076f6:	f811 3b01 	ldrb.w	r3, [r1], #1
  4076fa:	f800 3b01 	strb.w	r3, [r0], #1
  4076fe:	d2f9      	bcs.n	4076f4 <memcpy+0x118>
  407700:	780b      	ldrb	r3, [r1, #0]
  407702:	7003      	strb	r3, [r0, #0]
  407704:	784b      	ldrb	r3, [r1, #1]
  407706:	7043      	strb	r3, [r0, #1]
  407708:	788b      	ldrb	r3, [r1, #2]
  40770a:	7083      	strb	r3, [r0, #2]
  40770c:	4660      	mov	r0, ip
  40770e:	4770      	bx	lr

00407710 <memset>:
  407710:	b470      	push	{r4, r5, r6}
  407712:	0786      	lsls	r6, r0, #30
  407714:	d046      	beq.n	4077a4 <memset+0x94>
  407716:	1e54      	subs	r4, r2, #1
  407718:	2a00      	cmp	r2, #0
  40771a:	d041      	beq.n	4077a0 <memset+0x90>
  40771c:	b2ca      	uxtb	r2, r1
  40771e:	4603      	mov	r3, r0
  407720:	e002      	b.n	407728 <memset+0x18>
  407722:	f114 34ff 	adds.w	r4, r4, #4294967295
  407726:	d33b      	bcc.n	4077a0 <memset+0x90>
  407728:	f803 2b01 	strb.w	r2, [r3], #1
  40772c:	079d      	lsls	r5, r3, #30
  40772e:	d1f8      	bne.n	407722 <memset+0x12>
  407730:	2c03      	cmp	r4, #3
  407732:	d92e      	bls.n	407792 <memset+0x82>
  407734:	b2cd      	uxtb	r5, r1
  407736:	ea45 2505 	orr.w	r5, r5, r5, lsl #8
  40773a:	2c0f      	cmp	r4, #15
  40773c:	ea45 4505 	orr.w	r5, r5, r5, lsl #16
  407740:	d919      	bls.n	407776 <memset+0x66>
  407742:	f103 0210 	add.w	r2, r3, #16
  407746:	4626      	mov	r6, r4
  407748:	3e10      	subs	r6, #16
  40774a:	2e0f      	cmp	r6, #15
  40774c:	f842 5c10 	str.w	r5, [r2, #-16]
  407750:	f842 5c0c 	str.w	r5, [r2, #-12]
  407754:	f842 5c08 	str.w	r5, [r2, #-8]
  407758:	f842 5c04 	str.w	r5, [r2, #-4]
  40775c:	f102 0210 	add.w	r2, r2, #16
  407760:	d8f2      	bhi.n	407748 <memset+0x38>
  407762:	f1a4 0210 	sub.w	r2, r4, #16
  407766:	f022 020f 	bic.w	r2, r2, #15
  40776a:	f004 040f 	and.w	r4, r4, #15
  40776e:	3210      	adds	r2, #16
  407770:	2c03      	cmp	r4, #3
  407772:	4413      	add	r3, r2
  407774:	d90d      	bls.n	407792 <memset+0x82>
  407776:	461e      	mov	r6, r3
  407778:	4622      	mov	r2, r4
  40777a:	3a04      	subs	r2, #4
  40777c:	2a03      	cmp	r2, #3
  40777e:	f846 5b04 	str.w	r5, [r6], #4
  407782:	d8fa      	bhi.n	40777a <memset+0x6a>
  407784:	1f22      	subs	r2, r4, #4
  407786:	f022 0203 	bic.w	r2, r2, #3
  40778a:	3204      	adds	r2, #4
  40778c:	4413      	add	r3, r2
  40778e:	f004 0403 	and.w	r4, r4, #3
  407792:	b12c      	cbz	r4, 4077a0 <memset+0x90>
  407794:	b2c9      	uxtb	r1, r1
  407796:	441c      	add	r4, r3
  407798:	f803 1b01 	strb.w	r1, [r3], #1
  40779c:	429c      	cmp	r4, r3
  40779e:	d1fb      	bne.n	407798 <memset+0x88>
  4077a0:	bc70      	pop	{r4, r5, r6}
  4077a2:	4770      	bx	lr
  4077a4:	4614      	mov	r4, r2
  4077a6:	4603      	mov	r3, r0
  4077a8:	e7c2      	b.n	407730 <memset+0x20>
  4077aa:	bf00      	nop

004077ac <setbuf>:
  4077ac:	2900      	cmp	r1, #0
  4077ae:	bf0c      	ite	eq
  4077b0:	2202      	moveq	r2, #2
  4077b2:	2200      	movne	r2, #0
  4077b4:	f44f 6380 	mov.w	r3, #1024	; 0x400
  4077b8:	f000 b800 	b.w	4077bc <setvbuf>

004077bc <setvbuf>:
  4077bc:	e92d 43f0 	stmdb	sp!, {r4, r5, r6, r7, r8, r9, lr}
  4077c0:	4c61      	ldr	r4, [pc, #388]	; (407948 <setvbuf+0x18c>)
  4077c2:	6825      	ldr	r5, [r4, #0]
  4077c4:	b083      	sub	sp, #12
  4077c6:	4604      	mov	r4, r0
  4077c8:	460f      	mov	r7, r1
  4077ca:	4690      	mov	r8, r2
  4077cc:	461e      	mov	r6, r3
  4077ce:	b115      	cbz	r5, 4077d6 <setvbuf+0x1a>
  4077d0:	6bab      	ldr	r3, [r5, #56]	; 0x38
  4077d2:	2b00      	cmp	r3, #0
  4077d4:	d064      	beq.n	4078a0 <setvbuf+0xe4>
  4077d6:	f1b8 0f02 	cmp.w	r8, #2
  4077da:	d006      	beq.n	4077ea <setvbuf+0x2e>
  4077dc:	f1b8 0f01 	cmp.w	r8, #1
  4077e0:	f200 809f 	bhi.w	407922 <setvbuf+0x166>
  4077e4:	2e00      	cmp	r6, #0
  4077e6:	f2c0 809c 	blt.w	407922 <setvbuf+0x166>
  4077ea:	6e63      	ldr	r3, [r4, #100]	; 0x64
  4077ec:	07d8      	lsls	r0, r3, #31
  4077ee:	d534      	bpl.n	40785a <setvbuf+0x9e>
  4077f0:	4621      	mov	r1, r4
  4077f2:	4628      	mov	r0, r5
  4077f4:	f003 fb7e 	bl	40aef4 <_fflush_r>
  4077f8:	6b21      	ldr	r1, [r4, #48]	; 0x30
  4077fa:	b141      	cbz	r1, 40780e <setvbuf+0x52>
  4077fc:	f104 0340 	add.w	r3, r4, #64	; 0x40
  407800:	4299      	cmp	r1, r3
  407802:	d002      	beq.n	40780a <setvbuf+0x4e>
  407804:	4628      	mov	r0, r5
  407806:	f003 fcf3 	bl	40b1f0 <_free_r>
  40780a:	2300      	movs	r3, #0
  40780c:	6323      	str	r3, [r4, #48]	; 0x30
  40780e:	f9b4 300c 	ldrsh.w	r3, [r4, #12]
  407812:	2200      	movs	r2, #0
  407814:	61a2      	str	r2, [r4, #24]
  407816:	6062      	str	r2, [r4, #4]
  407818:	061a      	lsls	r2, r3, #24
  40781a:	d43a      	bmi.n	407892 <setvbuf+0xd6>
  40781c:	f423 634a 	bic.w	r3, r3, #3232	; 0xca0
  407820:	f023 0303 	bic.w	r3, r3, #3
  407824:	f1b8 0f02 	cmp.w	r8, #2
  407828:	81a3      	strh	r3, [r4, #12]
  40782a:	d01d      	beq.n	407868 <setvbuf+0xac>
  40782c:	ab01      	add	r3, sp, #4
  40782e:	466a      	mov	r2, sp
  407830:	4621      	mov	r1, r4
  407832:	4628      	mov	r0, r5
  407834:	f003 ff88 	bl	40b748 <__swhatbuf_r>
  407838:	89a3      	ldrh	r3, [r4, #12]
  40783a:	4318      	orrs	r0, r3
  40783c:	81a0      	strh	r0, [r4, #12]
  40783e:	2e00      	cmp	r6, #0
  407840:	d132      	bne.n	4078a8 <setvbuf+0xec>
  407842:	9e00      	ldr	r6, [sp, #0]
  407844:	4630      	mov	r0, r6
  407846:	f003 fff7 	bl	40b838 <malloc>
  40784a:	4607      	mov	r7, r0
  40784c:	2800      	cmp	r0, #0
  40784e:	d06b      	beq.n	407928 <setvbuf+0x16c>
  407850:	89a3      	ldrh	r3, [r4, #12]
  407852:	f043 0380 	orr.w	r3, r3, #128	; 0x80
  407856:	81a3      	strh	r3, [r4, #12]
  407858:	e028      	b.n	4078ac <setvbuf+0xf0>
  40785a:	89a3      	ldrh	r3, [r4, #12]
  40785c:	0599      	lsls	r1, r3, #22
  40785e:	d4c7      	bmi.n	4077f0 <setvbuf+0x34>
  407860:	6da0      	ldr	r0, [r4, #88]	; 0x58
  407862:	f003 ff6d 	bl	40b740 <__retarget_lock_acquire_recursive>
  407866:	e7c3      	b.n	4077f0 <setvbuf+0x34>
  407868:	2500      	movs	r5, #0
  40786a:	6e61      	ldr	r1, [r4, #100]	; 0x64
  40786c:	2600      	movs	r6, #0
  40786e:	f104 0243 	add.w	r2, r4, #67	; 0x43
  407872:	f043 0302 	orr.w	r3, r3, #2
  407876:	2001      	movs	r0, #1
  407878:	60a6      	str	r6, [r4, #8]
  40787a:	07ce      	lsls	r6, r1, #31
  40787c:	81a3      	strh	r3, [r4, #12]
  40787e:	6022      	str	r2, [r4, #0]
  407880:	6122      	str	r2, [r4, #16]
  407882:	6160      	str	r0, [r4, #20]
  407884:	d401      	bmi.n	40788a <setvbuf+0xce>
  407886:	0598      	lsls	r0, r3, #22
  407888:	d53e      	bpl.n	407908 <setvbuf+0x14c>
  40788a:	4628      	mov	r0, r5
  40788c:	b003      	add	sp, #12
  40788e:	e8bd 83f0 	ldmia.w	sp!, {r4, r5, r6, r7, r8, r9, pc}
  407892:	6921      	ldr	r1, [r4, #16]
  407894:	4628      	mov	r0, r5
  407896:	f003 fcab 	bl	40b1f0 <_free_r>
  40789a:	f9b4 300c 	ldrsh.w	r3, [r4, #12]
  40789e:	e7bd      	b.n	40781c <setvbuf+0x60>
  4078a0:	4628      	mov	r0, r5
  4078a2:	f003 fb7f 	bl	40afa4 <__sinit>
  4078a6:	e796      	b.n	4077d6 <setvbuf+0x1a>
  4078a8:	2f00      	cmp	r7, #0
  4078aa:	d0cb      	beq.n	407844 <setvbuf+0x88>
  4078ac:	6bab      	ldr	r3, [r5, #56]	; 0x38
  4078ae:	2b00      	cmp	r3, #0
  4078b0:	d033      	beq.n	40791a <setvbuf+0x15e>
  4078b2:	9b00      	ldr	r3, [sp, #0]
  4078b4:	f9b4 200c 	ldrsh.w	r2, [r4, #12]
  4078b8:	6027      	str	r7, [r4, #0]
  4078ba:	429e      	cmp	r6, r3
  4078bc:	bf1c      	itt	ne
  4078be:	f442 6200 	orrne.w	r2, r2, #2048	; 0x800
  4078c2:	81a2      	strhne	r2, [r4, #12]
  4078c4:	f1b8 0f01 	cmp.w	r8, #1
  4078c8:	bf04      	itt	eq
  4078ca:	f042 0201 	orreq.w	r2, r2, #1
  4078ce:	81a2      	strheq	r2, [r4, #12]
  4078d0:	b292      	uxth	r2, r2
  4078d2:	f012 0308 	ands.w	r3, r2, #8
  4078d6:	6127      	str	r7, [r4, #16]
  4078d8:	6166      	str	r6, [r4, #20]
  4078da:	d00e      	beq.n	4078fa <setvbuf+0x13e>
  4078dc:	07d1      	lsls	r1, r2, #31
  4078de:	d51a      	bpl.n	407916 <setvbuf+0x15a>
  4078e0:	6e65      	ldr	r5, [r4, #100]	; 0x64
  4078e2:	4276      	negs	r6, r6
  4078e4:	2300      	movs	r3, #0
  4078e6:	f015 0501 	ands.w	r5, r5, #1
  4078ea:	61a6      	str	r6, [r4, #24]
  4078ec:	60a3      	str	r3, [r4, #8]
  4078ee:	d009      	beq.n	407904 <setvbuf+0x148>
  4078f0:	2500      	movs	r5, #0
  4078f2:	4628      	mov	r0, r5
  4078f4:	b003      	add	sp, #12
  4078f6:	e8bd 83f0 	ldmia.w	sp!, {r4, r5, r6, r7, r8, r9, pc}
  4078fa:	60a3      	str	r3, [r4, #8]
  4078fc:	6e65      	ldr	r5, [r4, #100]	; 0x64
  4078fe:	f015 0501 	ands.w	r5, r5, #1
  407902:	d1f5      	bne.n	4078f0 <setvbuf+0x134>
  407904:	0593      	lsls	r3, r2, #22
  407906:	d4c0      	bmi.n	40788a <setvbuf+0xce>
  407908:	6da0      	ldr	r0, [r4, #88]	; 0x58
  40790a:	f003 ff1b 	bl	40b744 <__retarget_lock_release_recursive>
  40790e:	4628      	mov	r0, r5
  407910:	b003      	add	sp, #12
  407912:	e8bd 83f0 	ldmia.w	sp!, {r4, r5, r6, r7, r8, r9, pc}
  407916:	60a6      	str	r6, [r4, #8]
  407918:	e7f0      	b.n	4078fc <setvbuf+0x140>
  40791a:	4628      	mov	r0, r5
  40791c:	f003 fb42 	bl	40afa4 <__sinit>
  407920:	e7c7      	b.n	4078b2 <setvbuf+0xf6>
  407922:	f04f 35ff 	mov.w	r5, #4294967295
  407926:	e7b0      	b.n	40788a <setvbuf+0xce>
  407928:	f8dd 9000 	ldr.w	r9, [sp]
  40792c:	45b1      	cmp	r9, r6
  40792e:	d004      	beq.n	40793a <setvbuf+0x17e>
  407930:	4648      	mov	r0, r9
  407932:	f003 ff81 	bl	40b838 <malloc>
  407936:	4607      	mov	r7, r0
  407938:	b920      	cbnz	r0, 407944 <setvbuf+0x188>
  40793a:	f9b4 300c 	ldrsh.w	r3, [r4, #12]
  40793e:	f04f 35ff 	mov.w	r5, #4294967295
  407942:	e792      	b.n	40786a <setvbuf+0xae>
  407944:	464e      	mov	r6, r9
  407946:	e783      	b.n	407850 <setvbuf+0x94>
  407948:	20400028 	.word	0x20400028

0040794c <sprintf>:
  40794c:	b40e      	push	{r1, r2, r3}
  40794e:	b5f0      	push	{r4, r5, r6, r7, lr}
  407950:	b09c      	sub	sp, #112	; 0x70
  407952:	ab21      	add	r3, sp, #132	; 0x84
  407954:	490f      	ldr	r1, [pc, #60]	; (407994 <sprintf+0x48>)
  407956:	f853 2b04 	ldr.w	r2, [r3], #4
  40795a:	9301      	str	r3, [sp, #4]
  40795c:	4605      	mov	r5, r0
  40795e:	f06f 4400 	mvn.w	r4, #2147483648	; 0x80000000
  407962:	6808      	ldr	r0, [r1, #0]
  407964:	9502      	str	r5, [sp, #8]
  407966:	f44f 7702 	mov.w	r7, #520	; 0x208
  40796a:	f64f 76ff 	movw	r6, #65535	; 0xffff
  40796e:	a902      	add	r1, sp, #8
  407970:	9506      	str	r5, [sp, #24]
  407972:	f8ad 7014 	strh.w	r7, [sp, #20]
  407976:	9404      	str	r4, [sp, #16]
  407978:	9407      	str	r4, [sp, #28]
  40797a:	f8ad 6016 	strh.w	r6, [sp, #22]
  40797e:	f000 f8ed 	bl	407b5c <_svfprintf_r>
  407982:	9b02      	ldr	r3, [sp, #8]
  407984:	2200      	movs	r2, #0
  407986:	701a      	strb	r2, [r3, #0]
  407988:	b01c      	add	sp, #112	; 0x70
  40798a:	e8bd 40f0 	ldmia.w	sp!, {r4, r5, r6, r7, lr}
  40798e:	b003      	add	sp, #12
  407990:	4770      	bx	lr
  407992:	bf00      	nop
  407994:	20400028 	.word	0x20400028

00407998 <strcpy>:
  407998:	ea80 0201 	eor.w	r2, r0, r1
  40799c:	4684      	mov	ip, r0
  40799e:	f012 0f03 	tst.w	r2, #3
  4079a2:	d14f      	bne.n	407a44 <strcpy+0xac>
  4079a4:	f011 0f03 	tst.w	r1, #3
  4079a8:	d132      	bne.n	407a10 <strcpy+0x78>
  4079aa:	f84d 4d04 	str.w	r4, [sp, #-4]!
  4079ae:	f011 0f04 	tst.w	r1, #4
  4079b2:	f851 3b04 	ldr.w	r3, [r1], #4
  4079b6:	d00b      	beq.n	4079d0 <strcpy+0x38>
  4079b8:	f1a3 3201 	sub.w	r2, r3, #16843009	; 0x1010101
  4079bc:	439a      	bics	r2, r3
  4079be:	f012 3f80 	tst.w	r2, #2155905152	; 0x80808080
  4079c2:	bf04      	itt	eq
  4079c4:	f84c 3b04 	streq.w	r3, [ip], #4
  4079c8:	f851 3b04 	ldreq.w	r3, [r1], #4
  4079cc:	d116      	bne.n	4079fc <strcpy+0x64>
  4079ce:	bf00      	nop
  4079d0:	f851 4b04 	ldr.w	r4, [r1], #4
  4079d4:	f1a3 3201 	sub.w	r2, r3, #16843009	; 0x1010101
  4079d8:	439a      	bics	r2, r3
  4079da:	f012 3f80 	tst.w	r2, #2155905152	; 0x80808080
  4079de:	f1a4 3201 	sub.w	r2, r4, #16843009	; 0x1010101
  4079e2:	d10b      	bne.n	4079fc <strcpy+0x64>
  4079e4:	f84c 3b04 	str.w	r3, [ip], #4
  4079e8:	43a2      	bics	r2, r4
  4079ea:	f012 3f80 	tst.w	r2, #2155905152	; 0x80808080
  4079ee:	bf04      	itt	eq
  4079f0:	f851 3b04 	ldreq.w	r3, [r1], #4
  4079f4:	f84c 4b04 	streq.w	r4, [ip], #4
  4079f8:	d0ea      	beq.n	4079d0 <strcpy+0x38>
  4079fa:	4623      	mov	r3, r4
  4079fc:	f80c 3b01 	strb.w	r3, [ip], #1
  407a00:	f013 0fff 	tst.w	r3, #255	; 0xff
  407a04:	ea4f 2333 	mov.w	r3, r3, ror #8
  407a08:	d1f8      	bne.n	4079fc <strcpy+0x64>
  407a0a:	f85d 4b04 	ldr.w	r4, [sp], #4
  407a0e:	4770      	bx	lr
  407a10:	f011 0f01 	tst.w	r1, #1
  407a14:	d006      	beq.n	407a24 <strcpy+0x8c>
  407a16:	f811 2b01 	ldrb.w	r2, [r1], #1
  407a1a:	f80c 2b01 	strb.w	r2, [ip], #1
  407a1e:	2a00      	cmp	r2, #0
  407a20:	bf08      	it	eq
  407a22:	4770      	bxeq	lr
  407a24:	f011 0f02 	tst.w	r1, #2
  407a28:	d0bf      	beq.n	4079aa <strcpy+0x12>
  407a2a:	f831 2b02 	ldrh.w	r2, [r1], #2
  407a2e:	f012 0fff 	tst.w	r2, #255	; 0xff
  407a32:	bf16      	itet	ne
  407a34:	f82c 2b02 	strhne.w	r2, [ip], #2
  407a38:	f88c 2000 	strbeq.w	r2, [ip]
  407a3c:	f412 4f7f 	tstne.w	r2, #65280	; 0xff00
  407a40:	d1b3      	bne.n	4079aa <strcpy+0x12>
  407a42:	4770      	bx	lr
  407a44:	f811 2b01 	ldrb.w	r2, [r1], #1
  407a48:	f80c 2b01 	strb.w	r2, [ip], #1
  407a4c:	2a00      	cmp	r2, #0
  407a4e:	d1f9      	bne.n	407a44 <strcpy+0xac>
  407a50:	4770      	bx	lr
  407a52:	bf00      	nop
	...

00407a80 <strlen>:
  407a80:	f890 f000 	pld	[r0]
  407a84:	e96d 4502 	strd	r4, r5, [sp, #-8]!
  407a88:	f020 0107 	bic.w	r1, r0, #7
  407a8c:	f06f 0c00 	mvn.w	ip, #0
  407a90:	f010 0407 	ands.w	r4, r0, #7
  407a94:	f891 f020 	pld	[r1, #32]
  407a98:	f040 8049 	bne.w	407b2e <strlen+0xae>
  407a9c:	f04f 0400 	mov.w	r4, #0
  407aa0:	f06f 0007 	mvn.w	r0, #7
  407aa4:	e9d1 2300 	ldrd	r2, r3, [r1]
  407aa8:	f891 f040 	pld	[r1, #64]	; 0x40
  407aac:	f100 0008 	add.w	r0, r0, #8
  407ab0:	fa82 f24c 	uadd8	r2, r2, ip
  407ab4:	faa4 f28c 	sel	r2, r4, ip
  407ab8:	fa83 f34c 	uadd8	r3, r3, ip
  407abc:	faa2 f38c 	sel	r3, r2, ip
  407ac0:	bb4b      	cbnz	r3, 407b16 <strlen+0x96>
  407ac2:	e9d1 2302 	ldrd	r2, r3, [r1, #8]
  407ac6:	fa82 f24c 	uadd8	r2, r2, ip
  407aca:	f100 0008 	add.w	r0, r0, #8
  407ace:	faa4 f28c 	sel	r2, r4, ip
  407ad2:	fa83 f34c 	uadd8	r3, r3, ip
  407ad6:	faa2 f38c 	sel	r3, r2, ip
  407ada:	b9e3      	cbnz	r3, 407b16 <strlen+0x96>
  407adc:	e9d1 2304 	ldrd	r2, r3, [r1, #16]
  407ae0:	fa82 f24c 	uadd8	r2, r2, ip
  407ae4:	f100 0008 	add.w	r0, r0, #8
  407ae8:	faa4 f28c 	sel	r2, r4, ip
  407aec:	fa83 f34c 	uadd8	r3, r3, ip
  407af0:	faa2 f38c 	sel	r3, r2, ip
  407af4:	b97b      	cbnz	r3, 407b16 <strlen+0x96>
  407af6:	e9d1 2306 	ldrd	r2, r3, [r1, #24]
  407afa:	f101 0120 	add.w	r1, r1, #32
  407afe:	fa82 f24c 	uadd8	r2, r2, ip
  407b02:	f100 0008 	add.w	r0, r0, #8
  407b06:	faa4 f28c 	sel	r2, r4, ip
  407b0a:	fa83 f34c 	uadd8	r3, r3, ip
  407b0e:	faa2 f38c 	sel	r3, r2, ip
  407b12:	2b00      	cmp	r3, #0
  407b14:	d0c6      	beq.n	407aa4 <strlen+0x24>
  407b16:	2a00      	cmp	r2, #0
  407b18:	bf04      	itt	eq
  407b1a:	3004      	addeq	r0, #4
  407b1c:	461a      	moveq	r2, r3
  407b1e:	ba12      	rev	r2, r2
  407b20:	fab2 f282 	clz	r2, r2
  407b24:	e8fd 4502 	ldrd	r4, r5, [sp], #8
  407b28:	eb00 00d2 	add.w	r0, r0, r2, lsr #3
  407b2c:	4770      	bx	lr
  407b2e:	e9d1 2300 	ldrd	r2, r3, [r1]
  407b32:	f004 0503 	and.w	r5, r4, #3
  407b36:	f1c4 0000 	rsb	r0, r4, #0
  407b3a:	ea4f 05c5 	mov.w	r5, r5, lsl #3
  407b3e:	f014 0f04 	tst.w	r4, #4
  407b42:	f891 f040 	pld	[r1, #64]	; 0x40
  407b46:	fa0c f505 	lsl.w	r5, ip, r5
  407b4a:	ea62 0205 	orn	r2, r2, r5
  407b4e:	bf1c      	itt	ne
  407b50:	ea63 0305 	ornne	r3, r3, r5
  407b54:	4662      	movne	r2, ip
  407b56:	f04f 0400 	mov.w	r4, #0
  407b5a:	e7a9      	b.n	407ab0 <strlen+0x30>

00407b5c <_svfprintf_r>:
  407b5c:	e92d 4ff0 	stmdb	sp!, {r4, r5, r6, r7, r8, r9, sl, fp, lr}
  407b60:	b0c3      	sub	sp, #268	; 0x10c
  407b62:	460c      	mov	r4, r1
  407b64:	910b      	str	r1, [sp, #44]	; 0x2c
  407b66:	4692      	mov	sl, r2
  407b68:	930f      	str	r3, [sp, #60]	; 0x3c
  407b6a:	900c      	str	r0, [sp, #48]	; 0x30
  407b6c:	f003 fdd6 	bl	40b71c <_localeconv_r>
  407b70:	6803      	ldr	r3, [r0, #0]
  407b72:	931a      	str	r3, [sp, #104]	; 0x68
  407b74:	4618      	mov	r0, r3
  407b76:	f7ff ff83 	bl	407a80 <strlen>
  407b7a:	89a3      	ldrh	r3, [r4, #12]
  407b7c:	9019      	str	r0, [sp, #100]	; 0x64
  407b7e:	0619      	lsls	r1, r3, #24
  407b80:	d503      	bpl.n	407b8a <_svfprintf_r+0x2e>
  407b82:	6923      	ldr	r3, [r4, #16]
  407b84:	2b00      	cmp	r3, #0
  407b86:	f001 8003 	beq.w	408b90 <_svfprintf_r+0x1034>
  407b8a:	2300      	movs	r3, #0
  407b8c:	f10d 09c8 	add.w	r9, sp, #200	; 0xc8
  407b90:	9313      	str	r3, [sp, #76]	; 0x4c
  407b92:	9315      	str	r3, [sp, #84]	; 0x54
  407b94:	9314      	str	r3, [sp, #80]	; 0x50
  407b96:	9327      	str	r3, [sp, #156]	; 0x9c
  407b98:	9326      	str	r3, [sp, #152]	; 0x98
  407b9a:	9318      	str	r3, [sp, #96]	; 0x60
  407b9c:	931b      	str	r3, [sp, #108]	; 0x6c
  407b9e:	9309      	str	r3, [sp, #36]	; 0x24
  407ba0:	f8cd 9094 	str.w	r9, [sp, #148]	; 0x94
  407ba4:	46c8      	mov	r8, r9
  407ba6:	9316      	str	r3, [sp, #88]	; 0x58
  407ba8:	9317      	str	r3, [sp, #92]	; 0x5c
  407baa:	f89a 3000 	ldrb.w	r3, [sl]
  407bae:	4654      	mov	r4, sl
  407bb0:	b1e3      	cbz	r3, 407bec <_svfprintf_r+0x90>
  407bb2:	2b25      	cmp	r3, #37	; 0x25
  407bb4:	d102      	bne.n	407bbc <_svfprintf_r+0x60>
  407bb6:	e019      	b.n	407bec <_svfprintf_r+0x90>
  407bb8:	2b25      	cmp	r3, #37	; 0x25
  407bba:	d003      	beq.n	407bc4 <_svfprintf_r+0x68>
  407bbc:	f814 3f01 	ldrb.w	r3, [r4, #1]!
  407bc0:	2b00      	cmp	r3, #0
  407bc2:	d1f9      	bne.n	407bb8 <_svfprintf_r+0x5c>
  407bc4:	eba4 050a 	sub.w	r5, r4, sl
  407bc8:	b185      	cbz	r5, 407bec <_svfprintf_r+0x90>
  407bca:	9b26      	ldr	r3, [sp, #152]	; 0x98
  407bcc:	9a27      	ldr	r2, [sp, #156]	; 0x9c
  407bce:	f8c8 a000 	str.w	sl, [r8]
  407bd2:	3301      	adds	r3, #1
  407bd4:	442a      	add	r2, r5
  407bd6:	2b07      	cmp	r3, #7
  407bd8:	f8c8 5004 	str.w	r5, [r8, #4]
  407bdc:	9227      	str	r2, [sp, #156]	; 0x9c
  407bde:	9326      	str	r3, [sp, #152]	; 0x98
  407be0:	dc7f      	bgt.n	407ce2 <_svfprintf_r+0x186>
  407be2:	f108 0808 	add.w	r8, r8, #8
  407be6:	9b09      	ldr	r3, [sp, #36]	; 0x24
  407be8:	442b      	add	r3, r5
  407bea:	9309      	str	r3, [sp, #36]	; 0x24
  407bec:	7823      	ldrb	r3, [r4, #0]
  407bee:	2b00      	cmp	r3, #0
  407bf0:	d07f      	beq.n	407cf2 <_svfprintf_r+0x196>
  407bf2:	2300      	movs	r3, #0
  407bf4:	461a      	mov	r2, r3
  407bf6:	f88d 3077 	strb.w	r3, [sp, #119]	; 0x77
  407bfa:	4619      	mov	r1, r3
  407bfc:	930d      	str	r3, [sp, #52]	; 0x34
  407bfe:	469b      	mov	fp, r3
  407c00:	f04f 30ff 	mov.w	r0, #4294967295
  407c04:	7863      	ldrb	r3, [r4, #1]
  407c06:	900a      	str	r0, [sp, #40]	; 0x28
  407c08:	f104 0a01 	add.w	sl, r4, #1
  407c0c:	f10a 0a01 	add.w	sl, sl, #1
  407c10:	f1a3 0020 	sub.w	r0, r3, #32
  407c14:	2858      	cmp	r0, #88	; 0x58
  407c16:	f200 83c1 	bhi.w	40839c <_svfprintf_r+0x840>
  407c1a:	e8df f010 	tbh	[pc, r0, lsl #1]
  407c1e:	0238      	.short	0x0238
  407c20:	03bf03bf 	.word	0x03bf03bf
  407c24:	03bf0240 	.word	0x03bf0240
  407c28:	03bf03bf 	.word	0x03bf03bf
  407c2c:	03bf03bf 	.word	0x03bf03bf
  407c30:	024503bf 	.word	0x024503bf
  407c34:	03bf0203 	.word	0x03bf0203
  407c38:	026b005d 	.word	0x026b005d
  407c3c:	028603bf 	.word	0x028603bf
  407c40:	039d039d 	.word	0x039d039d
  407c44:	039d039d 	.word	0x039d039d
  407c48:	039d039d 	.word	0x039d039d
  407c4c:	039d039d 	.word	0x039d039d
  407c50:	03bf039d 	.word	0x03bf039d
  407c54:	03bf03bf 	.word	0x03bf03bf
  407c58:	03bf03bf 	.word	0x03bf03bf
  407c5c:	03bf03bf 	.word	0x03bf03bf
  407c60:	03bf03bf 	.word	0x03bf03bf
  407c64:	033703bf 	.word	0x033703bf
  407c68:	03bf0357 	.word	0x03bf0357
  407c6c:	03bf0357 	.word	0x03bf0357
  407c70:	03bf03bf 	.word	0x03bf03bf
  407c74:	039803bf 	.word	0x039803bf
  407c78:	03bf03bf 	.word	0x03bf03bf
  407c7c:	03bf03ad 	.word	0x03bf03ad
  407c80:	03bf03bf 	.word	0x03bf03bf
  407c84:	03bf03bf 	.word	0x03bf03bf
  407c88:	03bf0259 	.word	0x03bf0259
  407c8c:	031e03bf 	.word	0x031e03bf
  407c90:	03bf03bf 	.word	0x03bf03bf
  407c94:	03bf03bf 	.word	0x03bf03bf
  407c98:	03bf03bf 	.word	0x03bf03bf
  407c9c:	03bf03bf 	.word	0x03bf03bf
  407ca0:	03bf03bf 	.word	0x03bf03bf
  407ca4:	02db02c6 	.word	0x02db02c6
  407ca8:	03570357 	.word	0x03570357
  407cac:	028b0357 	.word	0x028b0357
  407cb0:	03bf02db 	.word	0x03bf02db
  407cb4:	029003bf 	.word	0x029003bf
  407cb8:	029d03bf 	.word	0x029d03bf
  407cbc:	02b401cc 	.word	0x02b401cc
  407cc0:	03bf0208 	.word	0x03bf0208
  407cc4:	03bf01e1 	.word	0x03bf01e1
  407cc8:	03bf007e 	.word	0x03bf007e
  407ccc:	020d03bf 	.word	0x020d03bf
  407cd0:	980d      	ldr	r0, [sp, #52]	; 0x34
  407cd2:	930f      	str	r3, [sp, #60]	; 0x3c
  407cd4:	4240      	negs	r0, r0
  407cd6:	900d      	str	r0, [sp, #52]	; 0x34
  407cd8:	f04b 0b04 	orr.w	fp, fp, #4
  407cdc:	f89a 3000 	ldrb.w	r3, [sl]
  407ce0:	e794      	b.n	407c0c <_svfprintf_r+0xb0>
  407ce2:	aa25      	add	r2, sp, #148	; 0x94
  407ce4:	990b      	ldr	r1, [sp, #44]	; 0x2c
  407ce6:	980c      	ldr	r0, [sp, #48]	; 0x30
  407ce8:	f004 fe30 	bl	40c94c <__ssprint_r>
  407cec:	b940      	cbnz	r0, 407d00 <_svfprintf_r+0x1a4>
  407cee:	46c8      	mov	r8, r9
  407cf0:	e779      	b.n	407be6 <_svfprintf_r+0x8a>
  407cf2:	9b27      	ldr	r3, [sp, #156]	; 0x9c
  407cf4:	b123      	cbz	r3, 407d00 <_svfprintf_r+0x1a4>
  407cf6:	980c      	ldr	r0, [sp, #48]	; 0x30
  407cf8:	990b      	ldr	r1, [sp, #44]	; 0x2c
  407cfa:	aa25      	add	r2, sp, #148	; 0x94
  407cfc:	f004 fe26 	bl	40c94c <__ssprint_r>
  407d00:	9b0b      	ldr	r3, [sp, #44]	; 0x2c
  407d02:	899b      	ldrh	r3, [r3, #12]
  407d04:	f013 0f40 	tst.w	r3, #64	; 0x40
  407d08:	9b09      	ldr	r3, [sp, #36]	; 0x24
  407d0a:	bf18      	it	ne
  407d0c:	f04f 33ff 	movne.w	r3, #4294967295
  407d10:	9309      	str	r3, [sp, #36]	; 0x24
  407d12:	9809      	ldr	r0, [sp, #36]	; 0x24
  407d14:	b043      	add	sp, #268	; 0x10c
  407d16:	e8bd 8ff0 	ldmia.w	sp!, {r4, r5, r6, r7, r8, r9, sl, fp, pc}
  407d1a:	f01b 0f20 	tst.w	fp, #32
  407d1e:	9311      	str	r3, [sp, #68]	; 0x44
  407d20:	f040 81dd 	bne.w	4080de <_svfprintf_r+0x582>
  407d24:	9a0f      	ldr	r2, [sp, #60]	; 0x3c
  407d26:	f01b 0f10 	tst.w	fp, #16
  407d2a:	4613      	mov	r3, r2
  407d2c:	f040 856e 	bne.w	40880c <_svfprintf_r+0xcb0>
  407d30:	f01b 0f40 	tst.w	fp, #64	; 0x40
  407d34:	f000 856a 	beq.w	40880c <_svfprintf_r+0xcb0>
  407d38:	8814      	ldrh	r4, [r2, #0]
  407d3a:	3204      	adds	r2, #4
  407d3c:	2500      	movs	r5, #0
  407d3e:	2301      	movs	r3, #1
  407d40:	920f      	str	r2, [sp, #60]	; 0x3c
  407d42:	2700      	movs	r7, #0
  407d44:	f88d 7077 	strb.w	r7, [sp, #119]	; 0x77
  407d48:	990a      	ldr	r1, [sp, #40]	; 0x28
  407d4a:	1c4a      	adds	r2, r1, #1
  407d4c:	f000 8265 	beq.w	40821a <_svfprintf_r+0x6be>
  407d50:	f02b 0280 	bic.w	r2, fp, #128	; 0x80
  407d54:	9207      	str	r2, [sp, #28]
  407d56:	ea54 0205 	orrs.w	r2, r4, r5
  407d5a:	f040 8264 	bne.w	408226 <_svfprintf_r+0x6ca>
  407d5e:	2900      	cmp	r1, #0
  407d60:	f040 843c 	bne.w	4085dc <_svfprintf_r+0xa80>
  407d64:	2b00      	cmp	r3, #0
  407d66:	f040 84d7 	bne.w	408718 <_svfprintf_r+0xbbc>
  407d6a:	f01b 0301 	ands.w	r3, fp, #1
  407d6e:	930e      	str	r3, [sp, #56]	; 0x38
  407d70:	f000 8604 	beq.w	40897c <_svfprintf_r+0xe20>
  407d74:	ae42      	add	r6, sp, #264	; 0x108
  407d76:	2330      	movs	r3, #48	; 0x30
  407d78:	f806 3d41 	strb.w	r3, [r6, #-65]!
  407d7c:	9b0a      	ldr	r3, [sp, #40]	; 0x28
  407d7e:	9a0e      	ldr	r2, [sp, #56]	; 0x38
  407d80:	4293      	cmp	r3, r2
  407d82:	bfb8      	it	lt
  407d84:	4613      	movlt	r3, r2
  407d86:	9308      	str	r3, [sp, #32]
  407d88:	2300      	movs	r3, #0
  407d8a:	9312      	str	r3, [sp, #72]	; 0x48
  407d8c:	b117      	cbz	r7, 407d94 <_svfprintf_r+0x238>
  407d8e:	9b08      	ldr	r3, [sp, #32]
  407d90:	3301      	adds	r3, #1
  407d92:	9308      	str	r3, [sp, #32]
  407d94:	9b07      	ldr	r3, [sp, #28]
  407d96:	f013 0302 	ands.w	r3, r3, #2
  407d9a:	9310      	str	r3, [sp, #64]	; 0x40
  407d9c:	d002      	beq.n	407da4 <_svfprintf_r+0x248>
  407d9e:	9b08      	ldr	r3, [sp, #32]
  407da0:	3302      	adds	r3, #2
  407da2:	9308      	str	r3, [sp, #32]
  407da4:	9b07      	ldr	r3, [sp, #28]
  407da6:	f013 0584 	ands.w	r5, r3, #132	; 0x84
  407daa:	f040 830e 	bne.w	4083ca <_svfprintf_r+0x86e>
  407dae:	9b0d      	ldr	r3, [sp, #52]	; 0x34
  407db0:	9a08      	ldr	r2, [sp, #32]
  407db2:	eba3 0b02 	sub.w	fp, r3, r2
  407db6:	f1bb 0f00 	cmp.w	fp, #0
  407dba:	f340 8306 	ble.w	4083ca <_svfprintf_r+0x86e>
  407dbe:	f1bb 0f10 	cmp.w	fp, #16
  407dc2:	9c27      	ldr	r4, [sp, #156]	; 0x9c
  407dc4:	9a26      	ldr	r2, [sp, #152]	; 0x98
  407dc6:	dd29      	ble.n	407e1c <_svfprintf_r+0x2c0>
  407dc8:	4643      	mov	r3, r8
  407dca:	4621      	mov	r1, r4
  407dcc:	46a8      	mov	r8, r5
  407dce:	2710      	movs	r7, #16
  407dd0:	9c0c      	ldr	r4, [sp, #48]	; 0x30
  407dd2:	9d0b      	ldr	r5, [sp, #44]	; 0x2c
  407dd4:	e006      	b.n	407de4 <_svfprintf_r+0x288>
  407dd6:	f1ab 0b10 	sub.w	fp, fp, #16
  407dda:	f1bb 0f10 	cmp.w	fp, #16
  407dde:	f103 0308 	add.w	r3, r3, #8
  407de2:	dd18      	ble.n	407e16 <_svfprintf_r+0x2ba>
  407de4:	3201      	adds	r2, #1
  407de6:	48b7      	ldr	r0, [pc, #732]	; (4080c4 <_svfprintf_r+0x568>)
  407de8:	9226      	str	r2, [sp, #152]	; 0x98
  407dea:	3110      	adds	r1, #16
  407dec:	2a07      	cmp	r2, #7
  407dee:	9127      	str	r1, [sp, #156]	; 0x9c
  407df0:	e883 0081 	stmia.w	r3, {r0, r7}
  407df4:	ddef      	ble.n	407dd6 <_svfprintf_r+0x27a>
  407df6:	aa25      	add	r2, sp, #148	; 0x94
  407df8:	4629      	mov	r1, r5
  407dfa:	4620      	mov	r0, r4
  407dfc:	f004 fda6 	bl	40c94c <__ssprint_r>
  407e00:	2800      	cmp	r0, #0
  407e02:	f47f af7d 	bne.w	407d00 <_svfprintf_r+0x1a4>
  407e06:	f1ab 0b10 	sub.w	fp, fp, #16
  407e0a:	f1bb 0f10 	cmp.w	fp, #16
  407e0e:	9927      	ldr	r1, [sp, #156]	; 0x9c
  407e10:	9a26      	ldr	r2, [sp, #152]	; 0x98
  407e12:	464b      	mov	r3, r9
  407e14:	dce6      	bgt.n	407de4 <_svfprintf_r+0x288>
  407e16:	4645      	mov	r5, r8
  407e18:	460c      	mov	r4, r1
  407e1a:	4698      	mov	r8, r3
  407e1c:	3201      	adds	r2, #1
  407e1e:	4ba9      	ldr	r3, [pc, #676]	; (4080c4 <_svfprintf_r+0x568>)
  407e20:	9226      	str	r2, [sp, #152]	; 0x98
  407e22:	445c      	add	r4, fp
  407e24:	2a07      	cmp	r2, #7
  407e26:	9427      	str	r4, [sp, #156]	; 0x9c
  407e28:	e888 0808 	stmia.w	r8, {r3, fp}
  407e2c:	f300 8498 	bgt.w	408760 <_svfprintf_r+0xc04>
  407e30:	f89d 7077 	ldrb.w	r7, [sp, #119]	; 0x77
  407e34:	f108 0808 	add.w	r8, r8, #8
  407e38:	b177      	cbz	r7, 407e58 <_svfprintf_r+0x2fc>
  407e3a:	9b26      	ldr	r3, [sp, #152]	; 0x98
  407e3c:	3301      	adds	r3, #1
  407e3e:	3401      	adds	r4, #1
  407e40:	f10d 0177 	add.w	r1, sp, #119	; 0x77
  407e44:	2201      	movs	r2, #1
  407e46:	2b07      	cmp	r3, #7
  407e48:	9427      	str	r4, [sp, #156]	; 0x9c
  407e4a:	9326      	str	r3, [sp, #152]	; 0x98
  407e4c:	e888 0006 	stmia.w	r8, {r1, r2}
  407e50:	f300 83db 	bgt.w	40860a <_svfprintf_r+0xaae>
  407e54:	f108 0808 	add.w	r8, r8, #8
  407e58:	9b10      	ldr	r3, [sp, #64]	; 0x40
  407e5a:	b16b      	cbz	r3, 407e78 <_svfprintf_r+0x31c>
  407e5c:	9b26      	ldr	r3, [sp, #152]	; 0x98
  407e5e:	3301      	adds	r3, #1
  407e60:	3402      	adds	r4, #2
  407e62:	a91e      	add	r1, sp, #120	; 0x78
  407e64:	2202      	movs	r2, #2
  407e66:	2b07      	cmp	r3, #7
  407e68:	9427      	str	r4, [sp, #156]	; 0x9c
  407e6a:	9326      	str	r3, [sp, #152]	; 0x98
  407e6c:	e888 0006 	stmia.w	r8, {r1, r2}
  407e70:	f300 83d6 	bgt.w	408620 <_svfprintf_r+0xac4>
  407e74:	f108 0808 	add.w	r8, r8, #8
  407e78:	2d80      	cmp	r5, #128	; 0x80
  407e7a:	f000 8315 	beq.w	4084a8 <_svfprintf_r+0x94c>
  407e7e:	9b0a      	ldr	r3, [sp, #40]	; 0x28
  407e80:	9a0e      	ldr	r2, [sp, #56]	; 0x38
  407e82:	1a9f      	subs	r7, r3, r2
  407e84:	2f00      	cmp	r7, #0
  407e86:	dd36      	ble.n	407ef6 <_svfprintf_r+0x39a>
  407e88:	2f10      	cmp	r7, #16
  407e8a:	9b26      	ldr	r3, [sp, #152]	; 0x98
  407e8c:	4d8e      	ldr	r5, [pc, #568]	; (4080c8 <_svfprintf_r+0x56c>)
  407e8e:	dd27      	ble.n	407ee0 <_svfprintf_r+0x384>
  407e90:	4642      	mov	r2, r8
  407e92:	4621      	mov	r1, r4
  407e94:	46b0      	mov	r8, r6
  407e96:	f04f 0b10 	mov.w	fp, #16
  407e9a:	462e      	mov	r6, r5
  407e9c:	9c0c      	ldr	r4, [sp, #48]	; 0x30
  407e9e:	9d0b      	ldr	r5, [sp, #44]	; 0x2c
  407ea0:	e004      	b.n	407eac <_svfprintf_r+0x350>
  407ea2:	3f10      	subs	r7, #16
  407ea4:	2f10      	cmp	r7, #16
  407ea6:	f102 0208 	add.w	r2, r2, #8
  407eaa:	dd15      	ble.n	407ed8 <_svfprintf_r+0x37c>
  407eac:	3301      	adds	r3, #1
  407eae:	3110      	adds	r1, #16
  407eb0:	2b07      	cmp	r3, #7
  407eb2:	9127      	str	r1, [sp, #156]	; 0x9c
  407eb4:	9326      	str	r3, [sp, #152]	; 0x98
  407eb6:	e882 0840 	stmia.w	r2, {r6, fp}
  407eba:	ddf2      	ble.n	407ea2 <_svfprintf_r+0x346>
  407ebc:	aa25      	add	r2, sp, #148	; 0x94
  407ebe:	4629      	mov	r1, r5
  407ec0:	4620      	mov	r0, r4
  407ec2:	f004 fd43 	bl	40c94c <__ssprint_r>
  407ec6:	2800      	cmp	r0, #0
  407ec8:	f47f af1a 	bne.w	407d00 <_svfprintf_r+0x1a4>
  407ecc:	3f10      	subs	r7, #16
  407ece:	2f10      	cmp	r7, #16
  407ed0:	9927      	ldr	r1, [sp, #156]	; 0x9c
  407ed2:	9b26      	ldr	r3, [sp, #152]	; 0x98
  407ed4:	464a      	mov	r2, r9
  407ed6:	dce9      	bgt.n	407eac <_svfprintf_r+0x350>
  407ed8:	4635      	mov	r5, r6
  407eda:	460c      	mov	r4, r1
  407edc:	4646      	mov	r6, r8
  407ede:	4690      	mov	r8, r2
  407ee0:	3301      	adds	r3, #1
  407ee2:	443c      	add	r4, r7
  407ee4:	2b07      	cmp	r3, #7
  407ee6:	9427      	str	r4, [sp, #156]	; 0x9c
  407ee8:	9326      	str	r3, [sp, #152]	; 0x98
  407eea:	e888 00a0 	stmia.w	r8, {r5, r7}
  407eee:	f300 8381 	bgt.w	4085f4 <_svfprintf_r+0xa98>
  407ef2:	f108 0808 	add.w	r8, r8, #8
  407ef6:	9b07      	ldr	r3, [sp, #28]
  407ef8:	05df      	lsls	r7, r3, #23
  407efa:	f100 8268 	bmi.w	4083ce <_svfprintf_r+0x872>
  407efe:	9b26      	ldr	r3, [sp, #152]	; 0x98
  407f00:	990e      	ldr	r1, [sp, #56]	; 0x38
  407f02:	f8c8 6000 	str.w	r6, [r8]
  407f06:	3301      	adds	r3, #1
  407f08:	440c      	add	r4, r1
  407f0a:	2b07      	cmp	r3, #7
  407f0c:	9427      	str	r4, [sp, #156]	; 0x9c
  407f0e:	f8c8 1004 	str.w	r1, [r8, #4]
  407f12:	9326      	str	r3, [sp, #152]	; 0x98
  407f14:	f300 834d 	bgt.w	4085b2 <_svfprintf_r+0xa56>
  407f18:	f108 0808 	add.w	r8, r8, #8
  407f1c:	9b07      	ldr	r3, [sp, #28]
  407f1e:	075b      	lsls	r3, r3, #29
  407f20:	d53a      	bpl.n	407f98 <_svfprintf_r+0x43c>
  407f22:	9b0d      	ldr	r3, [sp, #52]	; 0x34
  407f24:	9a08      	ldr	r2, [sp, #32]
  407f26:	1a9d      	subs	r5, r3, r2
  407f28:	2d00      	cmp	r5, #0
  407f2a:	dd35      	ble.n	407f98 <_svfprintf_r+0x43c>
  407f2c:	2d10      	cmp	r5, #16
  407f2e:	9b26      	ldr	r3, [sp, #152]	; 0x98
  407f30:	dd20      	ble.n	407f74 <_svfprintf_r+0x418>
  407f32:	2610      	movs	r6, #16
  407f34:	9f0c      	ldr	r7, [sp, #48]	; 0x30
  407f36:	f8dd b02c 	ldr.w	fp, [sp, #44]	; 0x2c
  407f3a:	e004      	b.n	407f46 <_svfprintf_r+0x3ea>
  407f3c:	3d10      	subs	r5, #16
  407f3e:	2d10      	cmp	r5, #16
  407f40:	f108 0808 	add.w	r8, r8, #8
  407f44:	dd16      	ble.n	407f74 <_svfprintf_r+0x418>
  407f46:	3301      	adds	r3, #1
  407f48:	4a5e      	ldr	r2, [pc, #376]	; (4080c4 <_svfprintf_r+0x568>)
  407f4a:	9326      	str	r3, [sp, #152]	; 0x98
  407f4c:	3410      	adds	r4, #16
  407f4e:	2b07      	cmp	r3, #7
  407f50:	9427      	str	r4, [sp, #156]	; 0x9c
  407f52:	e888 0044 	stmia.w	r8, {r2, r6}
  407f56:	ddf1      	ble.n	407f3c <_svfprintf_r+0x3e0>
  407f58:	aa25      	add	r2, sp, #148	; 0x94
  407f5a:	4659      	mov	r1, fp
  407f5c:	4638      	mov	r0, r7
  407f5e:	f004 fcf5 	bl	40c94c <__ssprint_r>
  407f62:	2800      	cmp	r0, #0
  407f64:	f47f aecc 	bne.w	407d00 <_svfprintf_r+0x1a4>
  407f68:	3d10      	subs	r5, #16
  407f6a:	2d10      	cmp	r5, #16
  407f6c:	9c27      	ldr	r4, [sp, #156]	; 0x9c
  407f6e:	9b26      	ldr	r3, [sp, #152]	; 0x98
  407f70:	46c8      	mov	r8, r9
  407f72:	dce8      	bgt.n	407f46 <_svfprintf_r+0x3ea>
  407f74:	3301      	adds	r3, #1
  407f76:	4a53      	ldr	r2, [pc, #332]	; (4080c4 <_svfprintf_r+0x568>)
  407f78:	9326      	str	r3, [sp, #152]	; 0x98
  407f7a:	442c      	add	r4, r5
  407f7c:	2b07      	cmp	r3, #7
  407f7e:	9427      	str	r4, [sp, #156]	; 0x9c
  407f80:	e888 0024 	stmia.w	r8, {r2, r5}
  407f84:	dd08      	ble.n	407f98 <_svfprintf_r+0x43c>
  407f86:	aa25      	add	r2, sp, #148	; 0x94
  407f88:	990b      	ldr	r1, [sp, #44]	; 0x2c
  407f8a:	980c      	ldr	r0, [sp, #48]	; 0x30
  407f8c:	f004 fcde 	bl	40c94c <__ssprint_r>
  407f90:	2800      	cmp	r0, #0
  407f92:	f47f aeb5 	bne.w	407d00 <_svfprintf_r+0x1a4>
  407f96:	9c27      	ldr	r4, [sp, #156]	; 0x9c
  407f98:	9b09      	ldr	r3, [sp, #36]	; 0x24
  407f9a:	9a0d      	ldr	r2, [sp, #52]	; 0x34
  407f9c:	9908      	ldr	r1, [sp, #32]
  407f9e:	428a      	cmp	r2, r1
  407fa0:	bfac      	ite	ge
  407fa2:	189b      	addge	r3, r3, r2
  407fa4:	185b      	addlt	r3, r3, r1
  407fa6:	9309      	str	r3, [sp, #36]	; 0x24
  407fa8:	2c00      	cmp	r4, #0
  407faa:	f040 830d 	bne.w	4085c8 <_svfprintf_r+0xa6c>
  407fae:	2300      	movs	r3, #0
  407fb0:	9326      	str	r3, [sp, #152]	; 0x98
  407fb2:	46c8      	mov	r8, r9
  407fb4:	e5f9      	b.n	407baa <_svfprintf_r+0x4e>
  407fb6:	9311      	str	r3, [sp, #68]	; 0x44
  407fb8:	f01b 0320 	ands.w	r3, fp, #32
  407fbc:	f040 81e3 	bne.w	408386 <_svfprintf_r+0x82a>
  407fc0:	f01b 0210 	ands.w	r2, fp, #16
  407fc4:	f040 842e 	bne.w	408824 <_svfprintf_r+0xcc8>
  407fc8:	f01b 0340 	ands.w	r3, fp, #64	; 0x40
  407fcc:	f000 842a 	beq.w	408824 <_svfprintf_r+0xcc8>
  407fd0:	990f      	ldr	r1, [sp, #60]	; 0x3c
  407fd2:	4613      	mov	r3, r2
  407fd4:	460a      	mov	r2, r1
  407fd6:	3204      	adds	r2, #4
  407fd8:	880c      	ldrh	r4, [r1, #0]
  407fda:	920f      	str	r2, [sp, #60]	; 0x3c
  407fdc:	2500      	movs	r5, #0
  407fde:	e6b0      	b.n	407d42 <_svfprintf_r+0x1e6>
  407fe0:	9a0f      	ldr	r2, [sp, #60]	; 0x3c
  407fe2:	9311      	str	r3, [sp, #68]	; 0x44
  407fe4:	6816      	ldr	r6, [r2, #0]
  407fe6:	2400      	movs	r4, #0
  407fe8:	f88d 4077 	strb.w	r4, [sp, #119]	; 0x77
  407fec:	1d15      	adds	r5, r2, #4
  407fee:	2e00      	cmp	r6, #0
  407ff0:	f000 86a7 	beq.w	408d42 <_svfprintf_r+0x11e6>
  407ff4:	9a0a      	ldr	r2, [sp, #40]	; 0x28
  407ff6:	1c53      	adds	r3, r2, #1
  407ff8:	f000 8609 	beq.w	408c0e <_svfprintf_r+0x10b2>
  407ffc:	4621      	mov	r1, r4
  407ffe:	4630      	mov	r0, r6
  408000:	f003 feee 	bl	40bde0 <memchr>
  408004:	2800      	cmp	r0, #0
  408006:	f000 86e1 	beq.w	408dcc <_svfprintf_r+0x1270>
  40800a:	1b83      	subs	r3, r0, r6
  40800c:	930e      	str	r3, [sp, #56]	; 0x38
  40800e:	940a      	str	r4, [sp, #40]	; 0x28
  408010:	950f      	str	r5, [sp, #60]	; 0x3c
  408012:	f8cd b01c 	str.w	fp, [sp, #28]
  408016:	ea23 73e3 	bic.w	r3, r3, r3, asr #31
  40801a:	9308      	str	r3, [sp, #32]
  40801c:	9412      	str	r4, [sp, #72]	; 0x48
  40801e:	f89d 7077 	ldrb.w	r7, [sp, #119]	; 0x77
  408022:	e6b3      	b.n	407d8c <_svfprintf_r+0x230>
  408024:	f89a 3000 	ldrb.w	r3, [sl]
  408028:	2201      	movs	r2, #1
  40802a:	212b      	movs	r1, #43	; 0x2b
  40802c:	e5ee      	b.n	407c0c <_svfprintf_r+0xb0>
  40802e:	f04b 0b20 	orr.w	fp, fp, #32
  408032:	f89a 3000 	ldrb.w	r3, [sl]
  408036:	e5e9      	b.n	407c0c <_svfprintf_r+0xb0>
  408038:	9311      	str	r3, [sp, #68]	; 0x44
  40803a:	2a00      	cmp	r2, #0
  40803c:	f040 8795 	bne.w	408f6a <_svfprintf_r+0x140e>
  408040:	4b22      	ldr	r3, [pc, #136]	; (4080cc <_svfprintf_r+0x570>)
  408042:	9318      	str	r3, [sp, #96]	; 0x60
  408044:	f01b 0f20 	tst.w	fp, #32
  408048:	f040 8111 	bne.w	40826e <_svfprintf_r+0x712>
  40804c:	9a0f      	ldr	r2, [sp, #60]	; 0x3c
  40804e:	f01b 0f10 	tst.w	fp, #16
  408052:	4613      	mov	r3, r2
  408054:	f040 83e1 	bne.w	40881a <_svfprintf_r+0xcbe>
  408058:	f01b 0f40 	tst.w	fp, #64	; 0x40
  40805c:	f000 83dd 	beq.w	40881a <_svfprintf_r+0xcbe>
  408060:	3304      	adds	r3, #4
  408062:	8814      	ldrh	r4, [r2, #0]
  408064:	930f      	str	r3, [sp, #60]	; 0x3c
  408066:	2500      	movs	r5, #0
  408068:	f01b 0f01 	tst.w	fp, #1
  40806c:	f000 810c 	beq.w	408288 <_svfprintf_r+0x72c>
  408070:	ea54 0305 	orrs.w	r3, r4, r5
  408074:	f000 8108 	beq.w	408288 <_svfprintf_r+0x72c>
  408078:	2330      	movs	r3, #48	; 0x30
  40807a:	f89d 2044 	ldrb.w	r2, [sp, #68]	; 0x44
  40807e:	f88d 3078 	strb.w	r3, [sp, #120]	; 0x78
  408082:	f88d 2079 	strb.w	r2, [sp, #121]	; 0x79
  408086:	f04b 0b02 	orr.w	fp, fp, #2
  40808a:	2302      	movs	r3, #2
  40808c:	e659      	b.n	407d42 <_svfprintf_r+0x1e6>
  40808e:	f89a 3000 	ldrb.w	r3, [sl]
  408092:	2900      	cmp	r1, #0
  408094:	f47f adba 	bne.w	407c0c <_svfprintf_r+0xb0>
  408098:	2201      	movs	r2, #1
  40809a:	2120      	movs	r1, #32
  40809c:	e5b6      	b.n	407c0c <_svfprintf_r+0xb0>
  40809e:	f04b 0b01 	orr.w	fp, fp, #1
  4080a2:	f89a 3000 	ldrb.w	r3, [sl]
  4080a6:	e5b1      	b.n	407c0c <_svfprintf_r+0xb0>
  4080a8:	9c0f      	ldr	r4, [sp, #60]	; 0x3c
  4080aa:	6823      	ldr	r3, [r4, #0]
  4080ac:	930d      	str	r3, [sp, #52]	; 0x34
  4080ae:	4618      	mov	r0, r3
  4080b0:	2800      	cmp	r0, #0
  4080b2:	4623      	mov	r3, r4
  4080b4:	f103 0304 	add.w	r3, r3, #4
  4080b8:	f6ff ae0a 	blt.w	407cd0 <_svfprintf_r+0x174>
  4080bc:	930f      	str	r3, [sp, #60]	; 0x3c
  4080be:	f89a 3000 	ldrb.w	r3, [sl]
  4080c2:	e5a3      	b.n	407c0c <_svfprintf_r+0xb0>
  4080c4:	0040e2e8 	.word	0x0040e2e8
  4080c8:	0040e2f8 	.word	0x0040e2f8
  4080cc:	0040e2c8 	.word	0x0040e2c8
  4080d0:	f04b 0b10 	orr.w	fp, fp, #16
  4080d4:	f01b 0f20 	tst.w	fp, #32
  4080d8:	9311      	str	r3, [sp, #68]	; 0x44
  4080da:	f43f ae23 	beq.w	407d24 <_svfprintf_r+0x1c8>
  4080de:	9d0f      	ldr	r5, [sp, #60]	; 0x3c
  4080e0:	3507      	adds	r5, #7
  4080e2:	f025 0307 	bic.w	r3, r5, #7
  4080e6:	f103 0208 	add.w	r2, r3, #8
  4080ea:	e9d3 4500 	ldrd	r4, r5, [r3]
  4080ee:	920f      	str	r2, [sp, #60]	; 0x3c
  4080f0:	2301      	movs	r3, #1
  4080f2:	e626      	b.n	407d42 <_svfprintf_r+0x1e6>
  4080f4:	f89a 3000 	ldrb.w	r3, [sl]
  4080f8:	2b2a      	cmp	r3, #42	; 0x2a
  4080fa:	f10a 0401 	add.w	r4, sl, #1
  4080fe:	f000 8727 	beq.w	408f50 <_svfprintf_r+0x13f4>
  408102:	f1a3 0030 	sub.w	r0, r3, #48	; 0x30
  408106:	2809      	cmp	r0, #9
  408108:	46a2      	mov	sl, r4
  40810a:	f200 86ad 	bhi.w	408e68 <_svfprintf_r+0x130c>
  40810e:	2300      	movs	r3, #0
  408110:	461c      	mov	r4, r3
  408112:	f81a 3b01 	ldrb.w	r3, [sl], #1
  408116:	eb04 0484 	add.w	r4, r4, r4, lsl #2
  40811a:	eb00 0444 	add.w	r4, r0, r4, lsl #1
  40811e:	f1a3 0030 	sub.w	r0, r3, #48	; 0x30
  408122:	2809      	cmp	r0, #9
  408124:	d9f5      	bls.n	408112 <_svfprintf_r+0x5b6>
  408126:	940a      	str	r4, [sp, #40]	; 0x28
  408128:	e572      	b.n	407c10 <_svfprintf_r+0xb4>
  40812a:	f04b 0b80 	orr.w	fp, fp, #128	; 0x80
  40812e:	f89a 3000 	ldrb.w	r3, [sl]
  408132:	e56b      	b.n	407c0c <_svfprintf_r+0xb0>
  408134:	f04b 0b40 	orr.w	fp, fp, #64	; 0x40
  408138:	f89a 3000 	ldrb.w	r3, [sl]
  40813c:	e566      	b.n	407c0c <_svfprintf_r+0xb0>
  40813e:	f89a 3000 	ldrb.w	r3, [sl]
  408142:	2b6c      	cmp	r3, #108	; 0x6c
  408144:	bf03      	ittte	eq
  408146:	f89a 3001 	ldrbeq.w	r3, [sl, #1]
  40814a:	f04b 0b20 	orreq.w	fp, fp, #32
  40814e:	f10a 0a01 	addeq.w	sl, sl, #1
  408152:	f04b 0b10 	orrne.w	fp, fp, #16
  408156:	e559      	b.n	407c0c <_svfprintf_r+0xb0>
  408158:	2a00      	cmp	r2, #0
  40815a:	f040 8711 	bne.w	408f80 <_svfprintf_r+0x1424>
  40815e:	f01b 0f20 	tst.w	fp, #32
  408162:	f040 84f9 	bne.w	408b58 <_svfprintf_r+0xffc>
  408166:	f01b 0f10 	tst.w	fp, #16
  40816a:	f040 84ac 	bne.w	408ac6 <_svfprintf_r+0xf6a>
  40816e:	f01b 0f40 	tst.w	fp, #64	; 0x40
  408172:	f000 84a8 	beq.w	408ac6 <_svfprintf_r+0xf6a>
  408176:	9a0f      	ldr	r2, [sp, #60]	; 0x3c
  408178:	6813      	ldr	r3, [r2, #0]
  40817a:	3204      	adds	r2, #4
  40817c:	920f      	str	r2, [sp, #60]	; 0x3c
  40817e:	f8bd 2024 	ldrh.w	r2, [sp, #36]	; 0x24
  408182:	801a      	strh	r2, [r3, #0]
  408184:	e511      	b.n	407baa <_svfprintf_r+0x4e>
  408186:	990f      	ldr	r1, [sp, #60]	; 0x3c
  408188:	4bb3      	ldr	r3, [pc, #716]	; (408458 <_svfprintf_r+0x8fc>)
  40818a:	680c      	ldr	r4, [r1, #0]
  40818c:	9318      	str	r3, [sp, #96]	; 0x60
  40818e:	2230      	movs	r2, #48	; 0x30
  408190:	2378      	movs	r3, #120	; 0x78
  408192:	3104      	adds	r1, #4
  408194:	f88d 3079 	strb.w	r3, [sp, #121]	; 0x79
  408198:	9311      	str	r3, [sp, #68]	; 0x44
  40819a:	f04b 0b02 	orr.w	fp, fp, #2
  40819e:	910f      	str	r1, [sp, #60]	; 0x3c
  4081a0:	2500      	movs	r5, #0
  4081a2:	f88d 2078 	strb.w	r2, [sp, #120]	; 0x78
  4081a6:	2302      	movs	r3, #2
  4081a8:	e5cb      	b.n	407d42 <_svfprintf_r+0x1e6>
  4081aa:	990f      	ldr	r1, [sp, #60]	; 0x3c
  4081ac:	9311      	str	r3, [sp, #68]	; 0x44
  4081ae:	680a      	ldr	r2, [r1, #0]
  4081b0:	f88d 20a0 	strb.w	r2, [sp, #160]	; 0xa0
  4081b4:	2300      	movs	r3, #0
  4081b6:	460a      	mov	r2, r1
  4081b8:	461f      	mov	r7, r3
  4081ba:	f88d 3077 	strb.w	r3, [sp, #119]	; 0x77
  4081be:	3204      	adds	r2, #4
  4081c0:	2301      	movs	r3, #1
  4081c2:	9308      	str	r3, [sp, #32]
  4081c4:	f8cd b01c 	str.w	fp, [sp, #28]
  4081c8:	970a      	str	r7, [sp, #40]	; 0x28
  4081ca:	9712      	str	r7, [sp, #72]	; 0x48
  4081cc:	920f      	str	r2, [sp, #60]	; 0x3c
  4081ce:	930e      	str	r3, [sp, #56]	; 0x38
  4081d0:	ae28      	add	r6, sp, #160	; 0xa0
  4081d2:	e5df      	b.n	407d94 <_svfprintf_r+0x238>
  4081d4:	9311      	str	r3, [sp, #68]	; 0x44
  4081d6:	2a00      	cmp	r2, #0
  4081d8:	f040 86ea 	bne.w	408fb0 <_svfprintf_r+0x1454>
  4081dc:	f01b 0f20 	tst.w	fp, #32
  4081e0:	d15d      	bne.n	40829e <_svfprintf_r+0x742>
  4081e2:	f01b 0f10 	tst.w	fp, #16
  4081e6:	f040 8308 	bne.w	4087fa <_svfprintf_r+0xc9e>
  4081ea:	f01b 0f40 	tst.w	fp, #64	; 0x40
  4081ee:	f000 8304 	beq.w	4087fa <_svfprintf_r+0xc9e>
  4081f2:	990f      	ldr	r1, [sp, #60]	; 0x3c
  4081f4:	f9b1 4000 	ldrsh.w	r4, [r1]
  4081f8:	3104      	adds	r1, #4
  4081fa:	17e5      	asrs	r5, r4, #31
  4081fc:	4622      	mov	r2, r4
  4081fe:	462b      	mov	r3, r5
  408200:	910f      	str	r1, [sp, #60]	; 0x3c
  408202:	2a00      	cmp	r2, #0
  408204:	f173 0300 	sbcs.w	r3, r3, #0
  408208:	db58      	blt.n	4082bc <_svfprintf_r+0x760>
  40820a:	990a      	ldr	r1, [sp, #40]	; 0x28
  40820c:	f89d 7077 	ldrb.w	r7, [sp, #119]	; 0x77
  408210:	1c4a      	adds	r2, r1, #1
  408212:	f04f 0301 	mov.w	r3, #1
  408216:	f47f ad9b 	bne.w	407d50 <_svfprintf_r+0x1f4>
  40821a:	ea54 0205 	orrs.w	r2, r4, r5
  40821e:	f000 81df 	beq.w	4085e0 <_svfprintf_r+0xa84>
  408222:	f8cd b01c 	str.w	fp, [sp, #28]
  408226:	2b01      	cmp	r3, #1
  408228:	f000 827b 	beq.w	408722 <_svfprintf_r+0xbc6>
  40822c:	2b02      	cmp	r3, #2
  40822e:	f040 8206 	bne.w	40863e <_svfprintf_r+0xae2>
  408232:	9818      	ldr	r0, [sp, #96]	; 0x60
  408234:	464e      	mov	r6, r9
  408236:	0923      	lsrs	r3, r4, #4
  408238:	f004 010f 	and.w	r1, r4, #15
  40823c:	ea43 7305 	orr.w	r3, r3, r5, lsl #28
  408240:	092a      	lsrs	r2, r5, #4
  408242:	461c      	mov	r4, r3
  408244:	4615      	mov	r5, r2
  408246:	5c43      	ldrb	r3, [r0, r1]
  408248:	f806 3d01 	strb.w	r3, [r6, #-1]!
  40824c:	ea54 0305 	orrs.w	r3, r4, r5
  408250:	d1f1      	bne.n	408236 <_svfprintf_r+0x6da>
  408252:	eba9 0306 	sub.w	r3, r9, r6
  408256:	930e      	str	r3, [sp, #56]	; 0x38
  408258:	e590      	b.n	407d7c <_svfprintf_r+0x220>
  40825a:	9311      	str	r3, [sp, #68]	; 0x44
  40825c:	2a00      	cmp	r2, #0
  40825e:	f040 86a3 	bne.w	408fa8 <_svfprintf_r+0x144c>
  408262:	4b7e      	ldr	r3, [pc, #504]	; (40845c <_svfprintf_r+0x900>)
  408264:	9318      	str	r3, [sp, #96]	; 0x60
  408266:	f01b 0f20 	tst.w	fp, #32
  40826a:	f43f aeef 	beq.w	40804c <_svfprintf_r+0x4f0>
  40826e:	9d0f      	ldr	r5, [sp, #60]	; 0x3c
  408270:	3507      	adds	r5, #7
  408272:	f025 0307 	bic.w	r3, r5, #7
  408276:	f103 0208 	add.w	r2, r3, #8
  40827a:	f01b 0f01 	tst.w	fp, #1
  40827e:	920f      	str	r2, [sp, #60]	; 0x3c
  408280:	e9d3 4500 	ldrd	r4, r5, [r3]
  408284:	f47f aef4 	bne.w	408070 <_svfprintf_r+0x514>
  408288:	2302      	movs	r3, #2
  40828a:	e55a      	b.n	407d42 <_svfprintf_r+0x1e6>
  40828c:	9311      	str	r3, [sp, #68]	; 0x44
  40828e:	2a00      	cmp	r2, #0
  408290:	f040 8686 	bne.w	408fa0 <_svfprintf_r+0x1444>
  408294:	f04b 0b10 	orr.w	fp, fp, #16
  408298:	f01b 0f20 	tst.w	fp, #32
  40829c:	d0a1      	beq.n	4081e2 <_svfprintf_r+0x686>
  40829e:	9d0f      	ldr	r5, [sp, #60]	; 0x3c
  4082a0:	3507      	adds	r5, #7
  4082a2:	f025 0507 	bic.w	r5, r5, #7
  4082a6:	e9d5 2300 	ldrd	r2, r3, [r5]
  4082aa:	2a00      	cmp	r2, #0
  4082ac:	f105 0108 	add.w	r1, r5, #8
  4082b0:	461d      	mov	r5, r3
  4082b2:	f173 0300 	sbcs.w	r3, r3, #0
  4082b6:	910f      	str	r1, [sp, #60]	; 0x3c
  4082b8:	4614      	mov	r4, r2
  4082ba:	daa6      	bge.n	40820a <_svfprintf_r+0x6ae>
  4082bc:	272d      	movs	r7, #45	; 0x2d
  4082be:	4264      	negs	r4, r4
  4082c0:	eb65 0545 	sbc.w	r5, r5, r5, lsl #1
  4082c4:	f88d 7077 	strb.w	r7, [sp, #119]	; 0x77
  4082c8:	2301      	movs	r3, #1
  4082ca:	e53d      	b.n	407d48 <_svfprintf_r+0x1ec>
  4082cc:	9311      	str	r3, [sp, #68]	; 0x44
  4082ce:	2a00      	cmp	r2, #0
  4082d0:	f040 8662 	bne.w	408f98 <_svfprintf_r+0x143c>
  4082d4:	9d0f      	ldr	r5, [sp, #60]	; 0x3c
  4082d6:	3507      	adds	r5, #7
  4082d8:	f025 0307 	bic.w	r3, r5, #7
  4082dc:	f103 0208 	add.w	r2, r3, #8
  4082e0:	920f      	str	r2, [sp, #60]	; 0x3c
  4082e2:	681a      	ldr	r2, [r3, #0]
  4082e4:	9215      	str	r2, [sp, #84]	; 0x54
  4082e6:	685b      	ldr	r3, [r3, #4]
  4082e8:	9314      	str	r3, [sp, #80]	; 0x50
  4082ea:	9b14      	ldr	r3, [sp, #80]	; 0x50
  4082ec:	9d15      	ldr	r5, [sp, #84]	; 0x54
  4082ee:	f023 4400 	bic.w	r4, r3, #2147483648	; 0x80000000
  4082f2:	4628      	mov	r0, r5
  4082f4:	4621      	mov	r1, r4
  4082f6:	f04f 32ff 	mov.w	r2, #4294967295
  4082fa:	4b59      	ldr	r3, [pc, #356]	; (408460 <_svfprintf_r+0x904>)
  4082fc:	f004 fe2a 	bl	40cf54 <__aeabi_dcmpun>
  408300:	2800      	cmp	r0, #0
  408302:	f040 834a 	bne.w	40899a <_svfprintf_r+0xe3e>
  408306:	4628      	mov	r0, r5
  408308:	4621      	mov	r1, r4
  40830a:	f04f 32ff 	mov.w	r2, #4294967295
  40830e:	4b54      	ldr	r3, [pc, #336]	; (408460 <_svfprintf_r+0x904>)
  408310:	f004 fe02 	bl	40cf18 <__aeabi_dcmple>
  408314:	2800      	cmp	r0, #0
  408316:	f040 8340 	bne.w	40899a <_svfprintf_r+0xe3e>
  40831a:	a815      	add	r0, sp, #84	; 0x54
  40831c:	c80d      	ldmia	r0, {r0, r2, r3}
  40831e:	9914      	ldr	r1, [sp, #80]	; 0x50
  408320:	f004 fdf0 	bl	40cf04 <__aeabi_dcmplt>
  408324:	2800      	cmp	r0, #0
  408326:	f040 8530 	bne.w	408d8a <_svfprintf_r+0x122e>
  40832a:	f89d 7077 	ldrb.w	r7, [sp, #119]	; 0x77
  40832e:	4e4d      	ldr	r6, [pc, #308]	; (408464 <_svfprintf_r+0x908>)
  408330:	4b4d      	ldr	r3, [pc, #308]	; (408468 <_svfprintf_r+0x90c>)
  408332:	f02b 0080 	bic.w	r0, fp, #128	; 0x80
  408336:	9007      	str	r0, [sp, #28]
  408338:	9811      	ldr	r0, [sp, #68]	; 0x44
  40833a:	2203      	movs	r2, #3
  40833c:	2100      	movs	r1, #0
  40833e:	9208      	str	r2, [sp, #32]
  408340:	910a      	str	r1, [sp, #40]	; 0x28
  408342:	2847      	cmp	r0, #71	; 0x47
  408344:	bfd8      	it	le
  408346:	461e      	movle	r6, r3
  408348:	920e      	str	r2, [sp, #56]	; 0x38
  40834a:	9112      	str	r1, [sp, #72]	; 0x48
  40834c:	e51e      	b.n	407d8c <_svfprintf_r+0x230>
  40834e:	f04b 0b08 	orr.w	fp, fp, #8
  408352:	f89a 3000 	ldrb.w	r3, [sl]
  408356:	e459      	b.n	407c0c <_svfprintf_r+0xb0>
  408358:	f1a3 0030 	sub.w	r0, r3, #48	; 0x30
  40835c:	2300      	movs	r3, #0
  40835e:	461c      	mov	r4, r3
  408360:	f81a 3b01 	ldrb.w	r3, [sl], #1
  408364:	eb04 0484 	add.w	r4, r4, r4, lsl #2
  408368:	eb00 0444 	add.w	r4, r0, r4, lsl #1
  40836c:	f1a3 0030 	sub.w	r0, r3, #48	; 0x30
  408370:	2809      	cmp	r0, #9
  408372:	d9f5      	bls.n	408360 <_svfprintf_r+0x804>
  408374:	940d      	str	r4, [sp, #52]	; 0x34
  408376:	e44b      	b.n	407c10 <_svfprintf_r+0xb4>
  408378:	f04b 0b10 	orr.w	fp, fp, #16
  40837c:	9311      	str	r3, [sp, #68]	; 0x44
  40837e:	f01b 0320 	ands.w	r3, fp, #32
  408382:	f43f ae1d 	beq.w	407fc0 <_svfprintf_r+0x464>
  408386:	9d0f      	ldr	r5, [sp, #60]	; 0x3c
  408388:	3507      	adds	r5, #7
  40838a:	f025 0307 	bic.w	r3, r5, #7
  40838e:	f103 0208 	add.w	r2, r3, #8
  408392:	e9d3 4500 	ldrd	r4, r5, [r3]
  408396:	920f      	str	r2, [sp, #60]	; 0x3c
  408398:	2300      	movs	r3, #0
  40839a:	e4d2      	b.n	407d42 <_svfprintf_r+0x1e6>
  40839c:	9311      	str	r3, [sp, #68]	; 0x44
  40839e:	2a00      	cmp	r2, #0
  4083a0:	f040 85e7 	bne.w	408f72 <_svfprintf_r+0x1416>
  4083a4:	9a11      	ldr	r2, [sp, #68]	; 0x44
  4083a6:	2a00      	cmp	r2, #0
  4083a8:	f43f aca3 	beq.w	407cf2 <_svfprintf_r+0x196>
  4083ac:	2300      	movs	r3, #0
  4083ae:	2101      	movs	r1, #1
  4083b0:	461f      	mov	r7, r3
  4083b2:	9108      	str	r1, [sp, #32]
  4083b4:	f88d 20a0 	strb.w	r2, [sp, #160]	; 0xa0
  4083b8:	f8cd b01c 	str.w	fp, [sp, #28]
  4083bc:	f88d 3077 	strb.w	r3, [sp, #119]	; 0x77
  4083c0:	930a      	str	r3, [sp, #40]	; 0x28
  4083c2:	9312      	str	r3, [sp, #72]	; 0x48
  4083c4:	910e      	str	r1, [sp, #56]	; 0x38
  4083c6:	ae28      	add	r6, sp, #160	; 0xa0
  4083c8:	e4e4      	b.n	407d94 <_svfprintf_r+0x238>
  4083ca:	9c27      	ldr	r4, [sp, #156]	; 0x9c
  4083cc:	e534      	b.n	407e38 <_svfprintf_r+0x2dc>
  4083ce:	9b11      	ldr	r3, [sp, #68]	; 0x44
  4083d0:	2b65      	cmp	r3, #101	; 0x65
  4083d2:	f340 80a7 	ble.w	408524 <_svfprintf_r+0x9c8>
  4083d6:	a815      	add	r0, sp, #84	; 0x54
  4083d8:	c80d      	ldmia	r0, {r0, r2, r3}
  4083da:	9914      	ldr	r1, [sp, #80]	; 0x50
  4083dc:	f004 fd88 	bl	40cef0 <__aeabi_dcmpeq>
  4083e0:	2800      	cmp	r0, #0
  4083e2:	f000 8150 	beq.w	408686 <_svfprintf_r+0xb2a>
  4083e6:	9b26      	ldr	r3, [sp, #152]	; 0x98
  4083e8:	4a20      	ldr	r2, [pc, #128]	; (40846c <_svfprintf_r+0x910>)
  4083ea:	f8c8 2000 	str.w	r2, [r8]
  4083ee:	3301      	adds	r3, #1
  4083f0:	3401      	adds	r4, #1
  4083f2:	2201      	movs	r2, #1
  4083f4:	2b07      	cmp	r3, #7
  4083f6:	9427      	str	r4, [sp, #156]	; 0x9c
  4083f8:	9326      	str	r3, [sp, #152]	; 0x98
  4083fa:	f8c8 2004 	str.w	r2, [r8, #4]
  4083fe:	f300 836a 	bgt.w	408ad6 <_svfprintf_r+0xf7a>
  408402:	f108 0808 	add.w	r8, r8, #8
  408406:	9b1f      	ldr	r3, [sp, #124]	; 0x7c
  408408:	9a13      	ldr	r2, [sp, #76]	; 0x4c
  40840a:	9c27      	ldr	r4, [sp, #156]	; 0x9c
  40840c:	4293      	cmp	r3, r2
  40840e:	db03      	blt.n	408418 <_svfprintf_r+0x8bc>
  408410:	9b07      	ldr	r3, [sp, #28]
  408412:	07dd      	lsls	r5, r3, #31
  408414:	f57f ad82 	bpl.w	407f1c <_svfprintf_r+0x3c0>
  408418:	9b26      	ldr	r3, [sp, #152]	; 0x98
  40841a:	9919      	ldr	r1, [sp, #100]	; 0x64
  40841c:	9a1a      	ldr	r2, [sp, #104]	; 0x68
  40841e:	f8c8 2000 	str.w	r2, [r8]
  408422:	3301      	adds	r3, #1
  408424:	440c      	add	r4, r1
  408426:	2b07      	cmp	r3, #7
  408428:	f8c8 1004 	str.w	r1, [r8, #4]
  40842c:	9427      	str	r4, [sp, #156]	; 0x9c
  40842e:	9326      	str	r3, [sp, #152]	; 0x98
  408430:	f300 839e 	bgt.w	408b70 <_svfprintf_r+0x1014>
  408434:	f108 0808 	add.w	r8, r8, #8
  408438:	9b13      	ldr	r3, [sp, #76]	; 0x4c
  40843a:	1e5e      	subs	r6, r3, #1
  40843c:	2e00      	cmp	r6, #0
  40843e:	f77f ad6d 	ble.w	407f1c <_svfprintf_r+0x3c0>
  408442:	2e10      	cmp	r6, #16
  408444:	9b26      	ldr	r3, [sp, #152]	; 0x98
  408446:	4d0a      	ldr	r5, [pc, #40]	; (408470 <_svfprintf_r+0x914>)
  408448:	f340 81f5 	ble.w	408836 <_svfprintf_r+0xcda>
  40844c:	4622      	mov	r2, r4
  40844e:	2710      	movs	r7, #16
  408450:	f8dd b030 	ldr.w	fp, [sp, #48]	; 0x30
  408454:	9c0b      	ldr	r4, [sp, #44]	; 0x2c
  408456:	e013      	b.n	408480 <_svfprintf_r+0x924>
  408458:	0040e2c8 	.word	0x0040e2c8
  40845c:	0040e2b4 	.word	0x0040e2b4
  408460:	7fefffff 	.word	0x7fefffff
  408464:	0040e2a8 	.word	0x0040e2a8
  408468:	0040e2a4 	.word	0x0040e2a4
  40846c:	0040e2e4 	.word	0x0040e2e4
  408470:	0040e2f8 	.word	0x0040e2f8
  408474:	f108 0808 	add.w	r8, r8, #8
  408478:	3e10      	subs	r6, #16
  40847a:	2e10      	cmp	r6, #16
  40847c:	f340 81da 	ble.w	408834 <_svfprintf_r+0xcd8>
  408480:	3301      	adds	r3, #1
  408482:	3210      	adds	r2, #16
  408484:	2b07      	cmp	r3, #7
  408486:	9227      	str	r2, [sp, #156]	; 0x9c
  408488:	9326      	str	r3, [sp, #152]	; 0x98
  40848a:	e888 00a0 	stmia.w	r8, {r5, r7}
  40848e:	ddf1      	ble.n	408474 <_svfprintf_r+0x918>
  408490:	aa25      	add	r2, sp, #148	; 0x94
  408492:	4621      	mov	r1, r4
  408494:	4658      	mov	r0, fp
  408496:	f004 fa59 	bl	40c94c <__ssprint_r>
  40849a:	2800      	cmp	r0, #0
  40849c:	f47f ac30 	bne.w	407d00 <_svfprintf_r+0x1a4>
  4084a0:	9a27      	ldr	r2, [sp, #156]	; 0x9c
  4084a2:	9b26      	ldr	r3, [sp, #152]	; 0x98
  4084a4:	46c8      	mov	r8, r9
  4084a6:	e7e7      	b.n	408478 <_svfprintf_r+0x91c>
  4084a8:	9b0d      	ldr	r3, [sp, #52]	; 0x34
  4084aa:	9a08      	ldr	r2, [sp, #32]
  4084ac:	1a9f      	subs	r7, r3, r2
  4084ae:	2f00      	cmp	r7, #0
  4084b0:	f77f ace5 	ble.w	407e7e <_svfprintf_r+0x322>
  4084b4:	2f10      	cmp	r7, #16
  4084b6:	9b26      	ldr	r3, [sp, #152]	; 0x98
  4084b8:	4db6      	ldr	r5, [pc, #728]	; (408794 <_svfprintf_r+0xc38>)
  4084ba:	dd27      	ble.n	40850c <_svfprintf_r+0x9b0>
  4084bc:	4642      	mov	r2, r8
  4084be:	4621      	mov	r1, r4
  4084c0:	46b0      	mov	r8, r6
  4084c2:	f04f 0b10 	mov.w	fp, #16
  4084c6:	462e      	mov	r6, r5
  4084c8:	9c0c      	ldr	r4, [sp, #48]	; 0x30
  4084ca:	9d0b      	ldr	r5, [sp, #44]	; 0x2c
  4084cc:	e004      	b.n	4084d8 <_svfprintf_r+0x97c>
  4084ce:	3f10      	subs	r7, #16
  4084d0:	2f10      	cmp	r7, #16
  4084d2:	f102 0208 	add.w	r2, r2, #8
  4084d6:	dd15      	ble.n	408504 <_svfprintf_r+0x9a8>
  4084d8:	3301      	adds	r3, #1
  4084da:	3110      	adds	r1, #16
  4084dc:	2b07      	cmp	r3, #7
  4084de:	9127      	str	r1, [sp, #156]	; 0x9c
  4084e0:	9326      	str	r3, [sp, #152]	; 0x98
  4084e2:	e882 0840 	stmia.w	r2, {r6, fp}
  4084e6:	ddf2      	ble.n	4084ce <_svfprintf_r+0x972>
  4084e8:	aa25      	add	r2, sp, #148	; 0x94
  4084ea:	4629      	mov	r1, r5
  4084ec:	4620      	mov	r0, r4
  4084ee:	f004 fa2d 	bl	40c94c <__ssprint_r>
  4084f2:	2800      	cmp	r0, #0
  4084f4:	f47f ac04 	bne.w	407d00 <_svfprintf_r+0x1a4>
  4084f8:	3f10      	subs	r7, #16
  4084fa:	2f10      	cmp	r7, #16
  4084fc:	9927      	ldr	r1, [sp, #156]	; 0x9c
  4084fe:	9b26      	ldr	r3, [sp, #152]	; 0x98
  408500:	464a      	mov	r2, r9
  408502:	dce9      	bgt.n	4084d8 <_svfprintf_r+0x97c>
  408504:	4635      	mov	r5, r6
  408506:	460c      	mov	r4, r1
  408508:	4646      	mov	r6, r8
  40850a:	4690      	mov	r8, r2
  40850c:	3301      	adds	r3, #1
  40850e:	443c      	add	r4, r7
  408510:	2b07      	cmp	r3, #7
  408512:	9427      	str	r4, [sp, #156]	; 0x9c
  408514:	9326      	str	r3, [sp, #152]	; 0x98
  408516:	e888 00a0 	stmia.w	r8, {r5, r7}
  40851a:	f300 8232 	bgt.w	408982 <_svfprintf_r+0xe26>
  40851e:	f108 0808 	add.w	r8, r8, #8
  408522:	e4ac      	b.n	407e7e <_svfprintf_r+0x322>
  408524:	9b13      	ldr	r3, [sp, #76]	; 0x4c
  408526:	9f26      	ldr	r7, [sp, #152]	; 0x98
  408528:	2b01      	cmp	r3, #1
  40852a:	f340 81fe 	ble.w	40892a <_svfprintf_r+0xdce>
  40852e:	3701      	adds	r7, #1
  408530:	3401      	adds	r4, #1
  408532:	2301      	movs	r3, #1
  408534:	2f07      	cmp	r7, #7
  408536:	9427      	str	r4, [sp, #156]	; 0x9c
  408538:	9726      	str	r7, [sp, #152]	; 0x98
  40853a:	f8c8 6000 	str.w	r6, [r8]
  40853e:	f8c8 3004 	str.w	r3, [r8, #4]
  408542:	f300 8203 	bgt.w	40894c <_svfprintf_r+0xdf0>
  408546:	f108 0808 	add.w	r8, r8, #8
  40854a:	9a19      	ldr	r2, [sp, #100]	; 0x64
  40854c:	9b1a      	ldr	r3, [sp, #104]	; 0x68
  40854e:	f8c8 3000 	str.w	r3, [r8]
  408552:	3701      	adds	r7, #1
  408554:	4414      	add	r4, r2
  408556:	2f07      	cmp	r7, #7
  408558:	9427      	str	r4, [sp, #156]	; 0x9c
  40855a:	9726      	str	r7, [sp, #152]	; 0x98
  40855c:	f8c8 2004 	str.w	r2, [r8, #4]
  408560:	f300 8200 	bgt.w	408964 <_svfprintf_r+0xe08>
  408564:	f108 0808 	add.w	r8, r8, #8
  408568:	a815      	add	r0, sp, #84	; 0x54
  40856a:	c80d      	ldmia	r0, {r0, r2, r3}
  40856c:	9914      	ldr	r1, [sp, #80]	; 0x50
  40856e:	f004 fcbf 	bl	40cef0 <__aeabi_dcmpeq>
  408572:	9b13      	ldr	r3, [sp, #76]	; 0x4c
  408574:	2800      	cmp	r0, #0
  408576:	f040 8101 	bne.w	40877c <_svfprintf_r+0xc20>
  40857a:	3b01      	subs	r3, #1
  40857c:	3701      	adds	r7, #1
  40857e:	3601      	adds	r6, #1
  408580:	441c      	add	r4, r3
  408582:	2f07      	cmp	r7, #7
  408584:	9726      	str	r7, [sp, #152]	; 0x98
  408586:	9427      	str	r4, [sp, #156]	; 0x9c
  408588:	f8c8 6000 	str.w	r6, [r8]
  40858c:	f8c8 3004 	str.w	r3, [r8, #4]
  408590:	f300 8127 	bgt.w	4087e2 <_svfprintf_r+0xc86>
  408594:	f108 0808 	add.w	r8, r8, #8
  408598:	9a1b      	ldr	r2, [sp, #108]	; 0x6c
  40859a:	f8c8 2004 	str.w	r2, [r8, #4]
  40859e:	3701      	adds	r7, #1
  4085a0:	4414      	add	r4, r2
  4085a2:	ab21      	add	r3, sp, #132	; 0x84
  4085a4:	2f07      	cmp	r7, #7
  4085a6:	9427      	str	r4, [sp, #156]	; 0x9c
  4085a8:	9726      	str	r7, [sp, #152]	; 0x98
  4085aa:	f8c8 3000 	str.w	r3, [r8]
  4085ae:	f77f acb3 	ble.w	407f18 <_svfprintf_r+0x3bc>
  4085b2:	aa25      	add	r2, sp, #148	; 0x94
  4085b4:	990b      	ldr	r1, [sp, #44]	; 0x2c
  4085b6:	980c      	ldr	r0, [sp, #48]	; 0x30
  4085b8:	f004 f9c8 	bl	40c94c <__ssprint_r>
  4085bc:	2800      	cmp	r0, #0
  4085be:	f47f ab9f 	bne.w	407d00 <_svfprintf_r+0x1a4>
  4085c2:	9c27      	ldr	r4, [sp, #156]	; 0x9c
  4085c4:	46c8      	mov	r8, r9
  4085c6:	e4a9      	b.n	407f1c <_svfprintf_r+0x3c0>
  4085c8:	aa25      	add	r2, sp, #148	; 0x94
  4085ca:	990b      	ldr	r1, [sp, #44]	; 0x2c
  4085cc:	980c      	ldr	r0, [sp, #48]	; 0x30
  4085ce:	f004 f9bd 	bl	40c94c <__ssprint_r>
  4085d2:	2800      	cmp	r0, #0
  4085d4:	f43f aceb 	beq.w	407fae <_svfprintf_r+0x452>
  4085d8:	f7ff bb92 	b.w	407d00 <_svfprintf_r+0x1a4>
  4085dc:	f8dd b01c 	ldr.w	fp, [sp, #28]
  4085e0:	2b01      	cmp	r3, #1
  4085e2:	f000 8134 	beq.w	40884e <_svfprintf_r+0xcf2>
  4085e6:	2b02      	cmp	r3, #2
  4085e8:	d125      	bne.n	408636 <_svfprintf_r+0xada>
  4085ea:	f8cd b01c 	str.w	fp, [sp, #28]
  4085ee:	2400      	movs	r4, #0
  4085f0:	2500      	movs	r5, #0
  4085f2:	e61e      	b.n	408232 <_svfprintf_r+0x6d6>
  4085f4:	aa25      	add	r2, sp, #148	; 0x94
  4085f6:	990b      	ldr	r1, [sp, #44]	; 0x2c
  4085f8:	980c      	ldr	r0, [sp, #48]	; 0x30
  4085fa:	f004 f9a7 	bl	40c94c <__ssprint_r>
  4085fe:	2800      	cmp	r0, #0
  408600:	f47f ab7e 	bne.w	407d00 <_svfprintf_r+0x1a4>
  408604:	9c27      	ldr	r4, [sp, #156]	; 0x9c
  408606:	46c8      	mov	r8, r9
  408608:	e475      	b.n	407ef6 <_svfprintf_r+0x39a>
  40860a:	aa25      	add	r2, sp, #148	; 0x94
  40860c:	990b      	ldr	r1, [sp, #44]	; 0x2c
  40860e:	980c      	ldr	r0, [sp, #48]	; 0x30
  408610:	f004 f99c 	bl	40c94c <__ssprint_r>
  408614:	2800      	cmp	r0, #0
  408616:	f47f ab73 	bne.w	407d00 <_svfprintf_r+0x1a4>
  40861a:	9c27      	ldr	r4, [sp, #156]	; 0x9c
  40861c:	46c8      	mov	r8, r9
  40861e:	e41b      	b.n	407e58 <_svfprintf_r+0x2fc>
  408620:	aa25      	add	r2, sp, #148	; 0x94
  408622:	990b      	ldr	r1, [sp, #44]	; 0x2c
  408624:	980c      	ldr	r0, [sp, #48]	; 0x30
  408626:	f004 f991 	bl	40c94c <__ssprint_r>
  40862a:	2800      	cmp	r0, #0
  40862c:	f47f ab68 	bne.w	407d00 <_svfprintf_r+0x1a4>
  408630:	9c27      	ldr	r4, [sp, #156]	; 0x9c
  408632:	46c8      	mov	r8, r9
  408634:	e420      	b.n	407e78 <_svfprintf_r+0x31c>
  408636:	f8cd b01c 	str.w	fp, [sp, #28]
  40863a:	2400      	movs	r4, #0
  40863c:	2500      	movs	r5, #0
  40863e:	4649      	mov	r1, r9
  408640:	e000      	b.n	408644 <_svfprintf_r+0xae8>
  408642:	4631      	mov	r1, r6
  408644:	08e2      	lsrs	r2, r4, #3
  408646:	ea42 7245 	orr.w	r2, r2, r5, lsl #29
  40864a:	08e8      	lsrs	r0, r5, #3
  40864c:	f004 0307 	and.w	r3, r4, #7
  408650:	4605      	mov	r5, r0
  408652:	4614      	mov	r4, r2
  408654:	3330      	adds	r3, #48	; 0x30
  408656:	ea54 0205 	orrs.w	r2, r4, r5
  40865a:	f801 3c01 	strb.w	r3, [r1, #-1]
  40865e:	f101 36ff 	add.w	r6, r1, #4294967295
  408662:	d1ee      	bne.n	408642 <_svfprintf_r+0xae6>
  408664:	9a07      	ldr	r2, [sp, #28]
  408666:	07d2      	lsls	r2, r2, #31
  408668:	f57f adf3 	bpl.w	408252 <_svfprintf_r+0x6f6>
  40866c:	2b30      	cmp	r3, #48	; 0x30
  40866e:	f43f adf0 	beq.w	408252 <_svfprintf_r+0x6f6>
  408672:	3902      	subs	r1, #2
  408674:	2330      	movs	r3, #48	; 0x30
  408676:	f806 3c01 	strb.w	r3, [r6, #-1]
  40867a:	eba9 0301 	sub.w	r3, r9, r1
  40867e:	930e      	str	r3, [sp, #56]	; 0x38
  408680:	460e      	mov	r6, r1
  408682:	f7ff bb7b 	b.w	407d7c <_svfprintf_r+0x220>
  408686:	991f      	ldr	r1, [sp, #124]	; 0x7c
  408688:	2900      	cmp	r1, #0
  40868a:	f340 822e 	ble.w	408aea <_svfprintf_r+0xf8e>
  40868e:	9b12      	ldr	r3, [sp, #72]	; 0x48
  408690:	9a13      	ldr	r2, [sp, #76]	; 0x4c
  408692:	4293      	cmp	r3, r2
  408694:	bfa8      	it	ge
  408696:	4613      	movge	r3, r2
  408698:	2b00      	cmp	r3, #0
  40869a:	461f      	mov	r7, r3
  40869c:	dd0d      	ble.n	4086ba <_svfprintf_r+0xb5e>
  40869e:	9b26      	ldr	r3, [sp, #152]	; 0x98
  4086a0:	f8c8 6000 	str.w	r6, [r8]
  4086a4:	3301      	adds	r3, #1
  4086a6:	443c      	add	r4, r7
  4086a8:	2b07      	cmp	r3, #7
  4086aa:	9427      	str	r4, [sp, #156]	; 0x9c
  4086ac:	f8c8 7004 	str.w	r7, [r8, #4]
  4086b0:	9326      	str	r3, [sp, #152]	; 0x98
  4086b2:	f300 831f 	bgt.w	408cf4 <_svfprintf_r+0x1198>
  4086b6:	f108 0808 	add.w	r8, r8, #8
  4086ba:	9b12      	ldr	r3, [sp, #72]	; 0x48
  4086bc:	2f00      	cmp	r7, #0
  4086be:	bfa8      	it	ge
  4086c0:	1bdb      	subge	r3, r3, r7
  4086c2:	2b00      	cmp	r3, #0
  4086c4:	461f      	mov	r7, r3
  4086c6:	f340 80d6 	ble.w	408876 <_svfprintf_r+0xd1a>
  4086ca:	2f10      	cmp	r7, #16
  4086cc:	9b26      	ldr	r3, [sp, #152]	; 0x98
  4086ce:	4d31      	ldr	r5, [pc, #196]	; (408794 <_svfprintf_r+0xc38>)
  4086d0:	f340 81ed 	ble.w	408aae <_svfprintf_r+0xf52>
  4086d4:	4642      	mov	r2, r8
  4086d6:	4621      	mov	r1, r4
  4086d8:	46b0      	mov	r8, r6
  4086da:	f04f 0b10 	mov.w	fp, #16
  4086de:	462e      	mov	r6, r5
  4086e0:	9c0c      	ldr	r4, [sp, #48]	; 0x30
  4086e2:	9d0b      	ldr	r5, [sp, #44]	; 0x2c
  4086e4:	e004      	b.n	4086f0 <_svfprintf_r+0xb94>
  4086e6:	3208      	adds	r2, #8
  4086e8:	3f10      	subs	r7, #16
  4086ea:	2f10      	cmp	r7, #16
  4086ec:	f340 81db 	ble.w	408aa6 <_svfprintf_r+0xf4a>
  4086f0:	3301      	adds	r3, #1
  4086f2:	3110      	adds	r1, #16
  4086f4:	2b07      	cmp	r3, #7
  4086f6:	9127      	str	r1, [sp, #156]	; 0x9c
  4086f8:	9326      	str	r3, [sp, #152]	; 0x98
  4086fa:	e882 0840 	stmia.w	r2, {r6, fp}
  4086fe:	ddf2      	ble.n	4086e6 <_svfprintf_r+0xb8a>
  408700:	aa25      	add	r2, sp, #148	; 0x94
  408702:	4629      	mov	r1, r5
  408704:	4620      	mov	r0, r4
  408706:	f004 f921 	bl	40c94c <__ssprint_r>
  40870a:	2800      	cmp	r0, #0
  40870c:	f47f aaf8 	bne.w	407d00 <_svfprintf_r+0x1a4>
  408710:	9927      	ldr	r1, [sp, #156]	; 0x9c
  408712:	9b26      	ldr	r3, [sp, #152]	; 0x98
  408714:	464a      	mov	r2, r9
  408716:	e7e7      	b.n	4086e8 <_svfprintf_r+0xb8c>
  408718:	9b0a      	ldr	r3, [sp, #40]	; 0x28
  40871a:	930e      	str	r3, [sp, #56]	; 0x38
  40871c:	464e      	mov	r6, r9
  40871e:	f7ff bb2d 	b.w	407d7c <_svfprintf_r+0x220>
  408722:	2d00      	cmp	r5, #0
  408724:	bf08      	it	eq
  408726:	2c0a      	cmpeq	r4, #10
  408728:	f0c0 808f 	bcc.w	40884a <_svfprintf_r+0xcee>
  40872c:	464e      	mov	r6, r9
  40872e:	4620      	mov	r0, r4
  408730:	4629      	mov	r1, r5
  408732:	220a      	movs	r2, #10
  408734:	2300      	movs	r3, #0
  408736:	f004 fc23 	bl	40cf80 <__aeabi_uldivmod>
  40873a:	3230      	adds	r2, #48	; 0x30
  40873c:	f806 2d01 	strb.w	r2, [r6, #-1]!
  408740:	4620      	mov	r0, r4
  408742:	4629      	mov	r1, r5
  408744:	2300      	movs	r3, #0
  408746:	220a      	movs	r2, #10
  408748:	f004 fc1a 	bl	40cf80 <__aeabi_uldivmod>
  40874c:	4604      	mov	r4, r0
  40874e:	460d      	mov	r5, r1
  408750:	ea54 0305 	orrs.w	r3, r4, r5
  408754:	d1eb      	bne.n	40872e <_svfprintf_r+0xbd2>
  408756:	eba9 0306 	sub.w	r3, r9, r6
  40875a:	930e      	str	r3, [sp, #56]	; 0x38
  40875c:	f7ff bb0e 	b.w	407d7c <_svfprintf_r+0x220>
  408760:	aa25      	add	r2, sp, #148	; 0x94
  408762:	990b      	ldr	r1, [sp, #44]	; 0x2c
  408764:	980c      	ldr	r0, [sp, #48]	; 0x30
  408766:	f004 f8f1 	bl	40c94c <__ssprint_r>
  40876a:	2800      	cmp	r0, #0
  40876c:	f47f aac8 	bne.w	407d00 <_svfprintf_r+0x1a4>
  408770:	f89d 7077 	ldrb.w	r7, [sp, #119]	; 0x77
  408774:	9c27      	ldr	r4, [sp, #156]	; 0x9c
  408776:	46c8      	mov	r8, r9
  408778:	f7ff bb5e 	b.w	407e38 <_svfprintf_r+0x2dc>
  40877c:	1e5e      	subs	r6, r3, #1
  40877e:	2e00      	cmp	r6, #0
  408780:	f77f af0a 	ble.w	408598 <_svfprintf_r+0xa3c>
  408784:	2e10      	cmp	r6, #16
  408786:	4d03      	ldr	r5, [pc, #12]	; (408794 <_svfprintf_r+0xc38>)
  408788:	dd22      	ble.n	4087d0 <_svfprintf_r+0xc74>
  40878a:	4622      	mov	r2, r4
  40878c:	f04f 0b10 	mov.w	fp, #16
  408790:	9c0c      	ldr	r4, [sp, #48]	; 0x30
  408792:	e006      	b.n	4087a2 <_svfprintf_r+0xc46>
  408794:	0040e2f8 	.word	0x0040e2f8
  408798:	3e10      	subs	r6, #16
  40879a:	2e10      	cmp	r6, #16
  40879c:	f108 0808 	add.w	r8, r8, #8
  4087a0:	dd15      	ble.n	4087ce <_svfprintf_r+0xc72>
  4087a2:	3701      	adds	r7, #1
  4087a4:	3210      	adds	r2, #16
  4087a6:	2f07      	cmp	r7, #7
  4087a8:	9227      	str	r2, [sp, #156]	; 0x9c
  4087aa:	9726      	str	r7, [sp, #152]	; 0x98
  4087ac:	e888 0820 	stmia.w	r8, {r5, fp}
  4087b0:	ddf2      	ble.n	408798 <_svfprintf_r+0xc3c>
  4087b2:	aa25      	add	r2, sp, #148	; 0x94
  4087b4:	990b      	ldr	r1, [sp, #44]	; 0x2c
  4087b6:	4620      	mov	r0, r4
  4087b8:	f004 f8c8 	bl	40c94c <__ssprint_r>
  4087bc:	2800      	cmp	r0, #0
  4087be:	f47f aa9f 	bne.w	407d00 <_svfprintf_r+0x1a4>
  4087c2:	3e10      	subs	r6, #16
  4087c4:	2e10      	cmp	r6, #16
  4087c6:	9a27      	ldr	r2, [sp, #156]	; 0x9c
  4087c8:	9f26      	ldr	r7, [sp, #152]	; 0x98
  4087ca:	46c8      	mov	r8, r9
  4087cc:	dce9      	bgt.n	4087a2 <_svfprintf_r+0xc46>
  4087ce:	4614      	mov	r4, r2
  4087d0:	3701      	adds	r7, #1
  4087d2:	4434      	add	r4, r6
  4087d4:	2f07      	cmp	r7, #7
  4087d6:	9427      	str	r4, [sp, #156]	; 0x9c
  4087d8:	9726      	str	r7, [sp, #152]	; 0x98
  4087da:	e888 0060 	stmia.w	r8, {r5, r6}
  4087de:	f77f aed9 	ble.w	408594 <_svfprintf_r+0xa38>
  4087e2:	aa25      	add	r2, sp, #148	; 0x94
  4087e4:	990b      	ldr	r1, [sp, #44]	; 0x2c
  4087e6:	980c      	ldr	r0, [sp, #48]	; 0x30
  4087e8:	f004 f8b0 	bl	40c94c <__ssprint_r>
  4087ec:	2800      	cmp	r0, #0
  4087ee:	f47f aa87 	bne.w	407d00 <_svfprintf_r+0x1a4>
  4087f2:	9c27      	ldr	r4, [sp, #156]	; 0x9c
  4087f4:	9f26      	ldr	r7, [sp, #152]	; 0x98
  4087f6:	46c8      	mov	r8, r9
  4087f8:	e6ce      	b.n	408598 <_svfprintf_r+0xa3c>
  4087fa:	9a0f      	ldr	r2, [sp, #60]	; 0x3c
  4087fc:	6814      	ldr	r4, [r2, #0]
  4087fe:	4613      	mov	r3, r2
  408800:	3304      	adds	r3, #4
  408802:	17e5      	asrs	r5, r4, #31
  408804:	930f      	str	r3, [sp, #60]	; 0x3c
  408806:	4622      	mov	r2, r4
  408808:	462b      	mov	r3, r5
  40880a:	e4fa      	b.n	408202 <_svfprintf_r+0x6a6>
  40880c:	3204      	adds	r2, #4
  40880e:	681c      	ldr	r4, [r3, #0]
  408810:	920f      	str	r2, [sp, #60]	; 0x3c
  408812:	2301      	movs	r3, #1
  408814:	2500      	movs	r5, #0
  408816:	f7ff ba94 	b.w	407d42 <_svfprintf_r+0x1e6>
  40881a:	681c      	ldr	r4, [r3, #0]
  40881c:	3304      	adds	r3, #4
  40881e:	930f      	str	r3, [sp, #60]	; 0x3c
  408820:	2500      	movs	r5, #0
  408822:	e421      	b.n	408068 <_svfprintf_r+0x50c>
  408824:	990f      	ldr	r1, [sp, #60]	; 0x3c
  408826:	460a      	mov	r2, r1
  408828:	3204      	adds	r2, #4
  40882a:	680c      	ldr	r4, [r1, #0]
  40882c:	920f      	str	r2, [sp, #60]	; 0x3c
  40882e:	2500      	movs	r5, #0
  408830:	f7ff ba87 	b.w	407d42 <_svfprintf_r+0x1e6>
  408834:	4614      	mov	r4, r2
  408836:	3301      	adds	r3, #1
  408838:	4434      	add	r4, r6
  40883a:	2b07      	cmp	r3, #7
  40883c:	9427      	str	r4, [sp, #156]	; 0x9c
  40883e:	9326      	str	r3, [sp, #152]	; 0x98
  408840:	e888 0060 	stmia.w	r8, {r5, r6}
  408844:	f77f ab68 	ble.w	407f18 <_svfprintf_r+0x3bc>
  408848:	e6b3      	b.n	4085b2 <_svfprintf_r+0xa56>
  40884a:	f8dd b01c 	ldr.w	fp, [sp, #28]
  40884e:	f8cd b01c 	str.w	fp, [sp, #28]
  408852:	ae42      	add	r6, sp, #264	; 0x108
  408854:	3430      	adds	r4, #48	; 0x30
  408856:	2301      	movs	r3, #1
  408858:	f806 4d41 	strb.w	r4, [r6, #-65]!
  40885c:	930e      	str	r3, [sp, #56]	; 0x38
  40885e:	f7ff ba8d 	b.w	407d7c <_svfprintf_r+0x220>
  408862:	aa25      	add	r2, sp, #148	; 0x94
  408864:	990b      	ldr	r1, [sp, #44]	; 0x2c
  408866:	980c      	ldr	r0, [sp, #48]	; 0x30
  408868:	f004 f870 	bl	40c94c <__ssprint_r>
  40886c:	2800      	cmp	r0, #0
  40886e:	f47f aa47 	bne.w	407d00 <_svfprintf_r+0x1a4>
  408872:	9c27      	ldr	r4, [sp, #156]	; 0x9c
  408874:	46c8      	mov	r8, r9
  408876:	9a1f      	ldr	r2, [sp, #124]	; 0x7c
  408878:	9b13      	ldr	r3, [sp, #76]	; 0x4c
  40887a:	429a      	cmp	r2, r3
  40887c:	db44      	blt.n	408908 <_svfprintf_r+0xdac>
  40887e:	9b07      	ldr	r3, [sp, #28]
  408880:	07d9      	lsls	r1, r3, #31
  408882:	d441      	bmi.n	408908 <_svfprintf_r+0xdac>
  408884:	9b13      	ldr	r3, [sp, #76]	; 0x4c
  408886:	9812      	ldr	r0, [sp, #72]	; 0x48
  408888:	1a9a      	subs	r2, r3, r2
  40888a:	1a1d      	subs	r5, r3, r0
  40888c:	4295      	cmp	r5, r2
  40888e:	bfa8      	it	ge
  408890:	4615      	movge	r5, r2
  408892:	2d00      	cmp	r5, #0
  408894:	dd0e      	ble.n	4088b4 <_svfprintf_r+0xd58>
  408896:	9926      	ldr	r1, [sp, #152]	; 0x98
  408898:	f8c8 5004 	str.w	r5, [r8, #4]
  40889c:	3101      	adds	r1, #1
  40889e:	4406      	add	r6, r0
  4088a0:	442c      	add	r4, r5
  4088a2:	2907      	cmp	r1, #7
  4088a4:	f8c8 6000 	str.w	r6, [r8]
  4088a8:	9427      	str	r4, [sp, #156]	; 0x9c
  4088aa:	9126      	str	r1, [sp, #152]	; 0x98
  4088ac:	f300 823b 	bgt.w	408d26 <_svfprintf_r+0x11ca>
  4088b0:	f108 0808 	add.w	r8, r8, #8
  4088b4:	2d00      	cmp	r5, #0
  4088b6:	bfac      	ite	ge
  4088b8:	1b56      	subge	r6, r2, r5
  4088ba:	4616      	movlt	r6, r2
  4088bc:	2e00      	cmp	r6, #0
  4088be:	f77f ab2d 	ble.w	407f1c <_svfprintf_r+0x3c0>
  4088c2:	2e10      	cmp	r6, #16
  4088c4:	9b26      	ldr	r3, [sp, #152]	; 0x98
  4088c6:	4db0      	ldr	r5, [pc, #704]	; (408b88 <_svfprintf_r+0x102c>)
  4088c8:	ddb5      	ble.n	408836 <_svfprintf_r+0xcda>
  4088ca:	4622      	mov	r2, r4
  4088cc:	2710      	movs	r7, #16
  4088ce:	f8dd b030 	ldr.w	fp, [sp, #48]	; 0x30
  4088d2:	9c0b      	ldr	r4, [sp, #44]	; 0x2c
  4088d4:	e004      	b.n	4088e0 <_svfprintf_r+0xd84>
  4088d6:	f108 0808 	add.w	r8, r8, #8
  4088da:	3e10      	subs	r6, #16
  4088dc:	2e10      	cmp	r6, #16
  4088de:	dda9      	ble.n	408834 <_svfprintf_r+0xcd8>
  4088e0:	3301      	adds	r3, #1
  4088e2:	3210      	adds	r2, #16
  4088e4:	2b07      	cmp	r3, #7
  4088e6:	9227      	str	r2, [sp, #156]	; 0x9c
  4088e8:	9326      	str	r3, [sp, #152]	; 0x98
  4088ea:	e888 00a0 	stmia.w	r8, {r5, r7}
  4088ee:	ddf2      	ble.n	4088d6 <_svfprintf_r+0xd7a>
  4088f0:	aa25      	add	r2, sp, #148	; 0x94
  4088f2:	4621      	mov	r1, r4
  4088f4:	4658      	mov	r0, fp
  4088f6:	f004 f829 	bl	40c94c <__ssprint_r>
  4088fa:	2800      	cmp	r0, #0
  4088fc:	f47f aa00 	bne.w	407d00 <_svfprintf_r+0x1a4>
  408900:	9a27      	ldr	r2, [sp, #156]	; 0x9c
  408902:	9b26      	ldr	r3, [sp, #152]	; 0x98
  408904:	46c8      	mov	r8, r9
  408906:	e7e8      	b.n	4088da <_svfprintf_r+0xd7e>
  408908:	9b26      	ldr	r3, [sp, #152]	; 0x98
  40890a:	9819      	ldr	r0, [sp, #100]	; 0x64
  40890c:	991a      	ldr	r1, [sp, #104]	; 0x68
  40890e:	f8c8 1000 	str.w	r1, [r8]
  408912:	3301      	adds	r3, #1
  408914:	4404      	add	r4, r0
  408916:	2b07      	cmp	r3, #7
  408918:	9427      	str	r4, [sp, #156]	; 0x9c
  40891a:	f8c8 0004 	str.w	r0, [r8, #4]
  40891e:	9326      	str	r3, [sp, #152]	; 0x98
  408920:	f300 81f5 	bgt.w	408d0e <_svfprintf_r+0x11b2>
  408924:	f108 0808 	add.w	r8, r8, #8
  408928:	e7ac      	b.n	408884 <_svfprintf_r+0xd28>
  40892a:	9b07      	ldr	r3, [sp, #28]
  40892c:	07da      	lsls	r2, r3, #31
  40892e:	f53f adfe 	bmi.w	40852e <_svfprintf_r+0x9d2>
  408932:	3701      	adds	r7, #1
  408934:	3401      	adds	r4, #1
  408936:	2301      	movs	r3, #1
  408938:	2f07      	cmp	r7, #7
  40893a:	9427      	str	r4, [sp, #156]	; 0x9c
  40893c:	9726      	str	r7, [sp, #152]	; 0x98
  40893e:	f8c8 6000 	str.w	r6, [r8]
  408942:	f8c8 3004 	str.w	r3, [r8, #4]
  408946:	f77f ae25 	ble.w	408594 <_svfprintf_r+0xa38>
  40894a:	e74a      	b.n	4087e2 <_svfprintf_r+0xc86>
  40894c:	aa25      	add	r2, sp, #148	; 0x94
  40894e:	990b      	ldr	r1, [sp, #44]	; 0x2c
  408950:	980c      	ldr	r0, [sp, #48]	; 0x30
  408952:	f003 fffb 	bl	40c94c <__ssprint_r>
  408956:	2800      	cmp	r0, #0
  408958:	f47f a9d2 	bne.w	407d00 <_svfprintf_r+0x1a4>
  40895c:	9c27      	ldr	r4, [sp, #156]	; 0x9c
  40895e:	9f26      	ldr	r7, [sp, #152]	; 0x98
  408960:	46c8      	mov	r8, r9
  408962:	e5f2      	b.n	40854a <_svfprintf_r+0x9ee>
  408964:	aa25      	add	r2, sp, #148	; 0x94
  408966:	990b      	ldr	r1, [sp, #44]	; 0x2c
  408968:	980c      	ldr	r0, [sp, #48]	; 0x30
  40896a:	f003 ffef 	bl	40c94c <__ssprint_r>
  40896e:	2800      	cmp	r0, #0
  408970:	f47f a9c6 	bne.w	407d00 <_svfprintf_r+0x1a4>
  408974:	9c27      	ldr	r4, [sp, #156]	; 0x9c
  408976:	9f26      	ldr	r7, [sp, #152]	; 0x98
  408978:	46c8      	mov	r8, r9
  40897a:	e5f5      	b.n	408568 <_svfprintf_r+0xa0c>
  40897c:	464e      	mov	r6, r9
  40897e:	f7ff b9fd 	b.w	407d7c <_svfprintf_r+0x220>
  408982:	aa25      	add	r2, sp, #148	; 0x94
  408984:	990b      	ldr	r1, [sp, #44]	; 0x2c
  408986:	980c      	ldr	r0, [sp, #48]	; 0x30
  408988:	f003 ffe0 	bl	40c94c <__ssprint_r>
  40898c:	2800      	cmp	r0, #0
  40898e:	f47f a9b7 	bne.w	407d00 <_svfprintf_r+0x1a4>
  408992:	9c27      	ldr	r4, [sp, #156]	; 0x9c
  408994:	46c8      	mov	r8, r9
  408996:	f7ff ba72 	b.w	407e7e <_svfprintf_r+0x322>
  40899a:	9c15      	ldr	r4, [sp, #84]	; 0x54
  40899c:	4622      	mov	r2, r4
  40899e:	4620      	mov	r0, r4
  4089a0:	9c14      	ldr	r4, [sp, #80]	; 0x50
  4089a2:	4623      	mov	r3, r4
  4089a4:	4621      	mov	r1, r4
  4089a6:	f004 fad5 	bl	40cf54 <__aeabi_dcmpun>
  4089aa:	2800      	cmp	r0, #0
  4089ac:	f040 8286 	bne.w	408ebc <_svfprintf_r+0x1360>
  4089b0:	9b0a      	ldr	r3, [sp, #40]	; 0x28
  4089b2:	3301      	adds	r3, #1
  4089b4:	9b11      	ldr	r3, [sp, #68]	; 0x44
  4089b6:	f023 0320 	bic.w	r3, r3, #32
  4089ba:	930e      	str	r3, [sp, #56]	; 0x38
  4089bc:	f000 81e2 	beq.w	408d84 <_svfprintf_r+0x1228>
  4089c0:	2b47      	cmp	r3, #71	; 0x47
  4089c2:	f000 811e 	beq.w	408c02 <_svfprintf_r+0x10a6>
  4089c6:	f44b 7380 	orr.w	r3, fp, #256	; 0x100
  4089ca:	9307      	str	r3, [sp, #28]
  4089cc:	9b14      	ldr	r3, [sp, #80]	; 0x50
  4089ce:	1e1f      	subs	r7, r3, #0
  4089d0:	9b15      	ldr	r3, [sp, #84]	; 0x54
  4089d2:	9308      	str	r3, [sp, #32]
  4089d4:	bfbb      	ittet	lt
  4089d6:	463b      	movlt	r3, r7
  4089d8:	f103 4700 	addlt.w	r7, r3, #2147483648	; 0x80000000
  4089dc:	2300      	movge	r3, #0
  4089de:	232d      	movlt	r3, #45	; 0x2d
  4089e0:	9310      	str	r3, [sp, #64]	; 0x40
  4089e2:	9b11      	ldr	r3, [sp, #68]	; 0x44
  4089e4:	2b66      	cmp	r3, #102	; 0x66
  4089e6:	f000 81bb 	beq.w	408d60 <_svfprintf_r+0x1204>
  4089ea:	2b46      	cmp	r3, #70	; 0x46
  4089ec:	f000 80df 	beq.w	408bae <_svfprintf_r+0x1052>
  4089f0:	9b0e      	ldr	r3, [sp, #56]	; 0x38
  4089f2:	9a08      	ldr	r2, [sp, #32]
  4089f4:	2b45      	cmp	r3, #69	; 0x45
  4089f6:	bf0c      	ite	eq
  4089f8:	9b0a      	ldreq	r3, [sp, #40]	; 0x28
  4089fa:	9d0a      	ldrne	r5, [sp, #40]	; 0x28
  4089fc:	a823      	add	r0, sp, #140	; 0x8c
  4089fe:	a920      	add	r1, sp, #128	; 0x80
  408a00:	bf08      	it	eq
  408a02:	1c5d      	addeq	r5, r3, #1
  408a04:	9004      	str	r0, [sp, #16]
  408a06:	9103      	str	r1, [sp, #12]
  408a08:	a81f      	add	r0, sp, #124	; 0x7c
  408a0a:	2102      	movs	r1, #2
  408a0c:	463b      	mov	r3, r7
  408a0e:	9002      	str	r0, [sp, #8]
  408a10:	9501      	str	r5, [sp, #4]
  408a12:	9100      	str	r1, [sp, #0]
  408a14:	980c      	ldr	r0, [sp, #48]	; 0x30
  408a16:	f001 faa3 	bl	409f60 <_dtoa_r>
  408a1a:	9b11      	ldr	r3, [sp, #68]	; 0x44
  408a1c:	2b67      	cmp	r3, #103	; 0x67
  408a1e:	4606      	mov	r6, r0
  408a20:	f040 81e0 	bne.w	408de4 <_svfprintf_r+0x1288>
  408a24:	f01b 0f01 	tst.w	fp, #1
  408a28:	f000 8246 	beq.w	408eb8 <_svfprintf_r+0x135c>
  408a2c:	1974      	adds	r4, r6, r5
  408a2e:	9a16      	ldr	r2, [sp, #88]	; 0x58
  408a30:	9808      	ldr	r0, [sp, #32]
  408a32:	9b17      	ldr	r3, [sp, #92]	; 0x5c
  408a34:	4639      	mov	r1, r7
  408a36:	f004 fa5b 	bl	40cef0 <__aeabi_dcmpeq>
  408a3a:	2800      	cmp	r0, #0
  408a3c:	f040 8165 	bne.w	408d0a <_svfprintf_r+0x11ae>
  408a40:	9b23      	ldr	r3, [sp, #140]	; 0x8c
  408a42:	42a3      	cmp	r3, r4
  408a44:	d206      	bcs.n	408a54 <_svfprintf_r+0xef8>
  408a46:	2130      	movs	r1, #48	; 0x30
  408a48:	1c5a      	adds	r2, r3, #1
  408a4a:	9223      	str	r2, [sp, #140]	; 0x8c
  408a4c:	7019      	strb	r1, [r3, #0]
  408a4e:	9b23      	ldr	r3, [sp, #140]	; 0x8c
  408a50:	429c      	cmp	r4, r3
  408a52:	d8f9      	bhi.n	408a48 <_svfprintf_r+0xeec>
  408a54:	1b9b      	subs	r3, r3, r6
  408a56:	9313      	str	r3, [sp, #76]	; 0x4c
  408a58:	9b0e      	ldr	r3, [sp, #56]	; 0x38
  408a5a:	2b47      	cmp	r3, #71	; 0x47
  408a5c:	f000 80e9 	beq.w	408c32 <_svfprintf_r+0x10d6>
  408a60:	9b11      	ldr	r3, [sp, #68]	; 0x44
  408a62:	2b65      	cmp	r3, #101	; 0x65
  408a64:	f340 81cd 	ble.w	408e02 <_svfprintf_r+0x12a6>
  408a68:	9b11      	ldr	r3, [sp, #68]	; 0x44
  408a6a:	2b66      	cmp	r3, #102	; 0x66
  408a6c:	9b1f      	ldr	r3, [sp, #124]	; 0x7c
  408a6e:	9312      	str	r3, [sp, #72]	; 0x48
  408a70:	f000 819e 	beq.w	408db0 <_svfprintf_r+0x1254>
  408a74:	9b13      	ldr	r3, [sp, #76]	; 0x4c
  408a76:	9a12      	ldr	r2, [sp, #72]	; 0x48
  408a78:	4619      	mov	r1, r3
  408a7a:	4291      	cmp	r1, r2
  408a7c:	f300 818a 	bgt.w	408d94 <_svfprintf_r+0x1238>
  408a80:	f01b 0f01 	tst.w	fp, #1
  408a84:	f040 8213 	bne.w	408eae <_svfprintf_r+0x1352>
  408a88:	ea22 73e2 	bic.w	r3, r2, r2, asr #31
  408a8c:	9308      	str	r3, [sp, #32]
  408a8e:	2367      	movs	r3, #103	; 0x67
  408a90:	920e      	str	r2, [sp, #56]	; 0x38
  408a92:	9311      	str	r3, [sp, #68]	; 0x44
  408a94:	9b10      	ldr	r3, [sp, #64]	; 0x40
  408a96:	2b00      	cmp	r3, #0
  408a98:	f040 80c4 	bne.w	408c24 <_svfprintf_r+0x10c8>
  408a9c:	930a      	str	r3, [sp, #40]	; 0x28
  408a9e:	f89d 7077 	ldrb.w	r7, [sp, #119]	; 0x77
  408aa2:	f7ff b973 	b.w	407d8c <_svfprintf_r+0x230>
  408aa6:	4635      	mov	r5, r6
  408aa8:	460c      	mov	r4, r1
  408aaa:	4646      	mov	r6, r8
  408aac:	4690      	mov	r8, r2
  408aae:	3301      	adds	r3, #1
  408ab0:	443c      	add	r4, r7
  408ab2:	2b07      	cmp	r3, #7
  408ab4:	9427      	str	r4, [sp, #156]	; 0x9c
  408ab6:	9326      	str	r3, [sp, #152]	; 0x98
  408ab8:	e888 00a0 	stmia.w	r8, {r5, r7}
  408abc:	f73f aed1 	bgt.w	408862 <_svfprintf_r+0xd06>
  408ac0:	f108 0808 	add.w	r8, r8, #8
  408ac4:	e6d7      	b.n	408876 <_svfprintf_r+0xd1a>
  408ac6:	9a0f      	ldr	r2, [sp, #60]	; 0x3c
  408ac8:	6813      	ldr	r3, [r2, #0]
  408aca:	3204      	adds	r2, #4
  408acc:	920f      	str	r2, [sp, #60]	; 0x3c
  408ace:	9a09      	ldr	r2, [sp, #36]	; 0x24
  408ad0:	601a      	str	r2, [r3, #0]
  408ad2:	f7ff b86a 	b.w	407baa <_svfprintf_r+0x4e>
  408ad6:	aa25      	add	r2, sp, #148	; 0x94
  408ad8:	990b      	ldr	r1, [sp, #44]	; 0x2c
  408ada:	980c      	ldr	r0, [sp, #48]	; 0x30
  408adc:	f003 ff36 	bl	40c94c <__ssprint_r>
  408ae0:	2800      	cmp	r0, #0
  408ae2:	f47f a90d 	bne.w	407d00 <_svfprintf_r+0x1a4>
  408ae6:	46c8      	mov	r8, r9
  408ae8:	e48d      	b.n	408406 <_svfprintf_r+0x8aa>
  408aea:	9b26      	ldr	r3, [sp, #152]	; 0x98
  408aec:	4a27      	ldr	r2, [pc, #156]	; (408b8c <_svfprintf_r+0x1030>)
  408aee:	f8c8 2000 	str.w	r2, [r8]
  408af2:	3301      	adds	r3, #1
  408af4:	3401      	adds	r4, #1
  408af6:	2201      	movs	r2, #1
  408af8:	2b07      	cmp	r3, #7
  408afa:	9427      	str	r4, [sp, #156]	; 0x9c
  408afc:	9326      	str	r3, [sp, #152]	; 0x98
  408afe:	f8c8 2004 	str.w	r2, [r8, #4]
  408b02:	dc72      	bgt.n	408bea <_svfprintf_r+0x108e>
  408b04:	f108 0808 	add.w	r8, r8, #8
  408b08:	b929      	cbnz	r1, 408b16 <_svfprintf_r+0xfba>
  408b0a:	9b13      	ldr	r3, [sp, #76]	; 0x4c
  408b0c:	b91b      	cbnz	r3, 408b16 <_svfprintf_r+0xfba>
  408b0e:	9b07      	ldr	r3, [sp, #28]
  408b10:	07d8      	lsls	r0, r3, #31
  408b12:	f57f aa03 	bpl.w	407f1c <_svfprintf_r+0x3c0>
  408b16:	9b26      	ldr	r3, [sp, #152]	; 0x98
  408b18:	9819      	ldr	r0, [sp, #100]	; 0x64
  408b1a:	9a1a      	ldr	r2, [sp, #104]	; 0x68
  408b1c:	f8c8 2000 	str.w	r2, [r8]
  408b20:	3301      	adds	r3, #1
  408b22:	4602      	mov	r2, r0
  408b24:	4422      	add	r2, r4
  408b26:	2b07      	cmp	r3, #7
  408b28:	9227      	str	r2, [sp, #156]	; 0x9c
  408b2a:	f8c8 0004 	str.w	r0, [r8, #4]
  408b2e:	9326      	str	r3, [sp, #152]	; 0x98
  408b30:	f300 818d 	bgt.w	408e4e <_svfprintf_r+0x12f2>
  408b34:	f108 0808 	add.w	r8, r8, #8
  408b38:	2900      	cmp	r1, #0
  408b3a:	f2c0 8165 	blt.w	408e08 <_svfprintf_r+0x12ac>
  408b3e:	9913      	ldr	r1, [sp, #76]	; 0x4c
  408b40:	f8c8 6000 	str.w	r6, [r8]
  408b44:	3301      	adds	r3, #1
  408b46:	188c      	adds	r4, r1, r2
  408b48:	2b07      	cmp	r3, #7
  408b4a:	9427      	str	r4, [sp, #156]	; 0x9c
  408b4c:	9326      	str	r3, [sp, #152]	; 0x98
  408b4e:	f8c8 1004 	str.w	r1, [r8, #4]
  408b52:	f77f a9e1 	ble.w	407f18 <_svfprintf_r+0x3bc>
  408b56:	e52c      	b.n	4085b2 <_svfprintf_r+0xa56>
  408b58:	9a0f      	ldr	r2, [sp, #60]	; 0x3c
  408b5a:	9909      	ldr	r1, [sp, #36]	; 0x24
  408b5c:	6813      	ldr	r3, [r2, #0]
  408b5e:	17cd      	asrs	r5, r1, #31
  408b60:	4608      	mov	r0, r1
  408b62:	3204      	adds	r2, #4
  408b64:	4629      	mov	r1, r5
  408b66:	920f      	str	r2, [sp, #60]	; 0x3c
  408b68:	e9c3 0100 	strd	r0, r1, [r3]
  408b6c:	f7ff b81d 	b.w	407baa <_svfprintf_r+0x4e>
  408b70:	aa25      	add	r2, sp, #148	; 0x94
  408b72:	990b      	ldr	r1, [sp, #44]	; 0x2c
  408b74:	980c      	ldr	r0, [sp, #48]	; 0x30
  408b76:	f003 fee9 	bl	40c94c <__ssprint_r>
  408b7a:	2800      	cmp	r0, #0
  408b7c:	f47f a8c0 	bne.w	407d00 <_svfprintf_r+0x1a4>
  408b80:	9c27      	ldr	r4, [sp, #156]	; 0x9c
  408b82:	46c8      	mov	r8, r9
  408b84:	e458      	b.n	408438 <_svfprintf_r+0x8dc>
  408b86:	bf00      	nop
  408b88:	0040e2f8 	.word	0x0040e2f8
  408b8c:	0040e2e4 	.word	0x0040e2e4
  408b90:	2140      	movs	r1, #64	; 0x40
  408b92:	980c      	ldr	r0, [sp, #48]	; 0x30
  408b94:	f002 fe58 	bl	40b848 <_malloc_r>
  408b98:	9a0b      	ldr	r2, [sp, #44]	; 0x2c
  408b9a:	6010      	str	r0, [r2, #0]
  408b9c:	6110      	str	r0, [r2, #16]
  408b9e:	2800      	cmp	r0, #0
  408ba0:	f000 81f2 	beq.w	408f88 <_svfprintf_r+0x142c>
  408ba4:	9a0b      	ldr	r2, [sp, #44]	; 0x2c
  408ba6:	2340      	movs	r3, #64	; 0x40
  408ba8:	6153      	str	r3, [r2, #20]
  408baa:	f7fe bfee 	b.w	407b8a <_svfprintf_r+0x2e>
  408bae:	a823      	add	r0, sp, #140	; 0x8c
  408bb0:	a920      	add	r1, sp, #128	; 0x80
  408bb2:	9c0a      	ldr	r4, [sp, #40]	; 0x28
  408bb4:	9004      	str	r0, [sp, #16]
  408bb6:	9103      	str	r1, [sp, #12]
  408bb8:	a81f      	add	r0, sp, #124	; 0x7c
  408bba:	2103      	movs	r1, #3
  408bbc:	9002      	str	r0, [sp, #8]
  408bbe:	9a08      	ldr	r2, [sp, #32]
  408bc0:	9401      	str	r4, [sp, #4]
  408bc2:	463b      	mov	r3, r7
  408bc4:	9100      	str	r1, [sp, #0]
  408bc6:	980c      	ldr	r0, [sp, #48]	; 0x30
  408bc8:	f001 f9ca 	bl	409f60 <_dtoa_r>
  408bcc:	4625      	mov	r5, r4
  408bce:	4606      	mov	r6, r0
  408bd0:	9b11      	ldr	r3, [sp, #68]	; 0x44
  408bd2:	2b46      	cmp	r3, #70	; 0x46
  408bd4:	eb06 0405 	add.w	r4, r6, r5
  408bd8:	f47f af29 	bne.w	408a2e <_svfprintf_r+0xed2>
  408bdc:	7833      	ldrb	r3, [r6, #0]
  408bde:	2b30      	cmp	r3, #48	; 0x30
  408be0:	f000 8178 	beq.w	408ed4 <_svfprintf_r+0x1378>
  408be4:	9d1f      	ldr	r5, [sp, #124]	; 0x7c
  408be6:	442c      	add	r4, r5
  408be8:	e721      	b.n	408a2e <_svfprintf_r+0xed2>
  408bea:	aa25      	add	r2, sp, #148	; 0x94
  408bec:	990b      	ldr	r1, [sp, #44]	; 0x2c
  408bee:	980c      	ldr	r0, [sp, #48]	; 0x30
  408bf0:	f003 feac 	bl	40c94c <__ssprint_r>
  408bf4:	2800      	cmp	r0, #0
  408bf6:	f47f a883 	bne.w	407d00 <_svfprintf_r+0x1a4>
  408bfa:	991f      	ldr	r1, [sp, #124]	; 0x7c
  408bfc:	9c27      	ldr	r4, [sp, #156]	; 0x9c
  408bfe:	46c8      	mov	r8, r9
  408c00:	e782      	b.n	408b08 <_svfprintf_r+0xfac>
  408c02:	9b0a      	ldr	r3, [sp, #40]	; 0x28
  408c04:	2b00      	cmp	r3, #0
  408c06:	bf08      	it	eq
  408c08:	2301      	moveq	r3, #1
  408c0a:	930a      	str	r3, [sp, #40]	; 0x28
  408c0c:	e6db      	b.n	4089c6 <_svfprintf_r+0xe6a>
  408c0e:	4630      	mov	r0, r6
  408c10:	940a      	str	r4, [sp, #40]	; 0x28
  408c12:	f7fe ff35 	bl	407a80 <strlen>
  408c16:	950f      	str	r5, [sp, #60]	; 0x3c
  408c18:	900e      	str	r0, [sp, #56]	; 0x38
  408c1a:	f8cd b01c 	str.w	fp, [sp, #28]
  408c1e:	4603      	mov	r3, r0
  408c20:	f7ff b9f9 	b.w	408016 <_svfprintf_r+0x4ba>
  408c24:	272d      	movs	r7, #45	; 0x2d
  408c26:	2300      	movs	r3, #0
  408c28:	f88d 7077 	strb.w	r7, [sp, #119]	; 0x77
  408c2c:	930a      	str	r3, [sp, #40]	; 0x28
  408c2e:	f7ff b8ae 	b.w	407d8e <_svfprintf_r+0x232>
  408c32:	9b1f      	ldr	r3, [sp, #124]	; 0x7c
  408c34:	9312      	str	r3, [sp, #72]	; 0x48
  408c36:	461a      	mov	r2, r3
  408c38:	3303      	adds	r3, #3
  408c3a:	db04      	blt.n	408c46 <_svfprintf_r+0x10ea>
  408c3c:	9b0a      	ldr	r3, [sp, #40]	; 0x28
  408c3e:	4619      	mov	r1, r3
  408c40:	4291      	cmp	r1, r2
  408c42:	f6bf af17 	bge.w	408a74 <_svfprintf_r+0xf18>
  408c46:	9b11      	ldr	r3, [sp, #68]	; 0x44
  408c48:	3b02      	subs	r3, #2
  408c4a:	9311      	str	r3, [sp, #68]	; 0x44
  408c4c:	f89d 3044 	ldrb.w	r3, [sp, #68]	; 0x44
  408c50:	f88d 3084 	strb.w	r3, [sp, #132]	; 0x84
  408c54:	9b12      	ldr	r3, [sp, #72]	; 0x48
  408c56:	3b01      	subs	r3, #1
  408c58:	2b00      	cmp	r3, #0
  408c5a:	931f      	str	r3, [sp, #124]	; 0x7c
  408c5c:	bfbd      	ittte	lt
  408c5e:	9b12      	ldrlt	r3, [sp, #72]	; 0x48
  408c60:	f1c3 0301 	rsblt	r3, r3, #1
  408c64:	222d      	movlt	r2, #45	; 0x2d
  408c66:	222b      	movge	r2, #43	; 0x2b
  408c68:	2b09      	cmp	r3, #9
  408c6a:	f88d 2085 	strb.w	r2, [sp, #133]	; 0x85
  408c6e:	f340 8116 	ble.w	408e9e <_svfprintf_r+0x1342>
  408c72:	f10d 0493 	add.w	r4, sp, #147	; 0x93
  408c76:	4620      	mov	r0, r4
  408c78:	4dab      	ldr	r5, [pc, #684]	; (408f28 <_svfprintf_r+0x13cc>)
  408c7a:	e000      	b.n	408c7e <_svfprintf_r+0x1122>
  408c7c:	4610      	mov	r0, r2
  408c7e:	fb85 1203 	smull	r1, r2, r5, r3
  408c82:	17d9      	asrs	r1, r3, #31
  408c84:	ebc1 01a2 	rsb	r1, r1, r2, asr #2
  408c88:	eb01 0281 	add.w	r2, r1, r1, lsl #2
  408c8c:	eba3 0242 	sub.w	r2, r3, r2, lsl #1
  408c90:	3230      	adds	r2, #48	; 0x30
  408c92:	2909      	cmp	r1, #9
  408c94:	f800 2c01 	strb.w	r2, [r0, #-1]
  408c98:	460b      	mov	r3, r1
  408c9a:	f100 32ff 	add.w	r2, r0, #4294967295
  408c9e:	dced      	bgt.n	408c7c <_svfprintf_r+0x1120>
  408ca0:	3330      	adds	r3, #48	; 0x30
  408ca2:	3802      	subs	r0, #2
  408ca4:	b2d9      	uxtb	r1, r3
  408ca6:	4284      	cmp	r4, r0
  408ca8:	f802 1c01 	strb.w	r1, [r2, #-1]
  408cac:	f240 8165 	bls.w	408f7a <_svfprintf_r+0x141e>
  408cb0:	f10d 0086 	add.w	r0, sp, #134	; 0x86
  408cb4:	4613      	mov	r3, r2
  408cb6:	e001      	b.n	408cbc <_svfprintf_r+0x1160>
  408cb8:	f813 1b01 	ldrb.w	r1, [r3], #1
  408cbc:	f800 1b01 	strb.w	r1, [r0], #1
  408cc0:	42a3      	cmp	r3, r4
  408cc2:	d1f9      	bne.n	408cb8 <_svfprintf_r+0x115c>
  408cc4:	3301      	adds	r3, #1
  408cc6:	1a9b      	subs	r3, r3, r2
  408cc8:	f10d 0286 	add.w	r2, sp, #134	; 0x86
  408ccc:	4413      	add	r3, r2
  408cce:	aa21      	add	r2, sp, #132	; 0x84
  408cd0:	1a9b      	subs	r3, r3, r2
  408cd2:	9a13      	ldr	r2, [sp, #76]	; 0x4c
  408cd4:	931b      	str	r3, [sp, #108]	; 0x6c
  408cd6:	2a01      	cmp	r2, #1
  408cd8:	4413      	add	r3, r2
  408cda:	930e      	str	r3, [sp, #56]	; 0x38
  408cdc:	f340 8119 	ble.w	408f12 <_svfprintf_r+0x13b6>
  408ce0:	9b0e      	ldr	r3, [sp, #56]	; 0x38
  408ce2:	9a19      	ldr	r2, [sp, #100]	; 0x64
  408ce4:	4413      	add	r3, r2
  408ce6:	930e      	str	r3, [sp, #56]	; 0x38
  408ce8:	ea23 73e3 	bic.w	r3, r3, r3, asr #31
  408cec:	9308      	str	r3, [sp, #32]
  408cee:	2300      	movs	r3, #0
  408cf0:	9312      	str	r3, [sp, #72]	; 0x48
  408cf2:	e6cf      	b.n	408a94 <_svfprintf_r+0xf38>
  408cf4:	aa25      	add	r2, sp, #148	; 0x94
  408cf6:	990b      	ldr	r1, [sp, #44]	; 0x2c
  408cf8:	980c      	ldr	r0, [sp, #48]	; 0x30
  408cfa:	f003 fe27 	bl	40c94c <__ssprint_r>
  408cfe:	2800      	cmp	r0, #0
  408d00:	f47e affe 	bne.w	407d00 <_svfprintf_r+0x1a4>
  408d04:	9c27      	ldr	r4, [sp, #156]	; 0x9c
  408d06:	46c8      	mov	r8, r9
  408d08:	e4d7      	b.n	4086ba <_svfprintf_r+0xb5e>
  408d0a:	4623      	mov	r3, r4
  408d0c:	e6a2      	b.n	408a54 <_svfprintf_r+0xef8>
  408d0e:	aa25      	add	r2, sp, #148	; 0x94
  408d10:	990b      	ldr	r1, [sp, #44]	; 0x2c
  408d12:	980c      	ldr	r0, [sp, #48]	; 0x30
  408d14:	f003 fe1a 	bl	40c94c <__ssprint_r>
  408d18:	2800      	cmp	r0, #0
  408d1a:	f47e aff1 	bne.w	407d00 <_svfprintf_r+0x1a4>
  408d1e:	9a1f      	ldr	r2, [sp, #124]	; 0x7c
  408d20:	9c27      	ldr	r4, [sp, #156]	; 0x9c
  408d22:	46c8      	mov	r8, r9
  408d24:	e5ae      	b.n	408884 <_svfprintf_r+0xd28>
  408d26:	aa25      	add	r2, sp, #148	; 0x94
  408d28:	990b      	ldr	r1, [sp, #44]	; 0x2c
  408d2a:	980c      	ldr	r0, [sp, #48]	; 0x30
  408d2c:	f003 fe0e 	bl	40c94c <__ssprint_r>
  408d30:	2800      	cmp	r0, #0
  408d32:	f47e afe5 	bne.w	407d00 <_svfprintf_r+0x1a4>
  408d36:	9a1f      	ldr	r2, [sp, #124]	; 0x7c
  408d38:	9b13      	ldr	r3, [sp, #76]	; 0x4c
  408d3a:	9c27      	ldr	r4, [sp, #156]	; 0x9c
  408d3c:	1a9a      	subs	r2, r3, r2
  408d3e:	46c8      	mov	r8, r9
  408d40:	e5b8      	b.n	4088b4 <_svfprintf_r+0xd58>
  408d42:	9b0a      	ldr	r3, [sp, #40]	; 0x28
  408d44:	9612      	str	r6, [sp, #72]	; 0x48
  408d46:	2b06      	cmp	r3, #6
  408d48:	bf28      	it	cs
  408d4a:	2306      	movcs	r3, #6
  408d4c:	960a      	str	r6, [sp, #40]	; 0x28
  408d4e:	4637      	mov	r7, r6
  408d50:	9308      	str	r3, [sp, #32]
  408d52:	950f      	str	r5, [sp, #60]	; 0x3c
  408d54:	f8cd b01c 	str.w	fp, [sp, #28]
  408d58:	930e      	str	r3, [sp, #56]	; 0x38
  408d5a:	4e74      	ldr	r6, [pc, #464]	; (408f2c <_svfprintf_r+0x13d0>)
  408d5c:	f7ff b816 	b.w	407d8c <_svfprintf_r+0x230>
  408d60:	a823      	add	r0, sp, #140	; 0x8c
  408d62:	a920      	add	r1, sp, #128	; 0x80
  408d64:	9d0a      	ldr	r5, [sp, #40]	; 0x28
  408d66:	9004      	str	r0, [sp, #16]
  408d68:	9103      	str	r1, [sp, #12]
  408d6a:	a81f      	add	r0, sp, #124	; 0x7c
  408d6c:	2103      	movs	r1, #3
  408d6e:	9002      	str	r0, [sp, #8]
  408d70:	9a08      	ldr	r2, [sp, #32]
  408d72:	9501      	str	r5, [sp, #4]
  408d74:	463b      	mov	r3, r7
  408d76:	9100      	str	r1, [sp, #0]
  408d78:	980c      	ldr	r0, [sp, #48]	; 0x30
  408d7a:	f001 f8f1 	bl	409f60 <_dtoa_r>
  408d7e:	4606      	mov	r6, r0
  408d80:	1944      	adds	r4, r0, r5
  408d82:	e72b      	b.n	408bdc <_svfprintf_r+0x1080>
  408d84:	2306      	movs	r3, #6
  408d86:	930a      	str	r3, [sp, #40]	; 0x28
  408d88:	e61d      	b.n	4089c6 <_svfprintf_r+0xe6a>
  408d8a:	272d      	movs	r7, #45	; 0x2d
  408d8c:	f88d 7077 	strb.w	r7, [sp, #119]	; 0x77
  408d90:	f7ff bacd 	b.w	40832e <_svfprintf_r+0x7d2>
  408d94:	9a19      	ldr	r2, [sp, #100]	; 0x64
  408d96:	9b13      	ldr	r3, [sp, #76]	; 0x4c
  408d98:	4413      	add	r3, r2
  408d9a:	9a12      	ldr	r2, [sp, #72]	; 0x48
  408d9c:	930e      	str	r3, [sp, #56]	; 0x38
  408d9e:	2a00      	cmp	r2, #0
  408da0:	f340 80b0 	ble.w	408f04 <_svfprintf_r+0x13a8>
  408da4:	ea23 73e3 	bic.w	r3, r3, r3, asr #31
  408da8:	9308      	str	r3, [sp, #32]
  408daa:	2367      	movs	r3, #103	; 0x67
  408dac:	9311      	str	r3, [sp, #68]	; 0x44
  408dae:	e671      	b.n	408a94 <_svfprintf_r+0xf38>
  408db0:	2b00      	cmp	r3, #0
  408db2:	f340 80c3 	ble.w	408f3c <_svfprintf_r+0x13e0>
  408db6:	9a0a      	ldr	r2, [sp, #40]	; 0x28
  408db8:	2a00      	cmp	r2, #0
  408dba:	f040 8099 	bne.w	408ef0 <_svfprintf_r+0x1394>
  408dbe:	f01b 0f01 	tst.w	fp, #1
  408dc2:	f040 8095 	bne.w	408ef0 <_svfprintf_r+0x1394>
  408dc6:	9308      	str	r3, [sp, #32]
  408dc8:	930e      	str	r3, [sp, #56]	; 0x38
  408dca:	e663      	b.n	408a94 <_svfprintf_r+0xf38>
  408dcc:	9b0a      	ldr	r3, [sp, #40]	; 0x28
  408dce:	9308      	str	r3, [sp, #32]
  408dd0:	930e      	str	r3, [sp, #56]	; 0x38
  408dd2:	900a      	str	r0, [sp, #40]	; 0x28
  408dd4:	950f      	str	r5, [sp, #60]	; 0x3c
  408dd6:	f8cd b01c 	str.w	fp, [sp, #28]
  408dda:	9012      	str	r0, [sp, #72]	; 0x48
  408ddc:	f89d 7077 	ldrb.w	r7, [sp, #119]	; 0x77
  408de0:	f7fe bfd4 	b.w	407d8c <_svfprintf_r+0x230>
  408de4:	9b11      	ldr	r3, [sp, #68]	; 0x44
  408de6:	2b47      	cmp	r3, #71	; 0x47
  408de8:	f47f ae20 	bne.w	408a2c <_svfprintf_r+0xed0>
  408dec:	f01b 0f01 	tst.w	fp, #1
  408df0:	f47f aeee 	bne.w	408bd0 <_svfprintf_r+0x1074>
  408df4:	9b23      	ldr	r3, [sp, #140]	; 0x8c
  408df6:	1b9b      	subs	r3, r3, r6
  408df8:	9313      	str	r3, [sp, #76]	; 0x4c
  408dfa:	9b0e      	ldr	r3, [sp, #56]	; 0x38
  408dfc:	2b47      	cmp	r3, #71	; 0x47
  408dfe:	f43f af18 	beq.w	408c32 <_svfprintf_r+0x10d6>
  408e02:	9b1f      	ldr	r3, [sp, #124]	; 0x7c
  408e04:	9312      	str	r3, [sp, #72]	; 0x48
  408e06:	e721      	b.n	408c4c <_svfprintf_r+0x10f0>
  408e08:	424f      	negs	r7, r1
  408e0a:	3110      	adds	r1, #16
  408e0c:	4d48      	ldr	r5, [pc, #288]	; (408f30 <_svfprintf_r+0x13d4>)
  408e0e:	da2f      	bge.n	408e70 <_svfprintf_r+0x1314>
  408e10:	2410      	movs	r4, #16
  408e12:	f8dd b030 	ldr.w	fp, [sp, #48]	; 0x30
  408e16:	e004      	b.n	408e22 <_svfprintf_r+0x12c6>
  408e18:	f108 0808 	add.w	r8, r8, #8
  408e1c:	3f10      	subs	r7, #16
  408e1e:	2f10      	cmp	r7, #16
  408e20:	dd26      	ble.n	408e70 <_svfprintf_r+0x1314>
  408e22:	3301      	adds	r3, #1
  408e24:	3210      	adds	r2, #16
  408e26:	2b07      	cmp	r3, #7
  408e28:	9227      	str	r2, [sp, #156]	; 0x9c
  408e2a:	9326      	str	r3, [sp, #152]	; 0x98
  408e2c:	f8c8 5000 	str.w	r5, [r8]
  408e30:	f8c8 4004 	str.w	r4, [r8, #4]
  408e34:	ddf0      	ble.n	408e18 <_svfprintf_r+0x12bc>
  408e36:	aa25      	add	r2, sp, #148	; 0x94
  408e38:	990b      	ldr	r1, [sp, #44]	; 0x2c
  408e3a:	4658      	mov	r0, fp
  408e3c:	f003 fd86 	bl	40c94c <__ssprint_r>
  408e40:	2800      	cmp	r0, #0
  408e42:	f47e af5d 	bne.w	407d00 <_svfprintf_r+0x1a4>
  408e46:	9a27      	ldr	r2, [sp, #156]	; 0x9c
  408e48:	9b26      	ldr	r3, [sp, #152]	; 0x98
  408e4a:	46c8      	mov	r8, r9
  408e4c:	e7e6      	b.n	408e1c <_svfprintf_r+0x12c0>
  408e4e:	aa25      	add	r2, sp, #148	; 0x94
  408e50:	990b      	ldr	r1, [sp, #44]	; 0x2c
  408e52:	980c      	ldr	r0, [sp, #48]	; 0x30
  408e54:	f003 fd7a 	bl	40c94c <__ssprint_r>
  408e58:	2800      	cmp	r0, #0
  408e5a:	f47e af51 	bne.w	407d00 <_svfprintf_r+0x1a4>
  408e5e:	991f      	ldr	r1, [sp, #124]	; 0x7c
  408e60:	9a27      	ldr	r2, [sp, #156]	; 0x9c
  408e62:	9b26      	ldr	r3, [sp, #152]	; 0x98
  408e64:	46c8      	mov	r8, r9
  408e66:	e667      	b.n	408b38 <_svfprintf_r+0xfdc>
  408e68:	2000      	movs	r0, #0
  408e6a:	900a      	str	r0, [sp, #40]	; 0x28
  408e6c:	f7fe bed0 	b.w	407c10 <_svfprintf_r+0xb4>
  408e70:	3301      	adds	r3, #1
  408e72:	443a      	add	r2, r7
  408e74:	2b07      	cmp	r3, #7
  408e76:	e888 00a0 	stmia.w	r8, {r5, r7}
  408e7a:	9227      	str	r2, [sp, #156]	; 0x9c
  408e7c:	9326      	str	r3, [sp, #152]	; 0x98
  408e7e:	f108 0808 	add.w	r8, r8, #8
  408e82:	f77f ae5c 	ble.w	408b3e <_svfprintf_r+0xfe2>
  408e86:	aa25      	add	r2, sp, #148	; 0x94
  408e88:	990b      	ldr	r1, [sp, #44]	; 0x2c
  408e8a:	980c      	ldr	r0, [sp, #48]	; 0x30
  408e8c:	f003 fd5e 	bl	40c94c <__ssprint_r>
  408e90:	2800      	cmp	r0, #0
  408e92:	f47e af35 	bne.w	407d00 <_svfprintf_r+0x1a4>
  408e96:	9a27      	ldr	r2, [sp, #156]	; 0x9c
  408e98:	9b26      	ldr	r3, [sp, #152]	; 0x98
  408e9a:	46c8      	mov	r8, r9
  408e9c:	e64f      	b.n	408b3e <_svfprintf_r+0xfe2>
  408e9e:	3330      	adds	r3, #48	; 0x30
  408ea0:	2230      	movs	r2, #48	; 0x30
  408ea2:	f88d 3087 	strb.w	r3, [sp, #135]	; 0x87
  408ea6:	f88d 2086 	strb.w	r2, [sp, #134]	; 0x86
  408eaa:	ab22      	add	r3, sp, #136	; 0x88
  408eac:	e70f      	b.n	408cce <_svfprintf_r+0x1172>
  408eae:	9b12      	ldr	r3, [sp, #72]	; 0x48
  408eb0:	9a19      	ldr	r2, [sp, #100]	; 0x64
  408eb2:	4413      	add	r3, r2
  408eb4:	930e      	str	r3, [sp, #56]	; 0x38
  408eb6:	e775      	b.n	408da4 <_svfprintf_r+0x1248>
  408eb8:	9b23      	ldr	r3, [sp, #140]	; 0x8c
  408eba:	e5cb      	b.n	408a54 <_svfprintf_r+0xef8>
  408ebc:	9b14      	ldr	r3, [sp, #80]	; 0x50
  408ebe:	4e1d      	ldr	r6, [pc, #116]	; (408f34 <_svfprintf_r+0x13d8>)
  408ec0:	2b00      	cmp	r3, #0
  408ec2:	bfb6      	itet	lt
  408ec4:	272d      	movlt	r7, #45	; 0x2d
  408ec6:	f89d 7077 	ldrbge.w	r7, [sp, #119]	; 0x77
  408eca:	f88d 7077 	strblt.w	r7, [sp, #119]	; 0x77
  408ece:	4b1a      	ldr	r3, [pc, #104]	; (408f38 <_svfprintf_r+0x13dc>)
  408ed0:	f7ff ba2f 	b.w	408332 <_svfprintf_r+0x7d6>
  408ed4:	9a16      	ldr	r2, [sp, #88]	; 0x58
  408ed6:	9808      	ldr	r0, [sp, #32]
  408ed8:	9b17      	ldr	r3, [sp, #92]	; 0x5c
  408eda:	4639      	mov	r1, r7
  408edc:	f004 f808 	bl	40cef0 <__aeabi_dcmpeq>
  408ee0:	2800      	cmp	r0, #0
  408ee2:	f47f ae7f 	bne.w	408be4 <_svfprintf_r+0x1088>
  408ee6:	f1c5 0501 	rsb	r5, r5, #1
  408eea:	951f      	str	r5, [sp, #124]	; 0x7c
  408eec:	442c      	add	r4, r5
  408eee:	e59e      	b.n	408a2e <_svfprintf_r+0xed2>
  408ef0:	9b12      	ldr	r3, [sp, #72]	; 0x48
  408ef2:	9a19      	ldr	r2, [sp, #100]	; 0x64
  408ef4:	4413      	add	r3, r2
  408ef6:	9a0a      	ldr	r2, [sp, #40]	; 0x28
  408ef8:	441a      	add	r2, r3
  408efa:	ea22 73e2 	bic.w	r3, r2, r2, asr #31
  408efe:	920e      	str	r2, [sp, #56]	; 0x38
  408f00:	9308      	str	r3, [sp, #32]
  408f02:	e5c7      	b.n	408a94 <_svfprintf_r+0xf38>
  408f04:	9b12      	ldr	r3, [sp, #72]	; 0x48
  408f06:	9a0e      	ldr	r2, [sp, #56]	; 0x38
  408f08:	f1c3 0301 	rsb	r3, r3, #1
  408f0c:	441a      	add	r2, r3
  408f0e:	4613      	mov	r3, r2
  408f10:	e7d0      	b.n	408eb4 <_svfprintf_r+0x1358>
  408f12:	f01b 0301 	ands.w	r3, fp, #1
  408f16:	9312      	str	r3, [sp, #72]	; 0x48
  408f18:	f47f aee2 	bne.w	408ce0 <_svfprintf_r+0x1184>
  408f1c:	9b0e      	ldr	r3, [sp, #56]	; 0x38
  408f1e:	ea23 73e3 	bic.w	r3, r3, r3, asr #31
  408f22:	9308      	str	r3, [sp, #32]
  408f24:	e5b6      	b.n	408a94 <_svfprintf_r+0xf38>
  408f26:	bf00      	nop
  408f28:	66666667 	.word	0x66666667
  408f2c:	0040e2dc 	.word	0x0040e2dc
  408f30:	0040e2f8 	.word	0x0040e2f8
  408f34:	0040e2b0 	.word	0x0040e2b0
  408f38:	0040e2ac 	.word	0x0040e2ac
  408f3c:	9b0a      	ldr	r3, [sp, #40]	; 0x28
  408f3e:	b913      	cbnz	r3, 408f46 <_svfprintf_r+0x13ea>
  408f40:	f01b 0f01 	tst.w	fp, #1
  408f44:	d002      	beq.n	408f4c <_svfprintf_r+0x13f0>
  408f46:	9b19      	ldr	r3, [sp, #100]	; 0x64
  408f48:	3301      	adds	r3, #1
  408f4a:	e7d4      	b.n	408ef6 <_svfprintf_r+0x139a>
  408f4c:	2301      	movs	r3, #1
  408f4e:	e73a      	b.n	408dc6 <_svfprintf_r+0x126a>
  408f50:	9d0f      	ldr	r5, [sp, #60]	; 0x3c
  408f52:	f89a 3001 	ldrb.w	r3, [sl, #1]
  408f56:	6828      	ldr	r0, [r5, #0]
  408f58:	ea40 70e0 	orr.w	r0, r0, r0, asr #31
  408f5c:	900a      	str	r0, [sp, #40]	; 0x28
  408f5e:	4628      	mov	r0, r5
  408f60:	3004      	adds	r0, #4
  408f62:	46a2      	mov	sl, r4
  408f64:	900f      	str	r0, [sp, #60]	; 0x3c
  408f66:	f7fe be51 	b.w	407c0c <_svfprintf_r+0xb0>
  408f6a:	f88d 1077 	strb.w	r1, [sp, #119]	; 0x77
  408f6e:	f7ff b867 	b.w	408040 <_svfprintf_r+0x4e4>
  408f72:	f88d 1077 	strb.w	r1, [sp, #119]	; 0x77
  408f76:	f7ff ba15 	b.w	4083a4 <_svfprintf_r+0x848>
  408f7a:	f10d 0386 	add.w	r3, sp, #134	; 0x86
  408f7e:	e6a6      	b.n	408cce <_svfprintf_r+0x1172>
  408f80:	f88d 1077 	strb.w	r1, [sp, #119]	; 0x77
  408f84:	f7ff b8eb 	b.w	40815e <_svfprintf_r+0x602>
  408f88:	9a0c      	ldr	r2, [sp, #48]	; 0x30
  408f8a:	230c      	movs	r3, #12
  408f8c:	6013      	str	r3, [r2, #0]
  408f8e:	f04f 33ff 	mov.w	r3, #4294967295
  408f92:	9309      	str	r3, [sp, #36]	; 0x24
  408f94:	f7fe bebd 	b.w	407d12 <_svfprintf_r+0x1b6>
  408f98:	f88d 1077 	strb.w	r1, [sp, #119]	; 0x77
  408f9c:	f7ff b99a 	b.w	4082d4 <_svfprintf_r+0x778>
  408fa0:	f88d 1077 	strb.w	r1, [sp, #119]	; 0x77
  408fa4:	f7ff b976 	b.w	408294 <_svfprintf_r+0x738>
  408fa8:	f88d 1077 	strb.w	r1, [sp, #119]	; 0x77
  408fac:	f7ff b959 	b.w	408262 <_svfprintf_r+0x706>
  408fb0:	f88d 1077 	strb.w	r1, [sp, #119]	; 0x77
  408fb4:	f7ff b912 	b.w	4081dc <_svfprintf_r+0x680>

00408fb8 <__sprint_r.part.0>:
  408fb8:	e92d 4ff8 	stmdb	sp!, {r3, r4, r5, r6, r7, r8, r9, sl, fp, lr}
  408fbc:	6e4b      	ldr	r3, [r1, #100]	; 0x64
  408fbe:	049c      	lsls	r4, r3, #18
  408fc0:	4693      	mov	fp, r2
  408fc2:	d52f      	bpl.n	409024 <__sprint_r.part.0+0x6c>
  408fc4:	6893      	ldr	r3, [r2, #8]
  408fc6:	6812      	ldr	r2, [r2, #0]
  408fc8:	b353      	cbz	r3, 409020 <__sprint_r.part.0+0x68>
  408fca:	460e      	mov	r6, r1
  408fcc:	4607      	mov	r7, r0
  408fce:	f102 0908 	add.w	r9, r2, #8
  408fd2:	e919 0420 	ldmdb	r9, {r5, sl}
  408fd6:	ea5f 089a 	movs.w	r8, sl, lsr #2
  408fda:	d017      	beq.n	40900c <__sprint_r.part.0+0x54>
  408fdc:	3d04      	subs	r5, #4
  408fde:	2400      	movs	r4, #0
  408fe0:	e001      	b.n	408fe6 <__sprint_r.part.0+0x2e>
  408fe2:	45a0      	cmp	r8, r4
  408fe4:	d010      	beq.n	409008 <__sprint_r.part.0+0x50>
  408fe6:	4632      	mov	r2, r6
  408fe8:	f855 1f04 	ldr.w	r1, [r5, #4]!
  408fec:	4638      	mov	r0, r7
  408fee:	f002 f87b 	bl	40b0e8 <_fputwc_r>
  408ff2:	1c43      	adds	r3, r0, #1
  408ff4:	f104 0401 	add.w	r4, r4, #1
  408ff8:	d1f3      	bne.n	408fe2 <__sprint_r.part.0+0x2a>
  408ffa:	2300      	movs	r3, #0
  408ffc:	f8cb 3008 	str.w	r3, [fp, #8]
  409000:	f8cb 3004 	str.w	r3, [fp, #4]
  409004:	e8bd 8ff8 	ldmia.w	sp!, {r3, r4, r5, r6, r7, r8, r9, sl, fp, pc}
  409008:	f8db 3008 	ldr.w	r3, [fp, #8]
  40900c:	f02a 0a03 	bic.w	sl, sl, #3
  409010:	eba3 030a 	sub.w	r3, r3, sl
  409014:	f8cb 3008 	str.w	r3, [fp, #8]
  409018:	f109 0908 	add.w	r9, r9, #8
  40901c:	2b00      	cmp	r3, #0
  40901e:	d1d8      	bne.n	408fd2 <__sprint_r.part.0+0x1a>
  409020:	2000      	movs	r0, #0
  409022:	e7ea      	b.n	408ffa <__sprint_r.part.0+0x42>
  409024:	f002 f9ca 	bl	40b3bc <__sfvwrite_r>
  409028:	2300      	movs	r3, #0
  40902a:	f8cb 3008 	str.w	r3, [fp, #8]
  40902e:	f8cb 3004 	str.w	r3, [fp, #4]
  409032:	e8bd 8ff8 	ldmia.w	sp!, {r3, r4, r5, r6, r7, r8, r9, sl, fp, pc}
  409036:	bf00      	nop

00409038 <_vfiprintf_r>:
  409038:	e92d 4ff0 	stmdb	sp!, {r4, r5, r6, r7, r8, r9, sl, fp, lr}
  40903c:	b0ad      	sub	sp, #180	; 0xb4
  40903e:	461d      	mov	r5, r3
  409040:	468b      	mov	fp, r1
  409042:	4690      	mov	r8, r2
  409044:	9307      	str	r3, [sp, #28]
  409046:	9006      	str	r0, [sp, #24]
  409048:	b118      	cbz	r0, 409052 <_vfiprintf_r+0x1a>
  40904a:	6b83      	ldr	r3, [r0, #56]	; 0x38
  40904c:	2b00      	cmp	r3, #0
  40904e:	f000 80f3 	beq.w	409238 <_vfiprintf_r+0x200>
  409052:	f8db 3064 	ldr.w	r3, [fp, #100]	; 0x64
  409056:	f9bb 000c 	ldrsh.w	r0, [fp, #12]
  40905a:	07df      	lsls	r7, r3, #31
  40905c:	b281      	uxth	r1, r0
  40905e:	d402      	bmi.n	409066 <_vfiprintf_r+0x2e>
  409060:	058e      	lsls	r6, r1, #22
  409062:	f140 80fc 	bpl.w	40925e <_vfiprintf_r+0x226>
  409066:	048c      	lsls	r4, r1, #18
  409068:	d40a      	bmi.n	409080 <_vfiprintf_r+0x48>
  40906a:	f8db 3064 	ldr.w	r3, [fp, #100]	; 0x64
  40906e:	f440 5100 	orr.w	r1, r0, #8192	; 0x2000
  409072:	f423 5300 	bic.w	r3, r3, #8192	; 0x2000
  409076:	f8ab 100c 	strh.w	r1, [fp, #12]
  40907a:	f8cb 3064 	str.w	r3, [fp, #100]	; 0x64
  40907e:	b289      	uxth	r1, r1
  409080:	0708      	lsls	r0, r1, #28
  409082:	f140 80b3 	bpl.w	4091ec <_vfiprintf_r+0x1b4>
  409086:	f8db 3010 	ldr.w	r3, [fp, #16]
  40908a:	2b00      	cmp	r3, #0
  40908c:	f000 80ae 	beq.w	4091ec <_vfiprintf_r+0x1b4>
  409090:	f001 031a 	and.w	r3, r1, #26
  409094:	2b0a      	cmp	r3, #10
  409096:	f000 80b5 	beq.w	409204 <_vfiprintf_r+0x1cc>
  40909a:	2300      	movs	r3, #0
  40909c:	f10d 0970 	add.w	r9, sp, #112	; 0x70
  4090a0:	930b      	str	r3, [sp, #44]	; 0x2c
  4090a2:	9311      	str	r3, [sp, #68]	; 0x44
  4090a4:	9310      	str	r3, [sp, #64]	; 0x40
  4090a6:	9303      	str	r3, [sp, #12]
  4090a8:	f8cd 903c 	str.w	r9, [sp, #60]	; 0x3c
  4090ac:	46ca      	mov	sl, r9
  4090ae:	f8cd b010 	str.w	fp, [sp, #16]
  4090b2:	f898 3000 	ldrb.w	r3, [r8]
  4090b6:	4644      	mov	r4, r8
  4090b8:	b1fb      	cbz	r3, 4090fa <_vfiprintf_r+0xc2>
  4090ba:	2b25      	cmp	r3, #37	; 0x25
  4090bc:	d102      	bne.n	4090c4 <_vfiprintf_r+0x8c>
  4090be:	e01c      	b.n	4090fa <_vfiprintf_r+0xc2>
  4090c0:	2b25      	cmp	r3, #37	; 0x25
  4090c2:	d003      	beq.n	4090cc <_vfiprintf_r+0x94>
  4090c4:	f814 3f01 	ldrb.w	r3, [r4, #1]!
  4090c8:	2b00      	cmp	r3, #0
  4090ca:	d1f9      	bne.n	4090c0 <_vfiprintf_r+0x88>
  4090cc:	eba4 0508 	sub.w	r5, r4, r8
  4090d0:	b19d      	cbz	r5, 4090fa <_vfiprintf_r+0xc2>
  4090d2:	9b10      	ldr	r3, [sp, #64]	; 0x40
  4090d4:	9a11      	ldr	r2, [sp, #68]	; 0x44
  4090d6:	f8ca 8000 	str.w	r8, [sl]
  4090da:	3301      	adds	r3, #1
  4090dc:	442a      	add	r2, r5
  4090de:	2b07      	cmp	r3, #7
  4090e0:	f8ca 5004 	str.w	r5, [sl, #4]
  4090e4:	9211      	str	r2, [sp, #68]	; 0x44
  4090e6:	9310      	str	r3, [sp, #64]	; 0x40
  4090e8:	dd7a      	ble.n	4091e0 <_vfiprintf_r+0x1a8>
  4090ea:	2a00      	cmp	r2, #0
  4090ec:	f040 84b0 	bne.w	409a50 <_vfiprintf_r+0xa18>
  4090f0:	9b03      	ldr	r3, [sp, #12]
  4090f2:	9210      	str	r2, [sp, #64]	; 0x40
  4090f4:	442b      	add	r3, r5
  4090f6:	46ca      	mov	sl, r9
  4090f8:	9303      	str	r3, [sp, #12]
  4090fa:	7823      	ldrb	r3, [r4, #0]
  4090fc:	2b00      	cmp	r3, #0
  4090fe:	f000 83e0 	beq.w	4098c2 <_vfiprintf_r+0x88a>
  409102:	2000      	movs	r0, #0
  409104:	f04f 0300 	mov.w	r3, #0
  409108:	f88d 3037 	strb.w	r3, [sp, #55]	; 0x37
  40910c:	f104 0801 	add.w	r8, r4, #1
  409110:	7862      	ldrb	r2, [r4, #1]
  409112:	4605      	mov	r5, r0
  409114:	4606      	mov	r6, r0
  409116:	4603      	mov	r3, r0
  409118:	f04f 34ff 	mov.w	r4, #4294967295
  40911c:	f108 0801 	add.w	r8, r8, #1
  409120:	f1a2 0120 	sub.w	r1, r2, #32
  409124:	2958      	cmp	r1, #88	; 0x58
  409126:	f200 82de 	bhi.w	4096e6 <_vfiprintf_r+0x6ae>
  40912a:	e8df f011 	tbh	[pc, r1, lsl #1]
  40912e:	0221      	.short	0x0221
  409130:	02dc02dc 	.word	0x02dc02dc
  409134:	02dc0229 	.word	0x02dc0229
  409138:	02dc02dc 	.word	0x02dc02dc
  40913c:	02dc02dc 	.word	0x02dc02dc
  409140:	028902dc 	.word	0x028902dc
  409144:	02dc0295 	.word	0x02dc0295
  409148:	02bd00a2 	.word	0x02bd00a2
  40914c:	019f02dc 	.word	0x019f02dc
  409150:	01a401a4 	.word	0x01a401a4
  409154:	01a401a4 	.word	0x01a401a4
  409158:	01a401a4 	.word	0x01a401a4
  40915c:	01a401a4 	.word	0x01a401a4
  409160:	02dc01a4 	.word	0x02dc01a4
  409164:	02dc02dc 	.word	0x02dc02dc
  409168:	02dc02dc 	.word	0x02dc02dc
  40916c:	02dc02dc 	.word	0x02dc02dc
  409170:	02dc02dc 	.word	0x02dc02dc
  409174:	01b202dc 	.word	0x01b202dc
  409178:	02dc02dc 	.word	0x02dc02dc
  40917c:	02dc02dc 	.word	0x02dc02dc
  409180:	02dc02dc 	.word	0x02dc02dc
  409184:	02dc02dc 	.word	0x02dc02dc
  409188:	02dc02dc 	.word	0x02dc02dc
  40918c:	02dc0197 	.word	0x02dc0197
  409190:	02dc02dc 	.word	0x02dc02dc
  409194:	02dc02dc 	.word	0x02dc02dc
  409198:	02dc019b 	.word	0x02dc019b
  40919c:	025302dc 	.word	0x025302dc
  4091a0:	02dc02dc 	.word	0x02dc02dc
  4091a4:	02dc02dc 	.word	0x02dc02dc
  4091a8:	02dc02dc 	.word	0x02dc02dc
  4091ac:	02dc02dc 	.word	0x02dc02dc
  4091b0:	02dc02dc 	.word	0x02dc02dc
  4091b4:	021b025a 	.word	0x021b025a
  4091b8:	02dc02dc 	.word	0x02dc02dc
  4091bc:	026e02dc 	.word	0x026e02dc
  4091c0:	02dc021b 	.word	0x02dc021b
  4091c4:	027302dc 	.word	0x027302dc
  4091c8:	01f502dc 	.word	0x01f502dc
  4091cc:	02090182 	.word	0x02090182
  4091d0:	02dc02d7 	.word	0x02dc02d7
  4091d4:	02dc029a 	.word	0x02dc029a
  4091d8:	02dc00a7 	.word	0x02dc00a7
  4091dc:	022e02dc 	.word	0x022e02dc
  4091e0:	f10a 0a08 	add.w	sl, sl, #8
  4091e4:	9b03      	ldr	r3, [sp, #12]
  4091e6:	442b      	add	r3, r5
  4091e8:	9303      	str	r3, [sp, #12]
  4091ea:	e786      	b.n	4090fa <_vfiprintf_r+0xc2>
  4091ec:	4659      	mov	r1, fp
  4091ee:	9806      	ldr	r0, [sp, #24]
  4091f0:	f000 fdac 	bl	409d4c <__swsetup_r>
  4091f4:	bb18      	cbnz	r0, 40923e <_vfiprintf_r+0x206>
  4091f6:	f8bb 100c 	ldrh.w	r1, [fp, #12]
  4091fa:	f001 031a 	and.w	r3, r1, #26
  4091fe:	2b0a      	cmp	r3, #10
  409200:	f47f af4b 	bne.w	40909a <_vfiprintf_r+0x62>
  409204:	f9bb 300e 	ldrsh.w	r3, [fp, #14]
  409208:	2b00      	cmp	r3, #0
  40920a:	f6ff af46 	blt.w	40909a <_vfiprintf_r+0x62>
  40920e:	f8db 3064 	ldr.w	r3, [fp, #100]	; 0x64
  409212:	07db      	lsls	r3, r3, #31
  409214:	d405      	bmi.n	409222 <_vfiprintf_r+0x1ea>
  409216:	058f      	lsls	r7, r1, #22
  409218:	d403      	bmi.n	409222 <_vfiprintf_r+0x1ea>
  40921a:	f8db 0058 	ldr.w	r0, [fp, #88]	; 0x58
  40921e:	f002 fa91 	bl	40b744 <__retarget_lock_release_recursive>
  409222:	462b      	mov	r3, r5
  409224:	4642      	mov	r2, r8
  409226:	4659      	mov	r1, fp
  409228:	9806      	ldr	r0, [sp, #24]
  40922a:	f000 fd4d 	bl	409cc8 <__sbprintf>
  40922e:	9003      	str	r0, [sp, #12]
  409230:	9803      	ldr	r0, [sp, #12]
  409232:	b02d      	add	sp, #180	; 0xb4
  409234:	e8bd 8ff0 	ldmia.w	sp!, {r4, r5, r6, r7, r8, r9, sl, fp, pc}
  409238:	f001 feb4 	bl	40afa4 <__sinit>
  40923c:	e709      	b.n	409052 <_vfiprintf_r+0x1a>
  40923e:	f8db 3064 	ldr.w	r3, [fp, #100]	; 0x64
  409242:	07d9      	lsls	r1, r3, #31
  409244:	d404      	bmi.n	409250 <_vfiprintf_r+0x218>
  409246:	f8bb 300c 	ldrh.w	r3, [fp, #12]
  40924a:	059a      	lsls	r2, r3, #22
  40924c:	f140 84aa 	bpl.w	409ba4 <_vfiprintf_r+0xb6c>
  409250:	f04f 33ff 	mov.w	r3, #4294967295
  409254:	9303      	str	r3, [sp, #12]
  409256:	9803      	ldr	r0, [sp, #12]
  409258:	b02d      	add	sp, #180	; 0xb4
  40925a:	e8bd 8ff0 	ldmia.w	sp!, {r4, r5, r6, r7, r8, r9, sl, fp, pc}
  40925e:	f8db 0058 	ldr.w	r0, [fp, #88]	; 0x58
  409262:	f002 fa6d 	bl	40b740 <__retarget_lock_acquire_recursive>
  409266:	f9bb 000c 	ldrsh.w	r0, [fp, #12]
  40926a:	b281      	uxth	r1, r0
  40926c:	e6fb      	b.n	409066 <_vfiprintf_r+0x2e>
  40926e:	4276      	negs	r6, r6
  409270:	9207      	str	r2, [sp, #28]
  409272:	f043 0304 	orr.w	r3, r3, #4
  409276:	f898 2000 	ldrb.w	r2, [r8]
  40927a:	e74f      	b.n	40911c <_vfiprintf_r+0xe4>
  40927c:	9608      	str	r6, [sp, #32]
  40927e:	069e      	lsls	r6, r3, #26
  409280:	f100 8450 	bmi.w	409b24 <_vfiprintf_r+0xaec>
  409284:	9907      	ldr	r1, [sp, #28]
  409286:	06dd      	lsls	r5, r3, #27
  409288:	460a      	mov	r2, r1
  40928a:	f100 83ef 	bmi.w	409a6c <_vfiprintf_r+0xa34>
  40928e:	0658      	lsls	r0, r3, #25
  409290:	f140 83ec 	bpl.w	409a6c <_vfiprintf_r+0xa34>
  409294:	880e      	ldrh	r6, [r1, #0]
  409296:	3104      	adds	r1, #4
  409298:	2700      	movs	r7, #0
  40929a:	2201      	movs	r2, #1
  40929c:	9107      	str	r1, [sp, #28]
  40929e:	f04f 0100 	mov.w	r1, #0
  4092a2:	f88d 1037 	strb.w	r1, [sp, #55]	; 0x37
  4092a6:	2500      	movs	r5, #0
  4092a8:	1c61      	adds	r1, r4, #1
  4092aa:	f000 8116 	beq.w	4094da <_vfiprintf_r+0x4a2>
  4092ae:	f023 0180 	bic.w	r1, r3, #128	; 0x80
  4092b2:	9102      	str	r1, [sp, #8]
  4092b4:	ea56 0107 	orrs.w	r1, r6, r7
  4092b8:	f040 8114 	bne.w	4094e4 <_vfiprintf_r+0x4ac>
  4092bc:	2c00      	cmp	r4, #0
  4092be:	f040 835c 	bne.w	40997a <_vfiprintf_r+0x942>
  4092c2:	2a00      	cmp	r2, #0
  4092c4:	f040 83b7 	bne.w	409a36 <_vfiprintf_r+0x9fe>
  4092c8:	f013 0301 	ands.w	r3, r3, #1
  4092cc:	9305      	str	r3, [sp, #20]
  4092ce:	f000 8457 	beq.w	409b80 <_vfiprintf_r+0xb48>
  4092d2:	f10d 0bb0 	add.w	fp, sp, #176	; 0xb0
  4092d6:	2330      	movs	r3, #48	; 0x30
  4092d8:	f80b 3d41 	strb.w	r3, [fp, #-65]!
  4092dc:	9b05      	ldr	r3, [sp, #20]
  4092de:	42a3      	cmp	r3, r4
  4092e0:	bfb8      	it	lt
  4092e2:	4623      	movlt	r3, r4
  4092e4:	9301      	str	r3, [sp, #4]
  4092e6:	b10d      	cbz	r5, 4092ec <_vfiprintf_r+0x2b4>
  4092e8:	3301      	adds	r3, #1
  4092ea:	9301      	str	r3, [sp, #4]
  4092ec:	9b02      	ldr	r3, [sp, #8]
  4092ee:	f013 0302 	ands.w	r3, r3, #2
  4092f2:	9309      	str	r3, [sp, #36]	; 0x24
  4092f4:	d002      	beq.n	4092fc <_vfiprintf_r+0x2c4>
  4092f6:	9b01      	ldr	r3, [sp, #4]
  4092f8:	3302      	adds	r3, #2
  4092fa:	9301      	str	r3, [sp, #4]
  4092fc:	9b02      	ldr	r3, [sp, #8]
  4092fe:	f013 0384 	ands.w	r3, r3, #132	; 0x84
  409302:	930a      	str	r3, [sp, #40]	; 0x28
  409304:	f040 8217 	bne.w	409736 <_vfiprintf_r+0x6fe>
  409308:	9b08      	ldr	r3, [sp, #32]
  40930a:	9a01      	ldr	r2, [sp, #4]
  40930c:	1a9d      	subs	r5, r3, r2
  40930e:	2d00      	cmp	r5, #0
  409310:	f340 8211 	ble.w	409736 <_vfiprintf_r+0x6fe>
  409314:	2d10      	cmp	r5, #16
  409316:	f340 8490 	ble.w	409c3a <_vfiprintf_r+0xc02>
  40931a:	9b10      	ldr	r3, [sp, #64]	; 0x40
  40931c:	9a11      	ldr	r2, [sp, #68]	; 0x44
  40931e:	4ec4      	ldr	r6, [pc, #784]	; (409630 <_vfiprintf_r+0x5f8>)
  409320:	46d6      	mov	lr, sl
  409322:	2710      	movs	r7, #16
  409324:	46a2      	mov	sl, r4
  409326:	4619      	mov	r1, r3
  409328:	9c06      	ldr	r4, [sp, #24]
  40932a:	e007      	b.n	40933c <_vfiprintf_r+0x304>
  40932c:	f101 0c02 	add.w	ip, r1, #2
  409330:	f10e 0e08 	add.w	lr, lr, #8
  409334:	4601      	mov	r1, r0
  409336:	3d10      	subs	r5, #16
  409338:	2d10      	cmp	r5, #16
  40933a:	dd11      	ble.n	409360 <_vfiprintf_r+0x328>
  40933c:	1c48      	adds	r0, r1, #1
  40933e:	3210      	adds	r2, #16
  409340:	2807      	cmp	r0, #7
  409342:	9211      	str	r2, [sp, #68]	; 0x44
  409344:	e88e 00c0 	stmia.w	lr, {r6, r7}
  409348:	9010      	str	r0, [sp, #64]	; 0x40
  40934a:	ddef      	ble.n	40932c <_vfiprintf_r+0x2f4>
  40934c:	2a00      	cmp	r2, #0
  40934e:	f040 81e4 	bne.w	40971a <_vfiprintf_r+0x6e2>
  409352:	3d10      	subs	r5, #16
  409354:	2d10      	cmp	r5, #16
  409356:	4611      	mov	r1, r2
  409358:	f04f 0c01 	mov.w	ip, #1
  40935c:	46ce      	mov	lr, r9
  40935e:	dced      	bgt.n	40933c <_vfiprintf_r+0x304>
  409360:	4654      	mov	r4, sl
  409362:	4661      	mov	r1, ip
  409364:	46f2      	mov	sl, lr
  409366:	442a      	add	r2, r5
  409368:	2907      	cmp	r1, #7
  40936a:	9211      	str	r2, [sp, #68]	; 0x44
  40936c:	f8ca 6000 	str.w	r6, [sl]
  409370:	f8ca 5004 	str.w	r5, [sl, #4]
  409374:	9110      	str	r1, [sp, #64]	; 0x40
  409376:	f300 82ec 	bgt.w	409952 <_vfiprintf_r+0x91a>
  40937a:	f89d 5037 	ldrb.w	r5, [sp, #55]	; 0x37
  40937e:	f10a 0a08 	add.w	sl, sl, #8
  409382:	1c48      	adds	r0, r1, #1
  409384:	2d00      	cmp	r5, #0
  409386:	f040 81de 	bne.w	409746 <_vfiprintf_r+0x70e>
  40938a:	9b09      	ldr	r3, [sp, #36]	; 0x24
  40938c:	2b00      	cmp	r3, #0
  40938e:	f000 81f8 	beq.w	409782 <_vfiprintf_r+0x74a>
  409392:	3202      	adds	r2, #2
  409394:	a90e      	add	r1, sp, #56	; 0x38
  409396:	2302      	movs	r3, #2
  409398:	2807      	cmp	r0, #7
  40939a:	9211      	str	r2, [sp, #68]	; 0x44
  40939c:	9010      	str	r0, [sp, #64]	; 0x40
  40939e:	e88a 000a 	stmia.w	sl, {r1, r3}
  4093a2:	f340 81ea 	ble.w	40977a <_vfiprintf_r+0x742>
  4093a6:	2a00      	cmp	r2, #0
  4093a8:	f040 838c 	bne.w	409ac4 <_vfiprintf_r+0xa8c>
  4093ac:	9b0a      	ldr	r3, [sp, #40]	; 0x28
  4093ae:	2b80      	cmp	r3, #128	; 0x80
  4093b0:	f04f 0001 	mov.w	r0, #1
  4093b4:	4611      	mov	r1, r2
  4093b6:	46ca      	mov	sl, r9
  4093b8:	f040 81e7 	bne.w	40978a <_vfiprintf_r+0x752>
  4093bc:	9b08      	ldr	r3, [sp, #32]
  4093be:	9d01      	ldr	r5, [sp, #4]
  4093c0:	1b5e      	subs	r6, r3, r5
  4093c2:	2e00      	cmp	r6, #0
  4093c4:	f340 81e1 	ble.w	40978a <_vfiprintf_r+0x752>
  4093c8:	2e10      	cmp	r6, #16
  4093ca:	4d9a      	ldr	r5, [pc, #616]	; (409634 <_vfiprintf_r+0x5fc>)
  4093cc:	f340 8450 	ble.w	409c70 <_vfiprintf_r+0xc38>
  4093d0:	46d4      	mov	ip, sl
  4093d2:	2710      	movs	r7, #16
  4093d4:	46a2      	mov	sl, r4
  4093d6:	9c06      	ldr	r4, [sp, #24]
  4093d8:	e007      	b.n	4093ea <_vfiprintf_r+0x3b2>
  4093da:	f101 0e02 	add.w	lr, r1, #2
  4093de:	f10c 0c08 	add.w	ip, ip, #8
  4093e2:	4601      	mov	r1, r0
  4093e4:	3e10      	subs	r6, #16
  4093e6:	2e10      	cmp	r6, #16
  4093e8:	dd11      	ble.n	40940e <_vfiprintf_r+0x3d6>
  4093ea:	1c48      	adds	r0, r1, #1
  4093ec:	3210      	adds	r2, #16
  4093ee:	2807      	cmp	r0, #7
  4093f0:	9211      	str	r2, [sp, #68]	; 0x44
  4093f2:	e88c 00a0 	stmia.w	ip, {r5, r7}
  4093f6:	9010      	str	r0, [sp, #64]	; 0x40
  4093f8:	ddef      	ble.n	4093da <_vfiprintf_r+0x3a2>
  4093fa:	2a00      	cmp	r2, #0
  4093fc:	f040 829d 	bne.w	40993a <_vfiprintf_r+0x902>
  409400:	3e10      	subs	r6, #16
  409402:	2e10      	cmp	r6, #16
  409404:	f04f 0e01 	mov.w	lr, #1
  409408:	4611      	mov	r1, r2
  40940a:	46cc      	mov	ip, r9
  40940c:	dced      	bgt.n	4093ea <_vfiprintf_r+0x3b2>
  40940e:	4654      	mov	r4, sl
  409410:	46e2      	mov	sl, ip
  409412:	4432      	add	r2, r6
  409414:	f1be 0f07 	cmp.w	lr, #7
  409418:	9211      	str	r2, [sp, #68]	; 0x44
  40941a:	e88a 0060 	stmia.w	sl, {r5, r6}
  40941e:	f8cd e040 	str.w	lr, [sp, #64]	; 0x40
  409422:	f300 8369 	bgt.w	409af8 <_vfiprintf_r+0xac0>
  409426:	f10a 0a08 	add.w	sl, sl, #8
  40942a:	f10e 0001 	add.w	r0, lr, #1
  40942e:	4671      	mov	r1, lr
  409430:	e1ab      	b.n	40978a <_vfiprintf_r+0x752>
  409432:	9608      	str	r6, [sp, #32]
  409434:	f013 0220 	ands.w	r2, r3, #32
  409438:	f040 838c 	bne.w	409b54 <_vfiprintf_r+0xb1c>
  40943c:	f013 0110 	ands.w	r1, r3, #16
  409440:	f040 831a 	bne.w	409a78 <_vfiprintf_r+0xa40>
  409444:	f013 0240 	ands.w	r2, r3, #64	; 0x40
  409448:	f000 8316 	beq.w	409a78 <_vfiprintf_r+0xa40>
  40944c:	9807      	ldr	r0, [sp, #28]
  40944e:	460a      	mov	r2, r1
  409450:	4601      	mov	r1, r0
  409452:	3104      	adds	r1, #4
  409454:	8806      	ldrh	r6, [r0, #0]
  409456:	9107      	str	r1, [sp, #28]
  409458:	2700      	movs	r7, #0
  40945a:	e720      	b.n	40929e <_vfiprintf_r+0x266>
  40945c:	9608      	str	r6, [sp, #32]
  40945e:	f043 0310 	orr.w	r3, r3, #16
  409462:	e7e7      	b.n	409434 <_vfiprintf_r+0x3fc>
  409464:	9608      	str	r6, [sp, #32]
  409466:	f043 0310 	orr.w	r3, r3, #16
  40946a:	e708      	b.n	40927e <_vfiprintf_r+0x246>
  40946c:	f043 0380 	orr.w	r3, r3, #128	; 0x80
  409470:	f898 2000 	ldrb.w	r2, [r8]
  409474:	e652      	b.n	40911c <_vfiprintf_r+0xe4>
  409476:	f1a2 0130 	sub.w	r1, r2, #48	; 0x30
  40947a:	2600      	movs	r6, #0
  40947c:	f818 2b01 	ldrb.w	r2, [r8], #1
  409480:	eb06 0686 	add.w	r6, r6, r6, lsl #2
  409484:	eb01 0646 	add.w	r6, r1, r6, lsl #1
  409488:	f1a2 0130 	sub.w	r1, r2, #48	; 0x30
  40948c:	2909      	cmp	r1, #9
  40948e:	d9f5      	bls.n	40947c <_vfiprintf_r+0x444>
  409490:	e646      	b.n	409120 <_vfiprintf_r+0xe8>
  409492:	9608      	str	r6, [sp, #32]
  409494:	2800      	cmp	r0, #0
  409496:	f040 8408 	bne.w	409caa <_vfiprintf_r+0xc72>
  40949a:	f043 0310 	orr.w	r3, r3, #16
  40949e:	069e      	lsls	r6, r3, #26
  4094a0:	f100 834c 	bmi.w	409b3c <_vfiprintf_r+0xb04>
  4094a4:	06dd      	lsls	r5, r3, #27
  4094a6:	f100 82f3 	bmi.w	409a90 <_vfiprintf_r+0xa58>
  4094aa:	0658      	lsls	r0, r3, #25
  4094ac:	f140 82f0 	bpl.w	409a90 <_vfiprintf_r+0xa58>
  4094b0:	9d07      	ldr	r5, [sp, #28]
  4094b2:	f9b5 6000 	ldrsh.w	r6, [r5]
  4094b6:	462a      	mov	r2, r5
  4094b8:	17f7      	asrs	r7, r6, #31
  4094ba:	3204      	adds	r2, #4
  4094bc:	4630      	mov	r0, r6
  4094be:	4639      	mov	r1, r7
  4094c0:	9207      	str	r2, [sp, #28]
  4094c2:	2800      	cmp	r0, #0
  4094c4:	f171 0200 	sbcs.w	r2, r1, #0
  4094c8:	f2c0 835d 	blt.w	409b86 <_vfiprintf_r+0xb4e>
  4094cc:	1c61      	adds	r1, r4, #1
  4094ce:	f89d 5037 	ldrb.w	r5, [sp, #55]	; 0x37
  4094d2:	f04f 0201 	mov.w	r2, #1
  4094d6:	f47f aeea 	bne.w	4092ae <_vfiprintf_r+0x276>
  4094da:	ea56 0107 	orrs.w	r1, r6, r7
  4094de:	f000 824d 	beq.w	40997c <_vfiprintf_r+0x944>
  4094e2:	9302      	str	r3, [sp, #8]
  4094e4:	2a01      	cmp	r2, #1
  4094e6:	f000 828c 	beq.w	409a02 <_vfiprintf_r+0x9ca>
  4094ea:	2a02      	cmp	r2, #2
  4094ec:	f040 825c 	bne.w	4099a8 <_vfiprintf_r+0x970>
  4094f0:	980b      	ldr	r0, [sp, #44]	; 0x2c
  4094f2:	46cb      	mov	fp, r9
  4094f4:	0933      	lsrs	r3, r6, #4
  4094f6:	f006 010f 	and.w	r1, r6, #15
  4094fa:	ea43 7307 	orr.w	r3, r3, r7, lsl #28
  4094fe:	093a      	lsrs	r2, r7, #4
  409500:	461e      	mov	r6, r3
  409502:	4617      	mov	r7, r2
  409504:	5c43      	ldrb	r3, [r0, r1]
  409506:	f80b 3d01 	strb.w	r3, [fp, #-1]!
  40950a:	ea56 0307 	orrs.w	r3, r6, r7
  40950e:	d1f1      	bne.n	4094f4 <_vfiprintf_r+0x4bc>
  409510:	eba9 030b 	sub.w	r3, r9, fp
  409514:	9305      	str	r3, [sp, #20]
  409516:	e6e1      	b.n	4092dc <_vfiprintf_r+0x2a4>
  409518:	2800      	cmp	r0, #0
  40951a:	f040 83c0 	bne.w	409c9e <_vfiprintf_r+0xc66>
  40951e:	0699      	lsls	r1, r3, #26
  409520:	f100 8367 	bmi.w	409bf2 <_vfiprintf_r+0xbba>
  409524:	06da      	lsls	r2, r3, #27
  409526:	f100 80f1 	bmi.w	40970c <_vfiprintf_r+0x6d4>
  40952a:	065b      	lsls	r3, r3, #25
  40952c:	f140 80ee 	bpl.w	40970c <_vfiprintf_r+0x6d4>
  409530:	9a07      	ldr	r2, [sp, #28]
  409532:	6813      	ldr	r3, [r2, #0]
  409534:	3204      	adds	r2, #4
  409536:	9207      	str	r2, [sp, #28]
  409538:	f8bd 200c 	ldrh.w	r2, [sp, #12]
  40953c:	801a      	strh	r2, [r3, #0]
  40953e:	e5b8      	b.n	4090b2 <_vfiprintf_r+0x7a>
  409540:	9807      	ldr	r0, [sp, #28]
  409542:	4a3d      	ldr	r2, [pc, #244]	; (409638 <_vfiprintf_r+0x600>)
  409544:	9608      	str	r6, [sp, #32]
  409546:	920b      	str	r2, [sp, #44]	; 0x2c
  409548:	6806      	ldr	r6, [r0, #0]
  40954a:	2278      	movs	r2, #120	; 0x78
  40954c:	2130      	movs	r1, #48	; 0x30
  40954e:	3004      	adds	r0, #4
  409550:	f88d 2039 	strb.w	r2, [sp, #57]	; 0x39
  409554:	f043 0302 	orr.w	r3, r3, #2
  409558:	9007      	str	r0, [sp, #28]
  40955a:	2700      	movs	r7, #0
  40955c:	f88d 1038 	strb.w	r1, [sp, #56]	; 0x38
  409560:	2202      	movs	r2, #2
  409562:	e69c      	b.n	40929e <_vfiprintf_r+0x266>
  409564:	9608      	str	r6, [sp, #32]
  409566:	2800      	cmp	r0, #0
  409568:	d099      	beq.n	40949e <_vfiprintf_r+0x466>
  40956a:	f88d 5037 	strb.w	r5, [sp, #55]	; 0x37
  40956e:	e796      	b.n	40949e <_vfiprintf_r+0x466>
  409570:	f898 2000 	ldrb.w	r2, [r8]
  409574:	2d00      	cmp	r5, #0
  409576:	f47f add1 	bne.w	40911c <_vfiprintf_r+0xe4>
  40957a:	2001      	movs	r0, #1
  40957c:	2520      	movs	r5, #32
  40957e:	e5cd      	b.n	40911c <_vfiprintf_r+0xe4>
  409580:	f043 0301 	orr.w	r3, r3, #1
  409584:	f898 2000 	ldrb.w	r2, [r8]
  409588:	e5c8      	b.n	40911c <_vfiprintf_r+0xe4>
  40958a:	9608      	str	r6, [sp, #32]
  40958c:	2800      	cmp	r0, #0
  40958e:	f040 8393 	bne.w	409cb8 <_vfiprintf_r+0xc80>
  409592:	4929      	ldr	r1, [pc, #164]	; (409638 <_vfiprintf_r+0x600>)
  409594:	910b      	str	r1, [sp, #44]	; 0x2c
  409596:	069f      	lsls	r7, r3, #26
  409598:	f100 82e8 	bmi.w	409b6c <_vfiprintf_r+0xb34>
  40959c:	9807      	ldr	r0, [sp, #28]
  40959e:	06de      	lsls	r6, r3, #27
  4095a0:	4601      	mov	r1, r0
  4095a2:	f100 8270 	bmi.w	409a86 <_vfiprintf_r+0xa4e>
  4095a6:	065d      	lsls	r5, r3, #25
  4095a8:	f140 826d 	bpl.w	409a86 <_vfiprintf_r+0xa4e>
  4095ac:	3104      	adds	r1, #4
  4095ae:	8806      	ldrh	r6, [r0, #0]
  4095b0:	9107      	str	r1, [sp, #28]
  4095b2:	2700      	movs	r7, #0
  4095b4:	07d8      	lsls	r0, r3, #31
  4095b6:	f140 8222 	bpl.w	4099fe <_vfiprintf_r+0x9c6>
  4095ba:	ea56 0107 	orrs.w	r1, r6, r7
  4095be:	f000 821e 	beq.w	4099fe <_vfiprintf_r+0x9c6>
  4095c2:	2130      	movs	r1, #48	; 0x30
  4095c4:	f88d 2039 	strb.w	r2, [sp, #57]	; 0x39
  4095c8:	f043 0302 	orr.w	r3, r3, #2
  4095cc:	f88d 1038 	strb.w	r1, [sp, #56]	; 0x38
  4095d0:	2202      	movs	r2, #2
  4095d2:	e664      	b.n	40929e <_vfiprintf_r+0x266>
  4095d4:	9608      	str	r6, [sp, #32]
  4095d6:	2800      	cmp	r0, #0
  4095d8:	f040 836b 	bne.w	409cb2 <_vfiprintf_r+0xc7a>
  4095dc:	4917      	ldr	r1, [pc, #92]	; (40963c <_vfiprintf_r+0x604>)
  4095de:	910b      	str	r1, [sp, #44]	; 0x2c
  4095e0:	e7d9      	b.n	409596 <_vfiprintf_r+0x55e>
  4095e2:	9907      	ldr	r1, [sp, #28]
  4095e4:	9608      	str	r6, [sp, #32]
  4095e6:	680a      	ldr	r2, [r1, #0]
  4095e8:	f88d 2048 	strb.w	r2, [sp, #72]	; 0x48
  4095ec:	f04f 0000 	mov.w	r0, #0
  4095f0:	460a      	mov	r2, r1
  4095f2:	f88d 0037 	strb.w	r0, [sp, #55]	; 0x37
  4095f6:	3204      	adds	r2, #4
  4095f8:	2001      	movs	r0, #1
  4095fa:	9001      	str	r0, [sp, #4]
  4095fc:	9207      	str	r2, [sp, #28]
  4095fe:	9005      	str	r0, [sp, #20]
  409600:	f10d 0b48 	add.w	fp, sp, #72	; 0x48
  409604:	9302      	str	r3, [sp, #8]
  409606:	2400      	movs	r4, #0
  409608:	e670      	b.n	4092ec <_vfiprintf_r+0x2b4>
  40960a:	f043 0340 	orr.w	r3, r3, #64	; 0x40
  40960e:	f898 2000 	ldrb.w	r2, [r8]
  409612:	e583      	b.n	40911c <_vfiprintf_r+0xe4>
  409614:	f898 2000 	ldrb.w	r2, [r8]
  409618:	2a6c      	cmp	r2, #108	; 0x6c
  40961a:	bf03      	ittte	eq
  40961c:	f898 2001 	ldrbeq.w	r2, [r8, #1]
  409620:	f043 0320 	orreq.w	r3, r3, #32
  409624:	f108 0801 	addeq.w	r8, r8, #1
  409628:	f043 0310 	orrne.w	r3, r3, #16
  40962c:	e576      	b.n	40911c <_vfiprintf_r+0xe4>
  40962e:	bf00      	nop
  409630:	0040e308 	.word	0x0040e308
  409634:	0040e318 	.word	0x0040e318
  409638:	0040e2c8 	.word	0x0040e2c8
  40963c:	0040e2b4 	.word	0x0040e2b4
  409640:	9907      	ldr	r1, [sp, #28]
  409642:	680e      	ldr	r6, [r1, #0]
  409644:	460a      	mov	r2, r1
  409646:	2e00      	cmp	r6, #0
  409648:	f102 0204 	add.w	r2, r2, #4
  40964c:	f6ff ae0f 	blt.w	40926e <_vfiprintf_r+0x236>
  409650:	9207      	str	r2, [sp, #28]
  409652:	f898 2000 	ldrb.w	r2, [r8]
  409656:	e561      	b.n	40911c <_vfiprintf_r+0xe4>
  409658:	f898 2000 	ldrb.w	r2, [r8]
  40965c:	2001      	movs	r0, #1
  40965e:	252b      	movs	r5, #43	; 0x2b
  409660:	e55c      	b.n	40911c <_vfiprintf_r+0xe4>
  409662:	9907      	ldr	r1, [sp, #28]
  409664:	9608      	str	r6, [sp, #32]
  409666:	f8d1 b000 	ldr.w	fp, [r1]
  40966a:	f04f 0200 	mov.w	r2, #0
  40966e:	f88d 2037 	strb.w	r2, [sp, #55]	; 0x37
  409672:	1d0e      	adds	r6, r1, #4
  409674:	f1bb 0f00 	cmp.w	fp, #0
  409678:	f000 82e5 	beq.w	409c46 <_vfiprintf_r+0xc0e>
  40967c:	1c67      	adds	r7, r4, #1
  40967e:	f000 82c4 	beq.w	409c0a <_vfiprintf_r+0xbd2>
  409682:	4622      	mov	r2, r4
  409684:	2100      	movs	r1, #0
  409686:	4658      	mov	r0, fp
  409688:	9301      	str	r3, [sp, #4]
  40968a:	f002 fba9 	bl	40bde0 <memchr>
  40968e:	9b01      	ldr	r3, [sp, #4]
  409690:	2800      	cmp	r0, #0
  409692:	f000 82e5 	beq.w	409c60 <_vfiprintf_r+0xc28>
  409696:	eba0 020b 	sub.w	r2, r0, fp
  40969a:	9205      	str	r2, [sp, #20]
  40969c:	9607      	str	r6, [sp, #28]
  40969e:	9302      	str	r3, [sp, #8]
  4096a0:	f89d 5037 	ldrb.w	r5, [sp, #55]	; 0x37
  4096a4:	2400      	movs	r4, #0
  4096a6:	e619      	b.n	4092dc <_vfiprintf_r+0x2a4>
  4096a8:	f898 2000 	ldrb.w	r2, [r8]
  4096ac:	2a2a      	cmp	r2, #42	; 0x2a
  4096ae:	f108 0701 	add.w	r7, r8, #1
  4096b2:	f000 82e9 	beq.w	409c88 <_vfiprintf_r+0xc50>
  4096b6:	f1a2 0130 	sub.w	r1, r2, #48	; 0x30
  4096ba:	2909      	cmp	r1, #9
  4096bc:	46b8      	mov	r8, r7
  4096be:	f04f 0400 	mov.w	r4, #0
  4096c2:	f63f ad2d 	bhi.w	409120 <_vfiprintf_r+0xe8>
  4096c6:	f818 2b01 	ldrb.w	r2, [r8], #1
  4096ca:	eb04 0484 	add.w	r4, r4, r4, lsl #2
  4096ce:	eb01 0444 	add.w	r4, r1, r4, lsl #1
  4096d2:	f1a2 0130 	sub.w	r1, r2, #48	; 0x30
  4096d6:	2909      	cmp	r1, #9
  4096d8:	d9f5      	bls.n	4096c6 <_vfiprintf_r+0x68e>
  4096da:	e521      	b.n	409120 <_vfiprintf_r+0xe8>
  4096dc:	f043 0320 	orr.w	r3, r3, #32
  4096e0:	f898 2000 	ldrb.w	r2, [r8]
  4096e4:	e51a      	b.n	40911c <_vfiprintf_r+0xe4>
  4096e6:	9608      	str	r6, [sp, #32]
  4096e8:	2800      	cmp	r0, #0
  4096ea:	f040 82db 	bne.w	409ca4 <_vfiprintf_r+0xc6c>
  4096ee:	2a00      	cmp	r2, #0
  4096f0:	f000 80e7 	beq.w	4098c2 <_vfiprintf_r+0x88a>
  4096f4:	2101      	movs	r1, #1
  4096f6:	f88d 2048 	strb.w	r2, [sp, #72]	; 0x48
  4096fa:	f04f 0200 	mov.w	r2, #0
  4096fe:	9101      	str	r1, [sp, #4]
  409700:	f88d 2037 	strb.w	r2, [sp, #55]	; 0x37
  409704:	9105      	str	r1, [sp, #20]
  409706:	f10d 0b48 	add.w	fp, sp, #72	; 0x48
  40970a:	e77b      	b.n	409604 <_vfiprintf_r+0x5cc>
  40970c:	9a07      	ldr	r2, [sp, #28]
  40970e:	6813      	ldr	r3, [r2, #0]
  409710:	3204      	adds	r2, #4
  409712:	9207      	str	r2, [sp, #28]
  409714:	9a03      	ldr	r2, [sp, #12]
  409716:	601a      	str	r2, [r3, #0]
  409718:	e4cb      	b.n	4090b2 <_vfiprintf_r+0x7a>
  40971a:	aa0f      	add	r2, sp, #60	; 0x3c
  40971c:	9904      	ldr	r1, [sp, #16]
  40971e:	4620      	mov	r0, r4
  409720:	f7ff fc4a 	bl	408fb8 <__sprint_r.part.0>
  409724:	2800      	cmp	r0, #0
  409726:	f040 8139 	bne.w	40999c <_vfiprintf_r+0x964>
  40972a:	9910      	ldr	r1, [sp, #64]	; 0x40
  40972c:	9a11      	ldr	r2, [sp, #68]	; 0x44
  40972e:	f101 0c01 	add.w	ip, r1, #1
  409732:	46ce      	mov	lr, r9
  409734:	e5ff      	b.n	409336 <_vfiprintf_r+0x2fe>
  409736:	9910      	ldr	r1, [sp, #64]	; 0x40
  409738:	9a11      	ldr	r2, [sp, #68]	; 0x44
  40973a:	1c48      	adds	r0, r1, #1
  40973c:	f89d 5037 	ldrb.w	r5, [sp, #55]	; 0x37
  409740:	2d00      	cmp	r5, #0
  409742:	f43f ae22 	beq.w	40938a <_vfiprintf_r+0x352>
  409746:	3201      	adds	r2, #1
  409748:	f10d 0537 	add.w	r5, sp, #55	; 0x37
  40974c:	2101      	movs	r1, #1
  40974e:	2807      	cmp	r0, #7
  409750:	9211      	str	r2, [sp, #68]	; 0x44
  409752:	9010      	str	r0, [sp, #64]	; 0x40
  409754:	f8ca 5000 	str.w	r5, [sl]
  409758:	f8ca 1004 	str.w	r1, [sl, #4]
  40975c:	f340 8108 	ble.w	409970 <_vfiprintf_r+0x938>
  409760:	2a00      	cmp	r2, #0
  409762:	f040 81bc 	bne.w	409ade <_vfiprintf_r+0xaa6>
  409766:	9b09      	ldr	r3, [sp, #36]	; 0x24
  409768:	2b00      	cmp	r3, #0
  40976a:	f43f ae1f 	beq.w	4093ac <_vfiprintf_r+0x374>
  40976e:	ab0e      	add	r3, sp, #56	; 0x38
  409770:	2202      	movs	r2, #2
  409772:	4608      	mov	r0, r1
  409774:	931c      	str	r3, [sp, #112]	; 0x70
  409776:	921d      	str	r2, [sp, #116]	; 0x74
  409778:	46ca      	mov	sl, r9
  40977a:	4601      	mov	r1, r0
  40977c:	f10a 0a08 	add.w	sl, sl, #8
  409780:	3001      	adds	r0, #1
  409782:	9b0a      	ldr	r3, [sp, #40]	; 0x28
  409784:	2b80      	cmp	r3, #128	; 0x80
  409786:	f43f ae19 	beq.w	4093bc <_vfiprintf_r+0x384>
  40978a:	9b05      	ldr	r3, [sp, #20]
  40978c:	1ae4      	subs	r4, r4, r3
  40978e:	2c00      	cmp	r4, #0
  409790:	dd2e      	ble.n	4097f0 <_vfiprintf_r+0x7b8>
  409792:	2c10      	cmp	r4, #16
  409794:	4db3      	ldr	r5, [pc, #716]	; (409a64 <_vfiprintf_r+0xa2c>)
  409796:	dd1e      	ble.n	4097d6 <_vfiprintf_r+0x79e>
  409798:	46d6      	mov	lr, sl
  40979a:	2610      	movs	r6, #16
  40979c:	9f06      	ldr	r7, [sp, #24]
  40979e:	f8dd a010 	ldr.w	sl, [sp, #16]
  4097a2:	e006      	b.n	4097b2 <_vfiprintf_r+0x77a>
  4097a4:	1c88      	adds	r0, r1, #2
  4097a6:	f10e 0e08 	add.w	lr, lr, #8
  4097aa:	4619      	mov	r1, r3
  4097ac:	3c10      	subs	r4, #16
  4097ae:	2c10      	cmp	r4, #16
  4097b0:	dd10      	ble.n	4097d4 <_vfiprintf_r+0x79c>
  4097b2:	1c4b      	adds	r3, r1, #1
  4097b4:	3210      	adds	r2, #16
  4097b6:	2b07      	cmp	r3, #7
  4097b8:	9211      	str	r2, [sp, #68]	; 0x44
  4097ba:	e88e 0060 	stmia.w	lr, {r5, r6}
  4097be:	9310      	str	r3, [sp, #64]	; 0x40
  4097c0:	ddf0      	ble.n	4097a4 <_vfiprintf_r+0x76c>
  4097c2:	2a00      	cmp	r2, #0
  4097c4:	d165      	bne.n	409892 <_vfiprintf_r+0x85a>
  4097c6:	3c10      	subs	r4, #16
  4097c8:	2c10      	cmp	r4, #16
  4097ca:	f04f 0001 	mov.w	r0, #1
  4097ce:	4611      	mov	r1, r2
  4097d0:	46ce      	mov	lr, r9
  4097d2:	dcee      	bgt.n	4097b2 <_vfiprintf_r+0x77a>
  4097d4:	46f2      	mov	sl, lr
  4097d6:	4422      	add	r2, r4
  4097d8:	2807      	cmp	r0, #7
  4097da:	9211      	str	r2, [sp, #68]	; 0x44
  4097dc:	f8ca 5000 	str.w	r5, [sl]
  4097e0:	f8ca 4004 	str.w	r4, [sl, #4]
  4097e4:	9010      	str	r0, [sp, #64]	; 0x40
  4097e6:	f300 8085 	bgt.w	4098f4 <_vfiprintf_r+0x8bc>
  4097ea:	f10a 0a08 	add.w	sl, sl, #8
  4097ee:	3001      	adds	r0, #1
  4097f0:	9905      	ldr	r1, [sp, #20]
  4097f2:	f8ca b000 	str.w	fp, [sl]
  4097f6:	440a      	add	r2, r1
  4097f8:	2807      	cmp	r0, #7
  4097fa:	9211      	str	r2, [sp, #68]	; 0x44
  4097fc:	f8ca 1004 	str.w	r1, [sl, #4]
  409800:	9010      	str	r0, [sp, #64]	; 0x40
  409802:	f340 8082 	ble.w	40990a <_vfiprintf_r+0x8d2>
  409806:	2a00      	cmp	r2, #0
  409808:	f040 8118 	bne.w	409a3c <_vfiprintf_r+0xa04>
  40980c:	9b02      	ldr	r3, [sp, #8]
  40980e:	9210      	str	r2, [sp, #64]	; 0x40
  409810:	0758      	lsls	r0, r3, #29
  409812:	d535      	bpl.n	409880 <_vfiprintf_r+0x848>
  409814:	9b08      	ldr	r3, [sp, #32]
  409816:	9901      	ldr	r1, [sp, #4]
  409818:	1a5c      	subs	r4, r3, r1
  40981a:	2c00      	cmp	r4, #0
  40981c:	f340 80e7 	ble.w	4099ee <_vfiprintf_r+0x9b6>
  409820:	46ca      	mov	sl, r9
  409822:	2c10      	cmp	r4, #16
  409824:	f340 8218 	ble.w	409c58 <_vfiprintf_r+0xc20>
  409828:	9910      	ldr	r1, [sp, #64]	; 0x40
  40982a:	4e8f      	ldr	r6, [pc, #572]	; (409a68 <_vfiprintf_r+0xa30>)
  40982c:	9f06      	ldr	r7, [sp, #24]
  40982e:	f8dd b010 	ldr.w	fp, [sp, #16]
  409832:	2510      	movs	r5, #16
  409834:	e006      	b.n	409844 <_vfiprintf_r+0x80c>
  409836:	1c88      	adds	r0, r1, #2
  409838:	f10a 0a08 	add.w	sl, sl, #8
  40983c:	4619      	mov	r1, r3
  40983e:	3c10      	subs	r4, #16
  409840:	2c10      	cmp	r4, #16
  409842:	dd11      	ble.n	409868 <_vfiprintf_r+0x830>
  409844:	1c4b      	adds	r3, r1, #1
  409846:	3210      	adds	r2, #16
  409848:	2b07      	cmp	r3, #7
  40984a:	9211      	str	r2, [sp, #68]	; 0x44
  40984c:	f8ca 6000 	str.w	r6, [sl]
  409850:	f8ca 5004 	str.w	r5, [sl, #4]
  409854:	9310      	str	r3, [sp, #64]	; 0x40
  409856:	ddee      	ble.n	409836 <_vfiprintf_r+0x7fe>
  409858:	bb42      	cbnz	r2, 4098ac <_vfiprintf_r+0x874>
  40985a:	3c10      	subs	r4, #16
  40985c:	2c10      	cmp	r4, #16
  40985e:	f04f 0001 	mov.w	r0, #1
  409862:	4611      	mov	r1, r2
  409864:	46ca      	mov	sl, r9
  409866:	dced      	bgt.n	409844 <_vfiprintf_r+0x80c>
  409868:	4422      	add	r2, r4
  40986a:	2807      	cmp	r0, #7
  40986c:	9211      	str	r2, [sp, #68]	; 0x44
  40986e:	f8ca 6000 	str.w	r6, [sl]
  409872:	f8ca 4004 	str.w	r4, [sl, #4]
  409876:	9010      	str	r0, [sp, #64]	; 0x40
  409878:	dd51      	ble.n	40991e <_vfiprintf_r+0x8e6>
  40987a:	2a00      	cmp	r2, #0
  40987c:	f040 819b 	bne.w	409bb6 <_vfiprintf_r+0xb7e>
  409880:	9b03      	ldr	r3, [sp, #12]
  409882:	9a08      	ldr	r2, [sp, #32]
  409884:	9901      	ldr	r1, [sp, #4]
  409886:	428a      	cmp	r2, r1
  409888:	bfac      	ite	ge
  40988a:	189b      	addge	r3, r3, r2
  40988c:	185b      	addlt	r3, r3, r1
  40988e:	9303      	str	r3, [sp, #12]
  409890:	e04e      	b.n	409930 <_vfiprintf_r+0x8f8>
  409892:	aa0f      	add	r2, sp, #60	; 0x3c
  409894:	4651      	mov	r1, sl
  409896:	4638      	mov	r0, r7
  409898:	f7ff fb8e 	bl	408fb8 <__sprint_r.part.0>
  40989c:	2800      	cmp	r0, #0
  40989e:	f040 813f 	bne.w	409b20 <_vfiprintf_r+0xae8>
  4098a2:	9910      	ldr	r1, [sp, #64]	; 0x40
  4098a4:	9a11      	ldr	r2, [sp, #68]	; 0x44
  4098a6:	1c48      	adds	r0, r1, #1
  4098a8:	46ce      	mov	lr, r9
  4098aa:	e77f      	b.n	4097ac <_vfiprintf_r+0x774>
  4098ac:	aa0f      	add	r2, sp, #60	; 0x3c
  4098ae:	4659      	mov	r1, fp
  4098b0:	4638      	mov	r0, r7
  4098b2:	f7ff fb81 	bl	408fb8 <__sprint_r.part.0>
  4098b6:	b960      	cbnz	r0, 4098d2 <_vfiprintf_r+0x89a>
  4098b8:	9910      	ldr	r1, [sp, #64]	; 0x40
  4098ba:	9a11      	ldr	r2, [sp, #68]	; 0x44
  4098bc:	1c48      	adds	r0, r1, #1
  4098be:	46ca      	mov	sl, r9
  4098c0:	e7bd      	b.n	40983e <_vfiprintf_r+0x806>
  4098c2:	9b11      	ldr	r3, [sp, #68]	; 0x44
  4098c4:	f8dd b010 	ldr.w	fp, [sp, #16]
  4098c8:	2b00      	cmp	r3, #0
  4098ca:	f040 81d4 	bne.w	409c76 <_vfiprintf_r+0xc3e>
  4098ce:	2300      	movs	r3, #0
  4098d0:	9310      	str	r3, [sp, #64]	; 0x40
  4098d2:	f8db 3064 	ldr.w	r3, [fp, #100]	; 0x64
  4098d6:	f013 0f01 	tst.w	r3, #1
  4098da:	f8bb 300c 	ldrh.w	r3, [fp, #12]
  4098de:	d102      	bne.n	4098e6 <_vfiprintf_r+0x8ae>
  4098e0:	059a      	lsls	r2, r3, #22
  4098e2:	f140 80de 	bpl.w	409aa2 <_vfiprintf_r+0xa6a>
  4098e6:	065b      	lsls	r3, r3, #25
  4098e8:	f53f acb2 	bmi.w	409250 <_vfiprintf_r+0x218>
  4098ec:	9803      	ldr	r0, [sp, #12]
  4098ee:	b02d      	add	sp, #180	; 0xb4
  4098f0:	e8bd 8ff0 	ldmia.w	sp!, {r4, r5, r6, r7, r8, r9, sl, fp, pc}
  4098f4:	2a00      	cmp	r2, #0
  4098f6:	f040 8106 	bne.w	409b06 <_vfiprintf_r+0xace>
  4098fa:	9a05      	ldr	r2, [sp, #20]
  4098fc:	921d      	str	r2, [sp, #116]	; 0x74
  4098fe:	2301      	movs	r3, #1
  409900:	9211      	str	r2, [sp, #68]	; 0x44
  409902:	f8cd b070 	str.w	fp, [sp, #112]	; 0x70
  409906:	9310      	str	r3, [sp, #64]	; 0x40
  409908:	46ca      	mov	sl, r9
  40990a:	f10a 0a08 	add.w	sl, sl, #8
  40990e:	9b02      	ldr	r3, [sp, #8]
  409910:	0759      	lsls	r1, r3, #29
  409912:	d504      	bpl.n	40991e <_vfiprintf_r+0x8e6>
  409914:	9b08      	ldr	r3, [sp, #32]
  409916:	9901      	ldr	r1, [sp, #4]
  409918:	1a5c      	subs	r4, r3, r1
  40991a:	2c00      	cmp	r4, #0
  40991c:	dc81      	bgt.n	409822 <_vfiprintf_r+0x7ea>
  40991e:	9b03      	ldr	r3, [sp, #12]
  409920:	9908      	ldr	r1, [sp, #32]
  409922:	9801      	ldr	r0, [sp, #4]
  409924:	4281      	cmp	r1, r0
  409926:	bfac      	ite	ge
  409928:	185b      	addge	r3, r3, r1
  40992a:	181b      	addlt	r3, r3, r0
  40992c:	9303      	str	r3, [sp, #12]
  40992e:	bb72      	cbnz	r2, 40998e <_vfiprintf_r+0x956>
  409930:	2300      	movs	r3, #0
  409932:	9310      	str	r3, [sp, #64]	; 0x40
  409934:	46ca      	mov	sl, r9
  409936:	f7ff bbbc 	b.w	4090b2 <_vfiprintf_r+0x7a>
  40993a:	aa0f      	add	r2, sp, #60	; 0x3c
  40993c:	9904      	ldr	r1, [sp, #16]
  40993e:	4620      	mov	r0, r4
  409940:	f7ff fb3a 	bl	408fb8 <__sprint_r.part.0>
  409944:	bb50      	cbnz	r0, 40999c <_vfiprintf_r+0x964>
  409946:	9910      	ldr	r1, [sp, #64]	; 0x40
  409948:	9a11      	ldr	r2, [sp, #68]	; 0x44
  40994a:	f101 0e01 	add.w	lr, r1, #1
  40994e:	46cc      	mov	ip, r9
  409950:	e548      	b.n	4093e4 <_vfiprintf_r+0x3ac>
  409952:	2a00      	cmp	r2, #0
  409954:	f040 8140 	bne.w	409bd8 <_vfiprintf_r+0xba0>
  409958:	f89d 1037 	ldrb.w	r1, [sp, #55]	; 0x37
  40995c:	2900      	cmp	r1, #0
  40995e:	f000 811b 	beq.w	409b98 <_vfiprintf_r+0xb60>
  409962:	2201      	movs	r2, #1
  409964:	f10d 0137 	add.w	r1, sp, #55	; 0x37
  409968:	4610      	mov	r0, r2
  40996a:	921d      	str	r2, [sp, #116]	; 0x74
  40996c:	911c      	str	r1, [sp, #112]	; 0x70
  40996e:	46ca      	mov	sl, r9
  409970:	4601      	mov	r1, r0
  409972:	f10a 0a08 	add.w	sl, sl, #8
  409976:	3001      	adds	r0, #1
  409978:	e507      	b.n	40938a <_vfiprintf_r+0x352>
  40997a:	9b02      	ldr	r3, [sp, #8]
  40997c:	2a01      	cmp	r2, #1
  40997e:	f000 8098 	beq.w	409ab2 <_vfiprintf_r+0xa7a>
  409982:	2a02      	cmp	r2, #2
  409984:	d10d      	bne.n	4099a2 <_vfiprintf_r+0x96a>
  409986:	9302      	str	r3, [sp, #8]
  409988:	2600      	movs	r6, #0
  40998a:	2700      	movs	r7, #0
  40998c:	e5b0      	b.n	4094f0 <_vfiprintf_r+0x4b8>
  40998e:	aa0f      	add	r2, sp, #60	; 0x3c
  409990:	9904      	ldr	r1, [sp, #16]
  409992:	9806      	ldr	r0, [sp, #24]
  409994:	f7ff fb10 	bl	408fb8 <__sprint_r.part.0>
  409998:	2800      	cmp	r0, #0
  40999a:	d0c9      	beq.n	409930 <_vfiprintf_r+0x8f8>
  40999c:	f8dd b010 	ldr.w	fp, [sp, #16]
  4099a0:	e797      	b.n	4098d2 <_vfiprintf_r+0x89a>
  4099a2:	9302      	str	r3, [sp, #8]
  4099a4:	2600      	movs	r6, #0
  4099a6:	2700      	movs	r7, #0
  4099a8:	4649      	mov	r1, r9
  4099aa:	e000      	b.n	4099ae <_vfiprintf_r+0x976>
  4099ac:	4659      	mov	r1, fp
  4099ae:	08f2      	lsrs	r2, r6, #3
  4099b0:	ea42 7247 	orr.w	r2, r2, r7, lsl #29
  4099b4:	08f8      	lsrs	r0, r7, #3
  4099b6:	f006 0307 	and.w	r3, r6, #7
  4099ba:	4607      	mov	r7, r0
  4099bc:	4616      	mov	r6, r2
  4099be:	3330      	adds	r3, #48	; 0x30
  4099c0:	ea56 0207 	orrs.w	r2, r6, r7
  4099c4:	f801 3c01 	strb.w	r3, [r1, #-1]
  4099c8:	f101 3bff 	add.w	fp, r1, #4294967295
  4099cc:	d1ee      	bne.n	4099ac <_vfiprintf_r+0x974>
  4099ce:	9a02      	ldr	r2, [sp, #8]
  4099d0:	07d6      	lsls	r6, r2, #31
  4099d2:	f57f ad9d 	bpl.w	409510 <_vfiprintf_r+0x4d8>
  4099d6:	2b30      	cmp	r3, #48	; 0x30
  4099d8:	f43f ad9a 	beq.w	409510 <_vfiprintf_r+0x4d8>
  4099dc:	3902      	subs	r1, #2
  4099de:	2330      	movs	r3, #48	; 0x30
  4099e0:	f80b 3c01 	strb.w	r3, [fp, #-1]
  4099e4:	eba9 0301 	sub.w	r3, r9, r1
  4099e8:	9305      	str	r3, [sp, #20]
  4099ea:	468b      	mov	fp, r1
  4099ec:	e476      	b.n	4092dc <_vfiprintf_r+0x2a4>
  4099ee:	9b03      	ldr	r3, [sp, #12]
  4099f0:	9a08      	ldr	r2, [sp, #32]
  4099f2:	428a      	cmp	r2, r1
  4099f4:	bfac      	ite	ge
  4099f6:	189b      	addge	r3, r3, r2
  4099f8:	185b      	addlt	r3, r3, r1
  4099fa:	9303      	str	r3, [sp, #12]
  4099fc:	e798      	b.n	409930 <_vfiprintf_r+0x8f8>
  4099fe:	2202      	movs	r2, #2
  409a00:	e44d      	b.n	40929e <_vfiprintf_r+0x266>
  409a02:	2f00      	cmp	r7, #0
  409a04:	bf08      	it	eq
  409a06:	2e0a      	cmpeq	r6, #10
  409a08:	d352      	bcc.n	409ab0 <_vfiprintf_r+0xa78>
  409a0a:	46cb      	mov	fp, r9
  409a0c:	4630      	mov	r0, r6
  409a0e:	4639      	mov	r1, r7
  409a10:	220a      	movs	r2, #10
  409a12:	2300      	movs	r3, #0
  409a14:	f003 fab4 	bl	40cf80 <__aeabi_uldivmod>
  409a18:	3230      	adds	r2, #48	; 0x30
  409a1a:	f80b 2d01 	strb.w	r2, [fp, #-1]!
  409a1e:	4630      	mov	r0, r6
  409a20:	4639      	mov	r1, r7
  409a22:	2300      	movs	r3, #0
  409a24:	220a      	movs	r2, #10
  409a26:	f003 faab 	bl	40cf80 <__aeabi_uldivmod>
  409a2a:	4606      	mov	r6, r0
  409a2c:	460f      	mov	r7, r1
  409a2e:	ea56 0307 	orrs.w	r3, r6, r7
  409a32:	d1eb      	bne.n	409a0c <_vfiprintf_r+0x9d4>
  409a34:	e56c      	b.n	409510 <_vfiprintf_r+0x4d8>
  409a36:	9405      	str	r4, [sp, #20]
  409a38:	46cb      	mov	fp, r9
  409a3a:	e44f      	b.n	4092dc <_vfiprintf_r+0x2a4>
  409a3c:	aa0f      	add	r2, sp, #60	; 0x3c
  409a3e:	9904      	ldr	r1, [sp, #16]
  409a40:	9806      	ldr	r0, [sp, #24]
  409a42:	f7ff fab9 	bl	408fb8 <__sprint_r.part.0>
  409a46:	2800      	cmp	r0, #0
  409a48:	d1a8      	bne.n	40999c <_vfiprintf_r+0x964>
  409a4a:	9a11      	ldr	r2, [sp, #68]	; 0x44
  409a4c:	46ca      	mov	sl, r9
  409a4e:	e75e      	b.n	40990e <_vfiprintf_r+0x8d6>
  409a50:	aa0f      	add	r2, sp, #60	; 0x3c
  409a52:	9904      	ldr	r1, [sp, #16]
  409a54:	9806      	ldr	r0, [sp, #24]
  409a56:	f7ff faaf 	bl	408fb8 <__sprint_r.part.0>
  409a5a:	2800      	cmp	r0, #0
  409a5c:	d19e      	bne.n	40999c <_vfiprintf_r+0x964>
  409a5e:	46ca      	mov	sl, r9
  409a60:	f7ff bbc0 	b.w	4091e4 <_vfiprintf_r+0x1ac>
  409a64:	0040e318 	.word	0x0040e318
  409a68:	0040e308 	.word	0x0040e308
  409a6c:	3104      	adds	r1, #4
  409a6e:	6816      	ldr	r6, [r2, #0]
  409a70:	9107      	str	r1, [sp, #28]
  409a72:	2201      	movs	r2, #1
  409a74:	2700      	movs	r7, #0
  409a76:	e412      	b.n	40929e <_vfiprintf_r+0x266>
  409a78:	9807      	ldr	r0, [sp, #28]
  409a7a:	4601      	mov	r1, r0
  409a7c:	3104      	adds	r1, #4
  409a7e:	6806      	ldr	r6, [r0, #0]
  409a80:	9107      	str	r1, [sp, #28]
  409a82:	2700      	movs	r7, #0
  409a84:	e40b      	b.n	40929e <_vfiprintf_r+0x266>
  409a86:	680e      	ldr	r6, [r1, #0]
  409a88:	3104      	adds	r1, #4
  409a8a:	9107      	str	r1, [sp, #28]
  409a8c:	2700      	movs	r7, #0
  409a8e:	e591      	b.n	4095b4 <_vfiprintf_r+0x57c>
  409a90:	9907      	ldr	r1, [sp, #28]
  409a92:	680e      	ldr	r6, [r1, #0]
  409a94:	460a      	mov	r2, r1
  409a96:	17f7      	asrs	r7, r6, #31
  409a98:	3204      	adds	r2, #4
  409a9a:	9207      	str	r2, [sp, #28]
  409a9c:	4630      	mov	r0, r6
  409a9e:	4639      	mov	r1, r7
  409aa0:	e50f      	b.n	4094c2 <_vfiprintf_r+0x48a>
  409aa2:	f8db 0058 	ldr.w	r0, [fp, #88]	; 0x58
  409aa6:	f001 fe4d 	bl	40b744 <__retarget_lock_release_recursive>
  409aaa:	f8bb 300c 	ldrh.w	r3, [fp, #12]
  409aae:	e71a      	b.n	4098e6 <_vfiprintf_r+0x8ae>
  409ab0:	9b02      	ldr	r3, [sp, #8]
  409ab2:	9302      	str	r3, [sp, #8]
  409ab4:	f10d 0bb0 	add.w	fp, sp, #176	; 0xb0
  409ab8:	3630      	adds	r6, #48	; 0x30
  409aba:	2301      	movs	r3, #1
  409abc:	f80b 6d41 	strb.w	r6, [fp, #-65]!
  409ac0:	9305      	str	r3, [sp, #20]
  409ac2:	e40b      	b.n	4092dc <_vfiprintf_r+0x2a4>
  409ac4:	aa0f      	add	r2, sp, #60	; 0x3c
  409ac6:	9904      	ldr	r1, [sp, #16]
  409ac8:	9806      	ldr	r0, [sp, #24]
  409aca:	f7ff fa75 	bl	408fb8 <__sprint_r.part.0>
  409ace:	2800      	cmp	r0, #0
  409ad0:	f47f af64 	bne.w	40999c <_vfiprintf_r+0x964>
  409ad4:	9910      	ldr	r1, [sp, #64]	; 0x40
  409ad6:	9a11      	ldr	r2, [sp, #68]	; 0x44
  409ad8:	1c48      	adds	r0, r1, #1
  409ada:	46ca      	mov	sl, r9
  409adc:	e651      	b.n	409782 <_vfiprintf_r+0x74a>
  409ade:	aa0f      	add	r2, sp, #60	; 0x3c
  409ae0:	9904      	ldr	r1, [sp, #16]
  409ae2:	9806      	ldr	r0, [sp, #24]
  409ae4:	f7ff fa68 	bl	408fb8 <__sprint_r.part.0>
  409ae8:	2800      	cmp	r0, #0
  409aea:	f47f af57 	bne.w	40999c <_vfiprintf_r+0x964>
  409aee:	9910      	ldr	r1, [sp, #64]	; 0x40
  409af0:	9a11      	ldr	r2, [sp, #68]	; 0x44
  409af2:	1c48      	adds	r0, r1, #1
  409af4:	46ca      	mov	sl, r9
  409af6:	e448      	b.n	40938a <_vfiprintf_r+0x352>
  409af8:	2a00      	cmp	r2, #0
  409afa:	f040 8091 	bne.w	409c20 <_vfiprintf_r+0xbe8>
  409afe:	2001      	movs	r0, #1
  409b00:	4611      	mov	r1, r2
  409b02:	46ca      	mov	sl, r9
  409b04:	e641      	b.n	40978a <_vfiprintf_r+0x752>
  409b06:	aa0f      	add	r2, sp, #60	; 0x3c
  409b08:	9904      	ldr	r1, [sp, #16]
  409b0a:	9806      	ldr	r0, [sp, #24]
  409b0c:	f7ff fa54 	bl	408fb8 <__sprint_r.part.0>
  409b10:	2800      	cmp	r0, #0
  409b12:	f47f af43 	bne.w	40999c <_vfiprintf_r+0x964>
  409b16:	9810      	ldr	r0, [sp, #64]	; 0x40
  409b18:	9a11      	ldr	r2, [sp, #68]	; 0x44
  409b1a:	3001      	adds	r0, #1
  409b1c:	46ca      	mov	sl, r9
  409b1e:	e667      	b.n	4097f0 <_vfiprintf_r+0x7b8>
  409b20:	46d3      	mov	fp, sl
  409b22:	e6d6      	b.n	4098d2 <_vfiprintf_r+0x89a>
  409b24:	9e07      	ldr	r6, [sp, #28]
  409b26:	3607      	adds	r6, #7
  409b28:	f026 0207 	bic.w	r2, r6, #7
  409b2c:	f102 0108 	add.w	r1, r2, #8
  409b30:	e9d2 6700 	ldrd	r6, r7, [r2]
  409b34:	9107      	str	r1, [sp, #28]
  409b36:	2201      	movs	r2, #1
  409b38:	f7ff bbb1 	b.w	40929e <_vfiprintf_r+0x266>
  409b3c:	9e07      	ldr	r6, [sp, #28]
  409b3e:	3607      	adds	r6, #7
  409b40:	f026 0607 	bic.w	r6, r6, #7
  409b44:	e9d6 0100 	ldrd	r0, r1, [r6]
  409b48:	f106 0208 	add.w	r2, r6, #8
  409b4c:	9207      	str	r2, [sp, #28]
  409b4e:	4606      	mov	r6, r0
  409b50:	460f      	mov	r7, r1
  409b52:	e4b6      	b.n	4094c2 <_vfiprintf_r+0x48a>
  409b54:	9e07      	ldr	r6, [sp, #28]
  409b56:	3607      	adds	r6, #7
  409b58:	f026 0207 	bic.w	r2, r6, #7
  409b5c:	f102 0108 	add.w	r1, r2, #8
  409b60:	e9d2 6700 	ldrd	r6, r7, [r2]
  409b64:	9107      	str	r1, [sp, #28]
  409b66:	2200      	movs	r2, #0
  409b68:	f7ff bb99 	b.w	40929e <_vfiprintf_r+0x266>
  409b6c:	9e07      	ldr	r6, [sp, #28]
  409b6e:	3607      	adds	r6, #7
  409b70:	f026 0107 	bic.w	r1, r6, #7
  409b74:	f101 0008 	add.w	r0, r1, #8
  409b78:	9007      	str	r0, [sp, #28]
  409b7a:	e9d1 6700 	ldrd	r6, r7, [r1]
  409b7e:	e519      	b.n	4095b4 <_vfiprintf_r+0x57c>
  409b80:	46cb      	mov	fp, r9
  409b82:	f7ff bbab 	b.w	4092dc <_vfiprintf_r+0x2a4>
  409b86:	252d      	movs	r5, #45	; 0x2d
  409b88:	4276      	negs	r6, r6
  409b8a:	eb67 0747 	sbc.w	r7, r7, r7, lsl #1
  409b8e:	f88d 5037 	strb.w	r5, [sp, #55]	; 0x37
  409b92:	2201      	movs	r2, #1
  409b94:	f7ff bb88 	b.w	4092a8 <_vfiprintf_r+0x270>
  409b98:	9b09      	ldr	r3, [sp, #36]	; 0x24
  409b9a:	b9b3      	cbnz	r3, 409bca <_vfiprintf_r+0xb92>
  409b9c:	4611      	mov	r1, r2
  409b9e:	2001      	movs	r0, #1
  409ba0:	46ca      	mov	sl, r9
  409ba2:	e5f2      	b.n	40978a <_vfiprintf_r+0x752>
  409ba4:	f8db 0058 	ldr.w	r0, [fp, #88]	; 0x58
  409ba8:	f001 fdcc 	bl	40b744 <__retarget_lock_release_recursive>
  409bac:	f04f 33ff 	mov.w	r3, #4294967295
  409bb0:	9303      	str	r3, [sp, #12]
  409bb2:	f7ff bb50 	b.w	409256 <_vfiprintf_r+0x21e>
  409bb6:	aa0f      	add	r2, sp, #60	; 0x3c
  409bb8:	9904      	ldr	r1, [sp, #16]
  409bba:	9806      	ldr	r0, [sp, #24]
  409bbc:	f7ff f9fc 	bl	408fb8 <__sprint_r.part.0>
  409bc0:	2800      	cmp	r0, #0
  409bc2:	f47f aeeb 	bne.w	40999c <_vfiprintf_r+0x964>
  409bc6:	9a11      	ldr	r2, [sp, #68]	; 0x44
  409bc8:	e6a9      	b.n	40991e <_vfiprintf_r+0x8e6>
  409bca:	ab0e      	add	r3, sp, #56	; 0x38
  409bcc:	2202      	movs	r2, #2
  409bce:	931c      	str	r3, [sp, #112]	; 0x70
  409bd0:	921d      	str	r2, [sp, #116]	; 0x74
  409bd2:	2001      	movs	r0, #1
  409bd4:	46ca      	mov	sl, r9
  409bd6:	e5d0      	b.n	40977a <_vfiprintf_r+0x742>
  409bd8:	aa0f      	add	r2, sp, #60	; 0x3c
  409bda:	9904      	ldr	r1, [sp, #16]
  409bdc:	9806      	ldr	r0, [sp, #24]
  409bde:	f7ff f9eb 	bl	408fb8 <__sprint_r.part.0>
  409be2:	2800      	cmp	r0, #0
  409be4:	f47f aeda 	bne.w	40999c <_vfiprintf_r+0x964>
  409be8:	9910      	ldr	r1, [sp, #64]	; 0x40
  409bea:	9a11      	ldr	r2, [sp, #68]	; 0x44
  409bec:	1c48      	adds	r0, r1, #1
  409bee:	46ca      	mov	sl, r9
  409bf0:	e5a4      	b.n	40973c <_vfiprintf_r+0x704>
  409bf2:	9a07      	ldr	r2, [sp, #28]
  409bf4:	9903      	ldr	r1, [sp, #12]
  409bf6:	6813      	ldr	r3, [r2, #0]
  409bf8:	17cd      	asrs	r5, r1, #31
  409bfa:	4608      	mov	r0, r1
  409bfc:	3204      	adds	r2, #4
  409bfe:	4629      	mov	r1, r5
  409c00:	9207      	str	r2, [sp, #28]
  409c02:	e9c3 0100 	strd	r0, r1, [r3]
  409c06:	f7ff ba54 	b.w	4090b2 <_vfiprintf_r+0x7a>
  409c0a:	4658      	mov	r0, fp
  409c0c:	9607      	str	r6, [sp, #28]
  409c0e:	9302      	str	r3, [sp, #8]
  409c10:	f7fd ff36 	bl	407a80 <strlen>
  409c14:	2400      	movs	r4, #0
  409c16:	9005      	str	r0, [sp, #20]
  409c18:	f89d 5037 	ldrb.w	r5, [sp, #55]	; 0x37
  409c1c:	f7ff bb5e 	b.w	4092dc <_vfiprintf_r+0x2a4>
  409c20:	aa0f      	add	r2, sp, #60	; 0x3c
  409c22:	9904      	ldr	r1, [sp, #16]
  409c24:	9806      	ldr	r0, [sp, #24]
  409c26:	f7ff f9c7 	bl	408fb8 <__sprint_r.part.0>
  409c2a:	2800      	cmp	r0, #0
  409c2c:	f47f aeb6 	bne.w	40999c <_vfiprintf_r+0x964>
  409c30:	9910      	ldr	r1, [sp, #64]	; 0x40
  409c32:	9a11      	ldr	r2, [sp, #68]	; 0x44
  409c34:	1c48      	adds	r0, r1, #1
  409c36:	46ca      	mov	sl, r9
  409c38:	e5a7      	b.n	40978a <_vfiprintf_r+0x752>
  409c3a:	9910      	ldr	r1, [sp, #64]	; 0x40
  409c3c:	9a11      	ldr	r2, [sp, #68]	; 0x44
  409c3e:	4e20      	ldr	r6, [pc, #128]	; (409cc0 <_vfiprintf_r+0xc88>)
  409c40:	3101      	adds	r1, #1
  409c42:	f7ff bb90 	b.w	409366 <_vfiprintf_r+0x32e>
  409c46:	2c06      	cmp	r4, #6
  409c48:	bf28      	it	cs
  409c4a:	2406      	movcs	r4, #6
  409c4c:	9405      	str	r4, [sp, #20]
  409c4e:	9607      	str	r6, [sp, #28]
  409c50:	9401      	str	r4, [sp, #4]
  409c52:	f8df b070 	ldr.w	fp, [pc, #112]	; 409cc4 <_vfiprintf_r+0xc8c>
  409c56:	e4d5      	b.n	409604 <_vfiprintf_r+0x5cc>
  409c58:	9810      	ldr	r0, [sp, #64]	; 0x40
  409c5a:	4e19      	ldr	r6, [pc, #100]	; (409cc0 <_vfiprintf_r+0xc88>)
  409c5c:	3001      	adds	r0, #1
  409c5e:	e603      	b.n	409868 <_vfiprintf_r+0x830>
  409c60:	9405      	str	r4, [sp, #20]
  409c62:	f89d 5037 	ldrb.w	r5, [sp, #55]	; 0x37
  409c66:	9607      	str	r6, [sp, #28]
  409c68:	9302      	str	r3, [sp, #8]
  409c6a:	4604      	mov	r4, r0
  409c6c:	f7ff bb36 	b.w	4092dc <_vfiprintf_r+0x2a4>
  409c70:	4686      	mov	lr, r0
  409c72:	f7ff bbce 	b.w	409412 <_vfiprintf_r+0x3da>
  409c76:	9806      	ldr	r0, [sp, #24]
  409c78:	aa0f      	add	r2, sp, #60	; 0x3c
  409c7a:	4659      	mov	r1, fp
  409c7c:	f7ff f99c 	bl	408fb8 <__sprint_r.part.0>
  409c80:	2800      	cmp	r0, #0
  409c82:	f43f ae24 	beq.w	4098ce <_vfiprintf_r+0x896>
  409c86:	e624      	b.n	4098d2 <_vfiprintf_r+0x89a>
  409c88:	9907      	ldr	r1, [sp, #28]
  409c8a:	f898 2001 	ldrb.w	r2, [r8, #1]
  409c8e:	680c      	ldr	r4, [r1, #0]
  409c90:	3104      	adds	r1, #4
  409c92:	ea44 74e4 	orr.w	r4, r4, r4, asr #31
  409c96:	46b8      	mov	r8, r7
  409c98:	9107      	str	r1, [sp, #28]
  409c9a:	f7ff ba3f 	b.w	40911c <_vfiprintf_r+0xe4>
  409c9e:	f88d 5037 	strb.w	r5, [sp, #55]	; 0x37
  409ca2:	e43c      	b.n	40951e <_vfiprintf_r+0x4e6>
  409ca4:	f88d 5037 	strb.w	r5, [sp, #55]	; 0x37
  409ca8:	e521      	b.n	4096ee <_vfiprintf_r+0x6b6>
  409caa:	f88d 5037 	strb.w	r5, [sp, #55]	; 0x37
  409cae:	f7ff bbf4 	b.w	40949a <_vfiprintf_r+0x462>
  409cb2:	f88d 5037 	strb.w	r5, [sp, #55]	; 0x37
  409cb6:	e491      	b.n	4095dc <_vfiprintf_r+0x5a4>
  409cb8:	f88d 5037 	strb.w	r5, [sp, #55]	; 0x37
  409cbc:	e469      	b.n	409592 <_vfiprintf_r+0x55a>
  409cbe:	bf00      	nop
  409cc0:	0040e308 	.word	0x0040e308
  409cc4:	0040e2dc 	.word	0x0040e2dc

00409cc8 <__sbprintf>:
  409cc8:	e92d 41f0 	stmdb	sp!, {r4, r5, r6, r7, r8, lr}
  409ccc:	460c      	mov	r4, r1
  409cce:	f5ad 6d8d 	sub.w	sp, sp, #1128	; 0x468
  409cd2:	8989      	ldrh	r1, [r1, #12]
  409cd4:	6e66      	ldr	r6, [r4, #100]	; 0x64
  409cd6:	89e5      	ldrh	r5, [r4, #14]
  409cd8:	9619      	str	r6, [sp, #100]	; 0x64
  409cda:	f021 0102 	bic.w	r1, r1, #2
  409cde:	4606      	mov	r6, r0
  409ce0:	69e0      	ldr	r0, [r4, #28]
  409ce2:	f8ad 100c 	strh.w	r1, [sp, #12]
  409ce6:	4617      	mov	r7, r2
  409ce8:	f44f 6180 	mov.w	r1, #1024	; 0x400
  409cec:	6a62      	ldr	r2, [r4, #36]	; 0x24
  409cee:	f8ad 500e 	strh.w	r5, [sp, #14]
  409cf2:	4698      	mov	r8, r3
  409cf4:	ad1a      	add	r5, sp, #104	; 0x68
  409cf6:	2300      	movs	r3, #0
  409cf8:	9007      	str	r0, [sp, #28]
  409cfa:	a816      	add	r0, sp, #88	; 0x58
  409cfc:	9209      	str	r2, [sp, #36]	; 0x24
  409cfe:	9306      	str	r3, [sp, #24]
  409d00:	9500      	str	r5, [sp, #0]
  409d02:	9504      	str	r5, [sp, #16]
  409d04:	9102      	str	r1, [sp, #8]
  409d06:	9105      	str	r1, [sp, #20]
  409d08:	f001 fd16 	bl	40b738 <__retarget_lock_init_recursive>
  409d0c:	4643      	mov	r3, r8
  409d0e:	463a      	mov	r2, r7
  409d10:	4669      	mov	r1, sp
  409d12:	4630      	mov	r0, r6
  409d14:	f7ff f990 	bl	409038 <_vfiprintf_r>
  409d18:	1e05      	subs	r5, r0, #0
  409d1a:	db07      	blt.n	409d2c <__sbprintf+0x64>
  409d1c:	4630      	mov	r0, r6
  409d1e:	4669      	mov	r1, sp
  409d20:	f001 f8e8 	bl	40aef4 <_fflush_r>
  409d24:	2800      	cmp	r0, #0
  409d26:	bf18      	it	ne
  409d28:	f04f 35ff 	movne.w	r5, #4294967295
  409d2c:	f8bd 300c 	ldrh.w	r3, [sp, #12]
  409d30:	065b      	lsls	r3, r3, #25
  409d32:	d503      	bpl.n	409d3c <__sbprintf+0x74>
  409d34:	89a3      	ldrh	r3, [r4, #12]
  409d36:	f043 0340 	orr.w	r3, r3, #64	; 0x40
  409d3a:	81a3      	strh	r3, [r4, #12]
  409d3c:	9816      	ldr	r0, [sp, #88]	; 0x58
  409d3e:	f001 fcfd 	bl	40b73c <__retarget_lock_close_recursive>
  409d42:	4628      	mov	r0, r5
  409d44:	f50d 6d8d 	add.w	sp, sp, #1128	; 0x468
  409d48:	e8bd 81f0 	ldmia.w	sp!, {r4, r5, r6, r7, r8, pc}

00409d4c <__swsetup_r>:
  409d4c:	b538      	push	{r3, r4, r5, lr}
  409d4e:	4b30      	ldr	r3, [pc, #192]	; (409e10 <__swsetup_r+0xc4>)
  409d50:	681b      	ldr	r3, [r3, #0]
  409d52:	4605      	mov	r5, r0
  409d54:	460c      	mov	r4, r1
  409d56:	b113      	cbz	r3, 409d5e <__swsetup_r+0x12>
  409d58:	6b9a      	ldr	r2, [r3, #56]	; 0x38
  409d5a:	2a00      	cmp	r2, #0
  409d5c:	d038      	beq.n	409dd0 <__swsetup_r+0x84>
  409d5e:	f9b4 200c 	ldrsh.w	r2, [r4, #12]
  409d62:	b293      	uxth	r3, r2
  409d64:	0718      	lsls	r0, r3, #28
  409d66:	d50c      	bpl.n	409d82 <__swsetup_r+0x36>
  409d68:	6920      	ldr	r0, [r4, #16]
  409d6a:	b1a8      	cbz	r0, 409d98 <__swsetup_r+0x4c>
  409d6c:	f013 0201 	ands.w	r2, r3, #1
  409d70:	d01e      	beq.n	409db0 <__swsetup_r+0x64>
  409d72:	6963      	ldr	r3, [r4, #20]
  409d74:	2200      	movs	r2, #0
  409d76:	425b      	negs	r3, r3
  409d78:	61a3      	str	r3, [r4, #24]
  409d7a:	60a2      	str	r2, [r4, #8]
  409d7c:	b1f0      	cbz	r0, 409dbc <__swsetup_r+0x70>
  409d7e:	2000      	movs	r0, #0
  409d80:	bd38      	pop	{r3, r4, r5, pc}
  409d82:	06d9      	lsls	r1, r3, #27
  409d84:	d53c      	bpl.n	409e00 <__swsetup_r+0xb4>
  409d86:	0758      	lsls	r0, r3, #29
  409d88:	d426      	bmi.n	409dd8 <__swsetup_r+0x8c>
  409d8a:	6920      	ldr	r0, [r4, #16]
  409d8c:	f042 0308 	orr.w	r3, r2, #8
  409d90:	81a3      	strh	r3, [r4, #12]
  409d92:	b29b      	uxth	r3, r3
  409d94:	2800      	cmp	r0, #0
  409d96:	d1e9      	bne.n	409d6c <__swsetup_r+0x20>
  409d98:	f403 7220 	and.w	r2, r3, #640	; 0x280
  409d9c:	f5b2 7f00 	cmp.w	r2, #512	; 0x200
  409da0:	d0e4      	beq.n	409d6c <__swsetup_r+0x20>
  409da2:	4628      	mov	r0, r5
  409da4:	4621      	mov	r1, r4
  409da6:	f001 fcfd 	bl	40b7a4 <__smakebuf_r>
  409daa:	89a3      	ldrh	r3, [r4, #12]
  409dac:	6920      	ldr	r0, [r4, #16]
  409dae:	e7dd      	b.n	409d6c <__swsetup_r+0x20>
  409db0:	0799      	lsls	r1, r3, #30
  409db2:	bf58      	it	pl
  409db4:	6962      	ldrpl	r2, [r4, #20]
  409db6:	60a2      	str	r2, [r4, #8]
  409db8:	2800      	cmp	r0, #0
  409dba:	d1e0      	bne.n	409d7e <__swsetup_r+0x32>
  409dbc:	f9b4 300c 	ldrsh.w	r3, [r4, #12]
  409dc0:	061a      	lsls	r2, r3, #24
  409dc2:	d5dd      	bpl.n	409d80 <__swsetup_r+0x34>
  409dc4:	f043 0340 	orr.w	r3, r3, #64	; 0x40
  409dc8:	81a3      	strh	r3, [r4, #12]
  409dca:	f04f 30ff 	mov.w	r0, #4294967295
  409dce:	bd38      	pop	{r3, r4, r5, pc}
  409dd0:	4618      	mov	r0, r3
  409dd2:	f001 f8e7 	bl	40afa4 <__sinit>
  409dd6:	e7c2      	b.n	409d5e <__swsetup_r+0x12>
  409dd8:	6b21      	ldr	r1, [r4, #48]	; 0x30
  409dda:	b151      	cbz	r1, 409df2 <__swsetup_r+0xa6>
  409ddc:	f104 0340 	add.w	r3, r4, #64	; 0x40
  409de0:	4299      	cmp	r1, r3
  409de2:	d004      	beq.n	409dee <__swsetup_r+0xa2>
  409de4:	4628      	mov	r0, r5
  409de6:	f001 fa03 	bl	40b1f0 <_free_r>
  409dea:	f9b4 200c 	ldrsh.w	r2, [r4, #12]
  409dee:	2300      	movs	r3, #0
  409df0:	6323      	str	r3, [r4, #48]	; 0x30
  409df2:	2300      	movs	r3, #0
  409df4:	6920      	ldr	r0, [r4, #16]
  409df6:	6063      	str	r3, [r4, #4]
  409df8:	f022 0224 	bic.w	r2, r2, #36	; 0x24
  409dfc:	6020      	str	r0, [r4, #0]
  409dfe:	e7c5      	b.n	409d8c <__swsetup_r+0x40>
  409e00:	f042 0240 	orr.w	r2, r2, #64	; 0x40
  409e04:	2309      	movs	r3, #9
  409e06:	602b      	str	r3, [r5, #0]
  409e08:	f04f 30ff 	mov.w	r0, #4294967295
  409e0c:	81a2      	strh	r2, [r4, #12]
  409e0e:	bd38      	pop	{r3, r4, r5, pc}
  409e10:	20400028 	.word	0x20400028

00409e14 <register_fini>:
  409e14:	4b02      	ldr	r3, [pc, #8]	; (409e20 <register_fini+0xc>)
  409e16:	b113      	cbz	r3, 409e1e <register_fini+0xa>
  409e18:	4802      	ldr	r0, [pc, #8]	; (409e24 <register_fini+0x10>)
  409e1a:	f000 b805 	b.w	409e28 <atexit>
  409e1e:	4770      	bx	lr
  409e20:	00000000 	.word	0x00000000
  409e24:	0040b015 	.word	0x0040b015

00409e28 <atexit>:
  409e28:	2300      	movs	r3, #0
  409e2a:	4601      	mov	r1, r0
  409e2c:	461a      	mov	r2, r3
  409e2e:	4618      	mov	r0, r3
  409e30:	f002 beb0 	b.w	40cb94 <__register_exitproc>

00409e34 <quorem>:
  409e34:	6902      	ldr	r2, [r0, #16]
  409e36:	690b      	ldr	r3, [r1, #16]
  409e38:	4293      	cmp	r3, r2
  409e3a:	f300 808d 	bgt.w	409f58 <quorem+0x124>
  409e3e:	e92d 4ff0 	stmdb	sp!, {r4, r5, r6, r7, r8, r9, sl, fp, lr}
  409e42:	f103 38ff 	add.w	r8, r3, #4294967295
  409e46:	f101 0714 	add.w	r7, r1, #20
  409e4a:	f100 0b14 	add.w	fp, r0, #20
  409e4e:	f857 2028 	ldr.w	r2, [r7, r8, lsl #2]
  409e52:	f85b 3028 	ldr.w	r3, [fp, r8, lsl #2]
  409e56:	ea4f 0488 	mov.w	r4, r8, lsl #2
  409e5a:	b083      	sub	sp, #12
  409e5c:	3201      	adds	r2, #1
  409e5e:	fbb3 f9f2 	udiv	r9, r3, r2
  409e62:	eb0b 0304 	add.w	r3, fp, r4
  409e66:	9400      	str	r4, [sp, #0]
  409e68:	eb07 0a04 	add.w	sl, r7, r4
  409e6c:	9301      	str	r3, [sp, #4]
  409e6e:	f1b9 0f00 	cmp.w	r9, #0
  409e72:	d039      	beq.n	409ee8 <quorem+0xb4>
  409e74:	2500      	movs	r5, #0
  409e76:	462e      	mov	r6, r5
  409e78:	46bc      	mov	ip, r7
  409e7a:	46de      	mov	lr, fp
  409e7c:	f85c 4b04 	ldr.w	r4, [ip], #4
  409e80:	f8de 3000 	ldr.w	r3, [lr]
  409e84:	b2a2      	uxth	r2, r4
  409e86:	fb09 5502 	mla	r5, r9, r2, r5
  409e8a:	0c22      	lsrs	r2, r4, #16
  409e8c:	0c2c      	lsrs	r4, r5, #16
  409e8e:	fb09 4202 	mla	r2, r9, r2, r4
  409e92:	b2ad      	uxth	r5, r5
  409e94:	1b75      	subs	r5, r6, r5
  409e96:	b296      	uxth	r6, r2
  409e98:	ebc6 4613 	rsb	r6, r6, r3, lsr #16
  409e9c:	fa15 f383 	uxtah	r3, r5, r3
  409ea0:	eb06 4623 	add.w	r6, r6, r3, asr #16
  409ea4:	b29b      	uxth	r3, r3
  409ea6:	ea43 4306 	orr.w	r3, r3, r6, lsl #16
  409eaa:	45e2      	cmp	sl, ip
  409eac:	ea4f 4512 	mov.w	r5, r2, lsr #16
  409eb0:	f84e 3b04 	str.w	r3, [lr], #4
  409eb4:	ea4f 4626 	mov.w	r6, r6, asr #16
  409eb8:	d2e0      	bcs.n	409e7c <quorem+0x48>
  409eba:	9b00      	ldr	r3, [sp, #0]
  409ebc:	f85b 3003 	ldr.w	r3, [fp, r3]
  409ec0:	b993      	cbnz	r3, 409ee8 <quorem+0xb4>
  409ec2:	9c01      	ldr	r4, [sp, #4]
  409ec4:	1f23      	subs	r3, r4, #4
  409ec6:	459b      	cmp	fp, r3
  409ec8:	d20c      	bcs.n	409ee4 <quorem+0xb0>
  409eca:	f854 3c04 	ldr.w	r3, [r4, #-4]
  409ece:	b94b      	cbnz	r3, 409ee4 <quorem+0xb0>
  409ed0:	f1a4 0308 	sub.w	r3, r4, #8
  409ed4:	e002      	b.n	409edc <quorem+0xa8>
  409ed6:	681a      	ldr	r2, [r3, #0]
  409ed8:	3b04      	subs	r3, #4
  409eda:	b91a      	cbnz	r2, 409ee4 <quorem+0xb0>
  409edc:	459b      	cmp	fp, r3
  409ede:	f108 38ff 	add.w	r8, r8, #4294967295
  409ee2:	d3f8      	bcc.n	409ed6 <quorem+0xa2>
  409ee4:	f8c0 8010 	str.w	r8, [r0, #16]
  409ee8:	4604      	mov	r4, r0
  409eea:	f002 fa37 	bl	40c35c <__mcmp>
  409eee:	2800      	cmp	r0, #0
  409ef0:	db2e      	blt.n	409f50 <quorem+0x11c>
  409ef2:	f109 0901 	add.w	r9, r9, #1
  409ef6:	465d      	mov	r5, fp
  409ef8:	2300      	movs	r3, #0
  409efa:	f857 1b04 	ldr.w	r1, [r7], #4
  409efe:	6828      	ldr	r0, [r5, #0]
  409f00:	b28a      	uxth	r2, r1
  409f02:	1a9a      	subs	r2, r3, r2
  409f04:	0c0b      	lsrs	r3, r1, #16
  409f06:	fa12 f280 	uxtah	r2, r2, r0
  409f0a:	ebc3 4310 	rsb	r3, r3, r0, lsr #16
  409f0e:	eb03 4322 	add.w	r3, r3, r2, asr #16
  409f12:	b292      	uxth	r2, r2
  409f14:	ea42 4203 	orr.w	r2, r2, r3, lsl #16
  409f18:	45ba      	cmp	sl, r7
  409f1a:	f845 2b04 	str.w	r2, [r5], #4
  409f1e:	ea4f 4323 	mov.w	r3, r3, asr #16
  409f22:	d2ea      	bcs.n	409efa <quorem+0xc6>
  409f24:	f85b 2028 	ldr.w	r2, [fp, r8, lsl #2]
  409f28:	eb0b 0388 	add.w	r3, fp, r8, lsl #2
  409f2c:	b982      	cbnz	r2, 409f50 <quorem+0x11c>
  409f2e:	1f1a      	subs	r2, r3, #4
  409f30:	4593      	cmp	fp, r2
  409f32:	d20b      	bcs.n	409f4c <quorem+0x118>
  409f34:	f853 2c04 	ldr.w	r2, [r3, #-4]
  409f38:	b942      	cbnz	r2, 409f4c <quorem+0x118>
  409f3a:	3b08      	subs	r3, #8
  409f3c:	e002      	b.n	409f44 <quorem+0x110>
  409f3e:	681a      	ldr	r2, [r3, #0]
  409f40:	3b04      	subs	r3, #4
  409f42:	b91a      	cbnz	r2, 409f4c <quorem+0x118>
  409f44:	459b      	cmp	fp, r3
  409f46:	f108 38ff 	add.w	r8, r8, #4294967295
  409f4a:	d3f8      	bcc.n	409f3e <quorem+0x10a>
  409f4c:	f8c4 8010 	str.w	r8, [r4, #16]
  409f50:	4648      	mov	r0, r9
  409f52:	b003      	add	sp, #12
  409f54:	e8bd 8ff0 	ldmia.w	sp!, {r4, r5, r6, r7, r8, r9, sl, fp, pc}
  409f58:	2000      	movs	r0, #0
  409f5a:	4770      	bx	lr
  409f5c:	0000      	movs	r0, r0
	...

00409f60 <_dtoa_r>:
  409f60:	e92d 4ff0 	stmdb	sp!, {r4, r5, r6, r7, r8, r9, sl, fp, lr}
  409f64:	6c01      	ldr	r1, [r0, #64]	; 0x40
  409f66:	b09b      	sub	sp, #108	; 0x6c
  409f68:	4604      	mov	r4, r0
  409f6a:	9e27      	ldr	r6, [sp, #156]	; 0x9c
  409f6c:	4692      	mov	sl, r2
  409f6e:	469b      	mov	fp, r3
  409f70:	b141      	cbz	r1, 409f84 <_dtoa_r+0x24>
  409f72:	6c42      	ldr	r2, [r0, #68]	; 0x44
  409f74:	604a      	str	r2, [r1, #4]
  409f76:	2301      	movs	r3, #1
  409f78:	4093      	lsls	r3, r2
  409f7a:	608b      	str	r3, [r1, #8]
  409f7c:	f002 f816 	bl	40bfac <_Bfree>
  409f80:	2300      	movs	r3, #0
  409f82:	6423      	str	r3, [r4, #64]	; 0x40
  409f84:	f1bb 0f00 	cmp.w	fp, #0
  409f88:	465d      	mov	r5, fp
  409f8a:	db35      	blt.n	409ff8 <_dtoa_r+0x98>
  409f8c:	2300      	movs	r3, #0
  409f8e:	6033      	str	r3, [r6, #0]
  409f90:	4b9d      	ldr	r3, [pc, #628]	; (40a208 <_dtoa_r+0x2a8>)
  409f92:	43ab      	bics	r3, r5
  409f94:	d015      	beq.n	409fc2 <_dtoa_r+0x62>
  409f96:	4650      	mov	r0, sl
  409f98:	4659      	mov	r1, fp
  409f9a:	2200      	movs	r2, #0
  409f9c:	2300      	movs	r3, #0
  409f9e:	f002 ffa7 	bl	40cef0 <__aeabi_dcmpeq>
  409fa2:	4680      	mov	r8, r0
  409fa4:	2800      	cmp	r0, #0
  409fa6:	d02d      	beq.n	40a004 <_dtoa_r+0xa4>
  409fa8:	9a26      	ldr	r2, [sp, #152]	; 0x98
  409faa:	2301      	movs	r3, #1
  409fac:	6013      	str	r3, [r2, #0]
  409fae:	9b28      	ldr	r3, [sp, #160]	; 0xa0
  409fb0:	2b00      	cmp	r3, #0
  409fb2:	f000 80bd 	beq.w	40a130 <_dtoa_r+0x1d0>
  409fb6:	4895      	ldr	r0, [pc, #596]	; (40a20c <_dtoa_r+0x2ac>)
  409fb8:	6018      	str	r0, [r3, #0]
  409fba:	3801      	subs	r0, #1
  409fbc:	b01b      	add	sp, #108	; 0x6c
  409fbe:	e8bd 8ff0 	ldmia.w	sp!, {r4, r5, r6, r7, r8, r9, sl, fp, pc}
  409fc2:	9a26      	ldr	r2, [sp, #152]	; 0x98
  409fc4:	f242 730f 	movw	r3, #9999	; 0x270f
  409fc8:	6013      	str	r3, [r2, #0]
  409fca:	f1ba 0f00 	cmp.w	sl, #0
  409fce:	d10d      	bne.n	409fec <_dtoa_r+0x8c>
  409fd0:	f3c5 0513 	ubfx	r5, r5, #0, #20
  409fd4:	b955      	cbnz	r5, 409fec <_dtoa_r+0x8c>
  409fd6:	9b28      	ldr	r3, [sp, #160]	; 0xa0
  409fd8:	488d      	ldr	r0, [pc, #564]	; (40a210 <_dtoa_r+0x2b0>)
  409fda:	2b00      	cmp	r3, #0
  409fdc:	d0ee      	beq.n	409fbc <_dtoa_r+0x5c>
  409fde:	f100 0308 	add.w	r3, r0, #8
  409fe2:	9a28      	ldr	r2, [sp, #160]	; 0xa0
  409fe4:	6013      	str	r3, [r2, #0]
  409fe6:	b01b      	add	sp, #108	; 0x6c
  409fe8:	e8bd 8ff0 	ldmia.w	sp!, {r4, r5, r6, r7, r8, r9, sl, fp, pc}
  409fec:	9b28      	ldr	r3, [sp, #160]	; 0xa0
  409fee:	4889      	ldr	r0, [pc, #548]	; (40a214 <_dtoa_r+0x2b4>)
  409ff0:	2b00      	cmp	r3, #0
  409ff2:	d0e3      	beq.n	409fbc <_dtoa_r+0x5c>
  409ff4:	1cc3      	adds	r3, r0, #3
  409ff6:	e7f4      	b.n	409fe2 <_dtoa_r+0x82>
  409ff8:	2301      	movs	r3, #1
  409ffa:	f02b 4500 	bic.w	r5, fp, #2147483648	; 0x80000000
  409ffe:	6033      	str	r3, [r6, #0]
  40a000:	46ab      	mov	fp, r5
  40a002:	e7c5      	b.n	409f90 <_dtoa_r+0x30>
  40a004:	aa18      	add	r2, sp, #96	; 0x60
  40a006:	ab19      	add	r3, sp, #100	; 0x64
  40a008:	9201      	str	r2, [sp, #4]
  40a00a:	9300      	str	r3, [sp, #0]
  40a00c:	4652      	mov	r2, sl
  40a00e:	465b      	mov	r3, fp
  40a010:	4620      	mov	r0, r4
  40a012:	f002 fa43 	bl	40c49c <__d2b>
  40a016:	0d2b      	lsrs	r3, r5, #20
  40a018:	4681      	mov	r9, r0
  40a01a:	d071      	beq.n	40a100 <_dtoa_r+0x1a0>
  40a01c:	f3cb 0213 	ubfx	r2, fp, #0, #20
  40a020:	f042 517f 	orr.w	r1, r2, #1069547520	; 0x3fc00000
  40a024:	9f18      	ldr	r7, [sp, #96]	; 0x60
  40a026:	f8cd 8050 	str.w	r8, [sp, #80]	; 0x50
  40a02a:	4650      	mov	r0, sl
  40a02c:	f2a3 36ff 	subw	r6, r3, #1023	; 0x3ff
  40a030:	f441 1140 	orr.w	r1, r1, #3145728	; 0x300000
  40a034:	2200      	movs	r2, #0
  40a036:	4b78      	ldr	r3, [pc, #480]	; (40a218 <_dtoa_r+0x2b8>)
  40a038:	f7fc fe56 	bl	406ce8 <__aeabi_dsub>
  40a03c:	a36c      	add	r3, pc, #432	; (adr r3, 40a1f0 <_dtoa_r+0x290>)
  40a03e:	e9d3 2300 	ldrd	r2, r3, [r3]
  40a042:	f7fd f805 	bl	407050 <__aeabi_dmul>
  40a046:	a36c      	add	r3, pc, #432	; (adr r3, 40a1f8 <_dtoa_r+0x298>)
  40a048:	e9d3 2300 	ldrd	r2, r3, [r3]
  40a04c:	f7fc fe4e 	bl	406cec <__adddf3>
  40a050:	e9cd 0102 	strd	r0, r1, [sp, #8]
  40a054:	4630      	mov	r0, r6
  40a056:	f7fc ff95 	bl	406f84 <__aeabi_i2d>
  40a05a:	a369      	add	r3, pc, #420	; (adr r3, 40a200 <_dtoa_r+0x2a0>)
  40a05c:	e9d3 2300 	ldrd	r2, r3, [r3]
  40a060:	f7fc fff6 	bl	407050 <__aeabi_dmul>
  40a064:	4602      	mov	r2, r0
  40a066:	460b      	mov	r3, r1
  40a068:	e9dd 0102 	ldrd	r0, r1, [sp, #8]
  40a06c:	f7fc fe3e 	bl	406cec <__adddf3>
  40a070:	e9cd 0104 	strd	r0, r1, [sp, #16]
  40a074:	f7fd f9fe 	bl	407474 <__aeabi_d2iz>
  40a078:	2200      	movs	r2, #0
  40a07a:	9002      	str	r0, [sp, #8]
  40a07c:	2300      	movs	r3, #0
  40a07e:	e9dd 0104 	ldrd	r0, r1, [sp, #16]
  40a082:	f002 ff3f 	bl	40cf04 <__aeabi_dcmplt>
  40a086:	2800      	cmp	r0, #0
  40a088:	f040 8173 	bne.w	40a372 <_dtoa_r+0x412>
  40a08c:	9d02      	ldr	r5, [sp, #8]
  40a08e:	2d16      	cmp	r5, #22
  40a090:	f200 815d 	bhi.w	40a34e <_dtoa_r+0x3ee>
  40a094:	4b61      	ldr	r3, [pc, #388]	; (40a21c <_dtoa_r+0x2bc>)
  40a096:	eb03 03c5 	add.w	r3, r3, r5, lsl #3
  40a09a:	e9d3 0100 	ldrd	r0, r1, [r3]
  40a09e:	4652      	mov	r2, sl
  40a0a0:	465b      	mov	r3, fp
  40a0a2:	f002 ff4d 	bl	40cf40 <__aeabi_dcmpgt>
  40a0a6:	2800      	cmp	r0, #0
  40a0a8:	f000 81c5 	beq.w	40a436 <_dtoa_r+0x4d6>
  40a0ac:	1e6b      	subs	r3, r5, #1
  40a0ae:	9302      	str	r3, [sp, #8]
  40a0b0:	2300      	movs	r3, #0
  40a0b2:	930e      	str	r3, [sp, #56]	; 0x38
  40a0b4:	1bbf      	subs	r7, r7, r6
  40a0b6:	1e7b      	subs	r3, r7, #1
  40a0b8:	9306      	str	r3, [sp, #24]
  40a0ba:	f100 8154 	bmi.w	40a366 <_dtoa_r+0x406>
  40a0be:	2300      	movs	r3, #0
  40a0c0:	9308      	str	r3, [sp, #32]
  40a0c2:	9b02      	ldr	r3, [sp, #8]
  40a0c4:	2b00      	cmp	r3, #0
  40a0c6:	f2c0 8145 	blt.w	40a354 <_dtoa_r+0x3f4>
  40a0ca:	9a06      	ldr	r2, [sp, #24]
  40a0cc:	930d      	str	r3, [sp, #52]	; 0x34
  40a0ce:	4611      	mov	r1, r2
  40a0d0:	4419      	add	r1, r3
  40a0d2:	2300      	movs	r3, #0
  40a0d4:	9106      	str	r1, [sp, #24]
  40a0d6:	930c      	str	r3, [sp, #48]	; 0x30
  40a0d8:	9b24      	ldr	r3, [sp, #144]	; 0x90
  40a0da:	2b09      	cmp	r3, #9
  40a0dc:	d82a      	bhi.n	40a134 <_dtoa_r+0x1d4>
  40a0de:	2b05      	cmp	r3, #5
  40a0e0:	f340 865b 	ble.w	40ad9a <_dtoa_r+0xe3a>
  40a0e4:	3b04      	subs	r3, #4
  40a0e6:	9324      	str	r3, [sp, #144]	; 0x90
  40a0e8:	2500      	movs	r5, #0
  40a0ea:	9b24      	ldr	r3, [sp, #144]	; 0x90
  40a0ec:	3b02      	subs	r3, #2
  40a0ee:	2b03      	cmp	r3, #3
  40a0f0:	f200 8642 	bhi.w	40ad78 <_dtoa_r+0xe18>
  40a0f4:	e8df f013 	tbh	[pc, r3, lsl #1]
  40a0f8:	02c903d4 	.word	0x02c903d4
  40a0fc:	046103df 	.word	0x046103df
  40a100:	9f18      	ldr	r7, [sp, #96]	; 0x60
  40a102:	9e19      	ldr	r6, [sp, #100]	; 0x64
  40a104:	443e      	add	r6, r7
  40a106:	f206 4332 	addw	r3, r6, #1074	; 0x432
  40a10a:	2b20      	cmp	r3, #32
  40a10c:	f340 818e 	ble.w	40a42c <_dtoa_r+0x4cc>
  40a110:	f1c3 0340 	rsb	r3, r3, #64	; 0x40
  40a114:	f206 4012 	addw	r0, r6, #1042	; 0x412
  40a118:	409d      	lsls	r5, r3
  40a11a:	fa2a f000 	lsr.w	r0, sl, r0
  40a11e:	4328      	orrs	r0, r5
  40a120:	f7fc ff20 	bl	406f64 <__aeabi_ui2d>
  40a124:	2301      	movs	r3, #1
  40a126:	3e01      	subs	r6, #1
  40a128:	f1a1 71f8 	sub.w	r1, r1, #32505856	; 0x1f00000
  40a12c:	9314      	str	r3, [sp, #80]	; 0x50
  40a12e:	e781      	b.n	40a034 <_dtoa_r+0xd4>
  40a130:	483b      	ldr	r0, [pc, #236]	; (40a220 <_dtoa_r+0x2c0>)
  40a132:	e743      	b.n	409fbc <_dtoa_r+0x5c>
  40a134:	2100      	movs	r1, #0
  40a136:	6461      	str	r1, [r4, #68]	; 0x44
  40a138:	4620      	mov	r0, r4
  40a13a:	9125      	str	r1, [sp, #148]	; 0x94
  40a13c:	f001 ff10 	bl	40bf60 <_Balloc>
  40a140:	f04f 33ff 	mov.w	r3, #4294967295
  40a144:	930a      	str	r3, [sp, #40]	; 0x28
  40a146:	9a25      	ldr	r2, [sp, #148]	; 0x94
  40a148:	930f      	str	r3, [sp, #60]	; 0x3c
  40a14a:	2301      	movs	r3, #1
  40a14c:	9004      	str	r0, [sp, #16]
  40a14e:	6420      	str	r0, [r4, #64]	; 0x40
  40a150:	9224      	str	r2, [sp, #144]	; 0x90
  40a152:	930b      	str	r3, [sp, #44]	; 0x2c
  40a154:	9b19      	ldr	r3, [sp, #100]	; 0x64
  40a156:	2b00      	cmp	r3, #0
  40a158:	f2c0 80d9 	blt.w	40a30e <_dtoa_r+0x3ae>
  40a15c:	9a02      	ldr	r2, [sp, #8]
  40a15e:	2a0e      	cmp	r2, #14
  40a160:	f300 80d5 	bgt.w	40a30e <_dtoa_r+0x3ae>
  40a164:	4b2d      	ldr	r3, [pc, #180]	; (40a21c <_dtoa_r+0x2bc>)
  40a166:	eb03 03c2 	add.w	r3, r3, r2, lsl #3
  40a16a:	e9d3 2300 	ldrd	r2, r3, [r3]
  40a16e:	e9cd 2308 	strd	r2, r3, [sp, #32]
  40a172:	9b25      	ldr	r3, [sp, #148]	; 0x94
  40a174:	2b00      	cmp	r3, #0
  40a176:	f2c0 83ba 	blt.w	40a8ee <_dtoa_r+0x98e>
  40a17a:	e9dd 5608 	ldrd	r5, r6, [sp, #32]
  40a17e:	4650      	mov	r0, sl
  40a180:	462a      	mov	r2, r5
  40a182:	4633      	mov	r3, r6
  40a184:	4659      	mov	r1, fp
  40a186:	f7fd f88d 	bl	4072a4 <__aeabi_ddiv>
  40a18a:	f7fd f973 	bl	407474 <__aeabi_d2iz>
  40a18e:	4680      	mov	r8, r0
  40a190:	f7fc fef8 	bl	406f84 <__aeabi_i2d>
  40a194:	462a      	mov	r2, r5
  40a196:	4633      	mov	r3, r6
  40a198:	f7fc ff5a 	bl	407050 <__aeabi_dmul>
  40a19c:	460b      	mov	r3, r1
  40a19e:	4602      	mov	r2, r0
  40a1a0:	4659      	mov	r1, fp
  40a1a2:	4650      	mov	r0, sl
  40a1a4:	f7fc fda0 	bl	406ce8 <__aeabi_dsub>
  40a1a8:	9d04      	ldr	r5, [sp, #16]
  40a1aa:	f108 0330 	add.w	r3, r8, #48	; 0x30
  40a1ae:	702b      	strb	r3, [r5, #0]
  40a1b0:	9b0a      	ldr	r3, [sp, #40]	; 0x28
  40a1b2:	2b01      	cmp	r3, #1
  40a1b4:	4606      	mov	r6, r0
  40a1b6:	460f      	mov	r7, r1
  40a1b8:	f105 0501 	add.w	r5, r5, #1
  40a1bc:	d068      	beq.n	40a290 <_dtoa_r+0x330>
  40a1be:	2200      	movs	r2, #0
  40a1c0:	4b18      	ldr	r3, [pc, #96]	; (40a224 <_dtoa_r+0x2c4>)
  40a1c2:	f7fc ff45 	bl	407050 <__aeabi_dmul>
  40a1c6:	2200      	movs	r2, #0
  40a1c8:	2300      	movs	r3, #0
  40a1ca:	4606      	mov	r6, r0
  40a1cc:	460f      	mov	r7, r1
  40a1ce:	f002 fe8f 	bl	40cef0 <__aeabi_dcmpeq>
  40a1d2:	2800      	cmp	r0, #0
  40a1d4:	f040 8088 	bne.w	40a2e8 <_dtoa_r+0x388>
  40a1d8:	f8cd 902c 	str.w	r9, [sp, #44]	; 0x2c
  40a1dc:	f04f 0a00 	mov.w	sl, #0
  40a1e0:	f8df b040 	ldr.w	fp, [pc, #64]	; 40a224 <_dtoa_r+0x2c4>
  40a1e4:	940c      	str	r4, [sp, #48]	; 0x30
  40a1e6:	e9dd 8908 	ldrd	r8, r9, [sp, #32]
  40a1ea:	e028      	b.n	40a23e <_dtoa_r+0x2de>
  40a1ec:	f3af 8000 	nop.w
  40a1f0:	636f4361 	.word	0x636f4361
  40a1f4:	3fd287a7 	.word	0x3fd287a7
  40a1f8:	8b60c8b3 	.word	0x8b60c8b3
  40a1fc:	3fc68a28 	.word	0x3fc68a28
  40a200:	509f79fb 	.word	0x509f79fb
  40a204:	3fd34413 	.word	0x3fd34413
  40a208:	7ff00000 	.word	0x7ff00000
  40a20c:	0040e2e5 	.word	0x0040e2e5
  40a210:	0040e328 	.word	0x0040e328
  40a214:	0040e334 	.word	0x0040e334
  40a218:	3ff80000 	.word	0x3ff80000
  40a21c:	0040e370 	.word	0x0040e370
  40a220:	0040e2e4 	.word	0x0040e2e4
  40a224:	40240000 	.word	0x40240000
  40a228:	f7fc ff12 	bl	407050 <__aeabi_dmul>
  40a22c:	2200      	movs	r2, #0
  40a22e:	2300      	movs	r3, #0
  40a230:	4606      	mov	r6, r0
  40a232:	460f      	mov	r7, r1
  40a234:	f002 fe5c 	bl	40cef0 <__aeabi_dcmpeq>
  40a238:	2800      	cmp	r0, #0
  40a23a:	f040 83c1 	bne.w	40a9c0 <_dtoa_r+0xa60>
  40a23e:	4642      	mov	r2, r8
  40a240:	464b      	mov	r3, r9
  40a242:	4630      	mov	r0, r6
  40a244:	4639      	mov	r1, r7
  40a246:	f7fd f82d 	bl	4072a4 <__aeabi_ddiv>
  40a24a:	f7fd f913 	bl	407474 <__aeabi_d2iz>
  40a24e:	4604      	mov	r4, r0
  40a250:	f7fc fe98 	bl	406f84 <__aeabi_i2d>
  40a254:	4642      	mov	r2, r8
  40a256:	464b      	mov	r3, r9
  40a258:	f7fc fefa 	bl	407050 <__aeabi_dmul>
  40a25c:	4602      	mov	r2, r0
  40a25e:	460b      	mov	r3, r1
  40a260:	4630      	mov	r0, r6
  40a262:	4639      	mov	r1, r7
  40a264:	f7fc fd40 	bl	406ce8 <__aeabi_dsub>
  40a268:	f104 0e30 	add.w	lr, r4, #48	; 0x30
  40a26c:	9e04      	ldr	r6, [sp, #16]
  40a26e:	f805 eb01 	strb.w	lr, [r5], #1
  40a272:	eba5 0e06 	sub.w	lr, r5, r6
  40a276:	9e0a      	ldr	r6, [sp, #40]	; 0x28
  40a278:	45b6      	cmp	lr, r6
  40a27a:	e9cd 0106 	strd	r0, r1, [sp, #24]
  40a27e:	4652      	mov	r2, sl
  40a280:	465b      	mov	r3, fp
  40a282:	d1d1      	bne.n	40a228 <_dtoa_r+0x2c8>
  40a284:	46a0      	mov	r8, r4
  40a286:	f8dd 902c 	ldr.w	r9, [sp, #44]	; 0x2c
  40a28a:	9c0c      	ldr	r4, [sp, #48]	; 0x30
  40a28c:	4606      	mov	r6, r0
  40a28e:	460f      	mov	r7, r1
  40a290:	4632      	mov	r2, r6
  40a292:	463b      	mov	r3, r7
  40a294:	4630      	mov	r0, r6
  40a296:	4639      	mov	r1, r7
  40a298:	f7fc fd28 	bl	406cec <__adddf3>
  40a29c:	4606      	mov	r6, r0
  40a29e:	460f      	mov	r7, r1
  40a2a0:	4602      	mov	r2, r0
  40a2a2:	460b      	mov	r3, r1
  40a2a4:	e9dd 0108 	ldrd	r0, r1, [sp, #32]
  40a2a8:	f002 fe2c 	bl	40cf04 <__aeabi_dcmplt>
  40a2ac:	b948      	cbnz	r0, 40a2c2 <_dtoa_r+0x362>
  40a2ae:	4632      	mov	r2, r6
  40a2b0:	463b      	mov	r3, r7
  40a2b2:	e9dd 0108 	ldrd	r0, r1, [sp, #32]
  40a2b6:	f002 fe1b 	bl	40cef0 <__aeabi_dcmpeq>
  40a2ba:	b1a8      	cbz	r0, 40a2e8 <_dtoa_r+0x388>
  40a2bc:	f018 0f01 	tst.w	r8, #1
  40a2c0:	d012      	beq.n	40a2e8 <_dtoa_r+0x388>
  40a2c2:	f815 8c01 	ldrb.w	r8, [r5, #-1]
  40a2c6:	9a04      	ldr	r2, [sp, #16]
  40a2c8:	1e6b      	subs	r3, r5, #1
  40a2ca:	e004      	b.n	40a2d6 <_dtoa_r+0x376>
  40a2cc:	429a      	cmp	r2, r3
  40a2ce:	f000 8401 	beq.w	40aad4 <_dtoa_r+0xb74>
  40a2d2:	f813 8d01 	ldrb.w	r8, [r3, #-1]!
  40a2d6:	f1b8 0f39 	cmp.w	r8, #57	; 0x39
  40a2da:	f103 0501 	add.w	r5, r3, #1
  40a2de:	d0f5      	beq.n	40a2cc <_dtoa_r+0x36c>
  40a2e0:	f108 0801 	add.w	r8, r8, #1
  40a2e4:	f883 8000 	strb.w	r8, [r3]
  40a2e8:	4649      	mov	r1, r9
  40a2ea:	4620      	mov	r0, r4
  40a2ec:	f001 fe5e 	bl	40bfac <_Bfree>
  40a2f0:	2200      	movs	r2, #0
  40a2f2:	9b02      	ldr	r3, [sp, #8]
  40a2f4:	702a      	strb	r2, [r5, #0]
  40a2f6:	9a26      	ldr	r2, [sp, #152]	; 0x98
  40a2f8:	3301      	adds	r3, #1
  40a2fa:	6013      	str	r3, [r2, #0]
  40a2fc:	9b28      	ldr	r3, [sp, #160]	; 0xa0
  40a2fe:	2b00      	cmp	r3, #0
  40a300:	f000 839e 	beq.w	40aa40 <_dtoa_r+0xae0>
  40a304:	9804      	ldr	r0, [sp, #16]
  40a306:	601d      	str	r5, [r3, #0]
  40a308:	b01b      	add	sp, #108	; 0x6c
  40a30a:	e8bd 8ff0 	ldmia.w	sp!, {r4, r5, r6, r7, r8, r9, sl, fp, pc}
  40a30e:	9a0b      	ldr	r2, [sp, #44]	; 0x2c
  40a310:	2a00      	cmp	r2, #0
  40a312:	d03e      	beq.n	40a392 <_dtoa_r+0x432>
  40a314:	9a24      	ldr	r2, [sp, #144]	; 0x90
  40a316:	2a01      	cmp	r2, #1
  40a318:	f340 8311 	ble.w	40a93e <_dtoa_r+0x9de>
  40a31c:	9b0a      	ldr	r3, [sp, #40]	; 0x28
  40a31e:	9a0c      	ldr	r2, [sp, #48]	; 0x30
  40a320:	1e5f      	subs	r7, r3, #1
  40a322:	42ba      	cmp	r2, r7
  40a324:	f2c0 838f 	blt.w	40aa46 <_dtoa_r+0xae6>
  40a328:	1bd7      	subs	r7, r2, r7
  40a32a:	9b0a      	ldr	r3, [sp, #40]	; 0x28
  40a32c:	2b00      	cmp	r3, #0
  40a32e:	f2c0 848b 	blt.w	40ac48 <_dtoa_r+0xce8>
  40a332:	9d08      	ldr	r5, [sp, #32]
  40a334:	9b0a      	ldr	r3, [sp, #40]	; 0x28
  40a336:	9a08      	ldr	r2, [sp, #32]
  40a338:	441a      	add	r2, r3
  40a33a:	9208      	str	r2, [sp, #32]
  40a33c:	9a06      	ldr	r2, [sp, #24]
  40a33e:	2101      	movs	r1, #1
  40a340:	441a      	add	r2, r3
  40a342:	4620      	mov	r0, r4
  40a344:	9206      	str	r2, [sp, #24]
  40a346:	f001 fecb 	bl	40c0e0 <__i2b>
  40a34a:	4606      	mov	r6, r0
  40a34c:	e024      	b.n	40a398 <_dtoa_r+0x438>
  40a34e:	2301      	movs	r3, #1
  40a350:	930e      	str	r3, [sp, #56]	; 0x38
  40a352:	e6af      	b.n	40a0b4 <_dtoa_r+0x154>
  40a354:	9a08      	ldr	r2, [sp, #32]
  40a356:	9b02      	ldr	r3, [sp, #8]
  40a358:	1ad2      	subs	r2, r2, r3
  40a35a:	425b      	negs	r3, r3
  40a35c:	930c      	str	r3, [sp, #48]	; 0x30
  40a35e:	2300      	movs	r3, #0
  40a360:	9208      	str	r2, [sp, #32]
  40a362:	930d      	str	r3, [sp, #52]	; 0x34
  40a364:	e6b8      	b.n	40a0d8 <_dtoa_r+0x178>
  40a366:	f1c7 0301 	rsb	r3, r7, #1
  40a36a:	9308      	str	r3, [sp, #32]
  40a36c:	2300      	movs	r3, #0
  40a36e:	9306      	str	r3, [sp, #24]
  40a370:	e6a7      	b.n	40a0c2 <_dtoa_r+0x162>
  40a372:	9d02      	ldr	r5, [sp, #8]
  40a374:	4628      	mov	r0, r5
  40a376:	f7fc fe05 	bl	406f84 <__aeabi_i2d>
  40a37a:	4602      	mov	r2, r0
  40a37c:	460b      	mov	r3, r1
  40a37e:	e9dd 0104 	ldrd	r0, r1, [sp, #16]
  40a382:	f002 fdb5 	bl	40cef0 <__aeabi_dcmpeq>
  40a386:	2800      	cmp	r0, #0
  40a388:	f47f ae80 	bne.w	40a08c <_dtoa_r+0x12c>
  40a38c:	1e6b      	subs	r3, r5, #1
  40a38e:	9302      	str	r3, [sp, #8]
  40a390:	e67c      	b.n	40a08c <_dtoa_r+0x12c>
  40a392:	9f0c      	ldr	r7, [sp, #48]	; 0x30
  40a394:	9d08      	ldr	r5, [sp, #32]
  40a396:	9e0b      	ldr	r6, [sp, #44]	; 0x2c
  40a398:	2d00      	cmp	r5, #0
  40a39a:	dd0c      	ble.n	40a3b6 <_dtoa_r+0x456>
  40a39c:	9906      	ldr	r1, [sp, #24]
  40a39e:	2900      	cmp	r1, #0
  40a3a0:	460b      	mov	r3, r1
  40a3a2:	dd08      	ble.n	40a3b6 <_dtoa_r+0x456>
  40a3a4:	42a9      	cmp	r1, r5
  40a3a6:	9a08      	ldr	r2, [sp, #32]
  40a3a8:	bfa8      	it	ge
  40a3aa:	462b      	movge	r3, r5
  40a3ac:	1ad2      	subs	r2, r2, r3
  40a3ae:	1aed      	subs	r5, r5, r3
  40a3b0:	1acb      	subs	r3, r1, r3
  40a3b2:	9208      	str	r2, [sp, #32]
  40a3b4:	9306      	str	r3, [sp, #24]
  40a3b6:	9b0c      	ldr	r3, [sp, #48]	; 0x30
  40a3b8:	b1d3      	cbz	r3, 40a3f0 <_dtoa_r+0x490>
  40a3ba:	9b0b      	ldr	r3, [sp, #44]	; 0x2c
  40a3bc:	2b00      	cmp	r3, #0
  40a3be:	f000 82b7 	beq.w	40a930 <_dtoa_r+0x9d0>
  40a3c2:	2f00      	cmp	r7, #0
  40a3c4:	dd10      	ble.n	40a3e8 <_dtoa_r+0x488>
  40a3c6:	4631      	mov	r1, r6
  40a3c8:	463a      	mov	r2, r7
  40a3ca:	4620      	mov	r0, r4
  40a3cc:	f001 ff24 	bl	40c218 <__pow5mult>
  40a3d0:	464a      	mov	r2, r9
  40a3d2:	4601      	mov	r1, r0
  40a3d4:	4606      	mov	r6, r0
  40a3d6:	4620      	mov	r0, r4
  40a3d8:	f001 fe8c 	bl	40c0f4 <__multiply>
  40a3dc:	4649      	mov	r1, r9
  40a3de:	4680      	mov	r8, r0
  40a3e0:	4620      	mov	r0, r4
  40a3e2:	f001 fde3 	bl	40bfac <_Bfree>
  40a3e6:	46c1      	mov	r9, r8
  40a3e8:	9b0c      	ldr	r3, [sp, #48]	; 0x30
  40a3ea:	1bda      	subs	r2, r3, r7
  40a3ec:	f040 82a1 	bne.w	40a932 <_dtoa_r+0x9d2>
  40a3f0:	2101      	movs	r1, #1
  40a3f2:	4620      	mov	r0, r4
  40a3f4:	f001 fe74 	bl	40c0e0 <__i2b>
  40a3f8:	9b0d      	ldr	r3, [sp, #52]	; 0x34
  40a3fa:	2b00      	cmp	r3, #0
  40a3fc:	4680      	mov	r8, r0
  40a3fe:	dd1c      	ble.n	40a43a <_dtoa_r+0x4da>
  40a400:	4601      	mov	r1, r0
  40a402:	461a      	mov	r2, r3
  40a404:	4620      	mov	r0, r4
  40a406:	f001 ff07 	bl	40c218 <__pow5mult>
  40a40a:	9b24      	ldr	r3, [sp, #144]	; 0x90
  40a40c:	2b01      	cmp	r3, #1
  40a40e:	4680      	mov	r8, r0
  40a410:	f340 8254 	ble.w	40a8bc <_dtoa_r+0x95c>
  40a414:	2300      	movs	r3, #0
  40a416:	930c      	str	r3, [sp, #48]	; 0x30
  40a418:	f8d8 3010 	ldr.w	r3, [r8, #16]
  40a41c:	eb08 0383 	add.w	r3, r8, r3, lsl #2
  40a420:	6918      	ldr	r0, [r3, #16]
  40a422:	f001 fe0d 	bl	40c040 <__hi0bits>
  40a426:	f1c0 0020 	rsb	r0, r0, #32
  40a42a:	e010      	b.n	40a44e <_dtoa_r+0x4ee>
  40a42c:	f1c3 0520 	rsb	r5, r3, #32
  40a430:	fa0a f005 	lsl.w	r0, sl, r5
  40a434:	e674      	b.n	40a120 <_dtoa_r+0x1c0>
  40a436:	900e      	str	r0, [sp, #56]	; 0x38
  40a438:	e63c      	b.n	40a0b4 <_dtoa_r+0x154>
  40a43a:	9b24      	ldr	r3, [sp, #144]	; 0x90
  40a43c:	2b01      	cmp	r3, #1
  40a43e:	f340 8287 	ble.w	40a950 <_dtoa_r+0x9f0>
  40a442:	2300      	movs	r3, #0
  40a444:	930c      	str	r3, [sp, #48]	; 0x30
  40a446:	9b0d      	ldr	r3, [sp, #52]	; 0x34
  40a448:	2001      	movs	r0, #1
  40a44a:	2b00      	cmp	r3, #0
  40a44c:	d1e4      	bne.n	40a418 <_dtoa_r+0x4b8>
  40a44e:	9a06      	ldr	r2, [sp, #24]
  40a450:	4410      	add	r0, r2
  40a452:	f010 001f 	ands.w	r0, r0, #31
  40a456:	f000 80a1 	beq.w	40a59c <_dtoa_r+0x63c>
  40a45a:	f1c0 0320 	rsb	r3, r0, #32
  40a45e:	2b04      	cmp	r3, #4
  40a460:	f340 849e 	ble.w	40ada0 <_dtoa_r+0xe40>
  40a464:	9b08      	ldr	r3, [sp, #32]
  40a466:	f1c0 001c 	rsb	r0, r0, #28
  40a46a:	4403      	add	r3, r0
  40a46c:	9308      	str	r3, [sp, #32]
  40a46e:	4613      	mov	r3, r2
  40a470:	4403      	add	r3, r0
  40a472:	4405      	add	r5, r0
  40a474:	9306      	str	r3, [sp, #24]
  40a476:	9b08      	ldr	r3, [sp, #32]
  40a478:	2b00      	cmp	r3, #0
  40a47a:	dd05      	ble.n	40a488 <_dtoa_r+0x528>
  40a47c:	4649      	mov	r1, r9
  40a47e:	461a      	mov	r2, r3
  40a480:	4620      	mov	r0, r4
  40a482:	f001 ff19 	bl	40c2b8 <__lshift>
  40a486:	4681      	mov	r9, r0
  40a488:	9b06      	ldr	r3, [sp, #24]
  40a48a:	2b00      	cmp	r3, #0
  40a48c:	dd05      	ble.n	40a49a <_dtoa_r+0x53a>
  40a48e:	4641      	mov	r1, r8
  40a490:	461a      	mov	r2, r3
  40a492:	4620      	mov	r0, r4
  40a494:	f001 ff10 	bl	40c2b8 <__lshift>
  40a498:	4680      	mov	r8, r0
  40a49a:	9b0e      	ldr	r3, [sp, #56]	; 0x38
  40a49c:	2b00      	cmp	r3, #0
  40a49e:	f040 8086 	bne.w	40a5ae <_dtoa_r+0x64e>
  40a4a2:	9b0a      	ldr	r3, [sp, #40]	; 0x28
  40a4a4:	2b00      	cmp	r3, #0
  40a4a6:	f340 8266 	ble.w	40a976 <_dtoa_r+0xa16>
  40a4aa:	9b0b      	ldr	r3, [sp, #44]	; 0x2c
  40a4ac:	2b00      	cmp	r3, #0
  40a4ae:	f000 8098 	beq.w	40a5e2 <_dtoa_r+0x682>
  40a4b2:	2d00      	cmp	r5, #0
  40a4b4:	dd05      	ble.n	40a4c2 <_dtoa_r+0x562>
  40a4b6:	4631      	mov	r1, r6
  40a4b8:	462a      	mov	r2, r5
  40a4ba:	4620      	mov	r0, r4
  40a4bc:	f001 fefc 	bl	40c2b8 <__lshift>
  40a4c0:	4606      	mov	r6, r0
  40a4c2:	9b0c      	ldr	r3, [sp, #48]	; 0x30
  40a4c4:	2b00      	cmp	r3, #0
  40a4c6:	f040 8337 	bne.w	40ab38 <_dtoa_r+0xbd8>
  40a4ca:	9606      	str	r6, [sp, #24]
  40a4cc:	9b0a      	ldr	r3, [sp, #40]	; 0x28
  40a4ce:	9a04      	ldr	r2, [sp, #16]
  40a4d0:	f8dd b018 	ldr.w	fp, [sp, #24]
  40a4d4:	3b01      	subs	r3, #1
  40a4d6:	18d3      	adds	r3, r2, r3
  40a4d8:	930b      	str	r3, [sp, #44]	; 0x2c
  40a4da:	f00a 0301 	and.w	r3, sl, #1
  40a4de:	930c      	str	r3, [sp, #48]	; 0x30
  40a4e0:	4617      	mov	r7, r2
  40a4e2:	46c2      	mov	sl, r8
  40a4e4:	4651      	mov	r1, sl
  40a4e6:	4648      	mov	r0, r9
  40a4e8:	f7ff fca4 	bl	409e34 <quorem>
  40a4ec:	4631      	mov	r1, r6
  40a4ee:	4605      	mov	r5, r0
  40a4f0:	4648      	mov	r0, r9
  40a4f2:	f001 ff33 	bl	40c35c <__mcmp>
  40a4f6:	465a      	mov	r2, fp
  40a4f8:	900a      	str	r0, [sp, #40]	; 0x28
  40a4fa:	4651      	mov	r1, sl
  40a4fc:	4620      	mov	r0, r4
  40a4fe:	f001 ff49 	bl	40c394 <__mdiff>
  40a502:	68c2      	ldr	r2, [r0, #12]
  40a504:	4680      	mov	r8, r0
  40a506:	f105 0330 	add.w	r3, r5, #48	; 0x30
  40a50a:	2a00      	cmp	r2, #0
  40a50c:	f040 822b 	bne.w	40a966 <_dtoa_r+0xa06>
  40a510:	4601      	mov	r1, r0
  40a512:	4648      	mov	r0, r9
  40a514:	9308      	str	r3, [sp, #32]
  40a516:	f001 ff21 	bl	40c35c <__mcmp>
  40a51a:	4641      	mov	r1, r8
  40a51c:	9006      	str	r0, [sp, #24]
  40a51e:	4620      	mov	r0, r4
  40a520:	f001 fd44 	bl	40bfac <_Bfree>
  40a524:	9a06      	ldr	r2, [sp, #24]
  40a526:	9b08      	ldr	r3, [sp, #32]
  40a528:	b932      	cbnz	r2, 40a538 <_dtoa_r+0x5d8>
  40a52a:	9924      	ldr	r1, [sp, #144]	; 0x90
  40a52c:	b921      	cbnz	r1, 40a538 <_dtoa_r+0x5d8>
  40a52e:	9a0c      	ldr	r2, [sp, #48]	; 0x30
  40a530:	2a00      	cmp	r2, #0
  40a532:	f000 83ef 	beq.w	40ad14 <_dtoa_r+0xdb4>
  40a536:	9a24      	ldr	r2, [sp, #144]	; 0x90
  40a538:	990a      	ldr	r1, [sp, #40]	; 0x28
  40a53a:	2900      	cmp	r1, #0
  40a53c:	f2c0 829f 	blt.w	40aa7e <_dtoa_r+0xb1e>
  40a540:	d105      	bne.n	40a54e <_dtoa_r+0x5ee>
  40a542:	9924      	ldr	r1, [sp, #144]	; 0x90
  40a544:	b919      	cbnz	r1, 40a54e <_dtoa_r+0x5ee>
  40a546:	990c      	ldr	r1, [sp, #48]	; 0x30
  40a548:	2900      	cmp	r1, #0
  40a54a:	f000 8298 	beq.w	40aa7e <_dtoa_r+0xb1e>
  40a54e:	2a00      	cmp	r2, #0
  40a550:	f300 8306 	bgt.w	40ab60 <_dtoa_r+0xc00>
  40a554:	9a0b      	ldr	r2, [sp, #44]	; 0x2c
  40a556:	703b      	strb	r3, [r7, #0]
  40a558:	f107 0801 	add.w	r8, r7, #1
  40a55c:	4297      	cmp	r7, r2
  40a55e:	4645      	mov	r5, r8
  40a560:	f000 830c 	beq.w	40ab7c <_dtoa_r+0xc1c>
  40a564:	4649      	mov	r1, r9
  40a566:	2300      	movs	r3, #0
  40a568:	220a      	movs	r2, #10
  40a56a:	4620      	mov	r0, r4
  40a56c:	f001 fd28 	bl	40bfc0 <__multadd>
  40a570:	455e      	cmp	r6, fp
  40a572:	4681      	mov	r9, r0
  40a574:	4631      	mov	r1, r6
  40a576:	f04f 0300 	mov.w	r3, #0
  40a57a:	f04f 020a 	mov.w	r2, #10
  40a57e:	4620      	mov	r0, r4
  40a580:	f000 81eb 	beq.w	40a95a <_dtoa_r+0x9fa>
  40a584:	f001 fd1c 	bl	40bfc0 <__multadd>
  40a588:	4659      	mov	r1, fp
  40a58a:	4606      	mov	r6, r0
  40a58c:	2300      	movs	r3, #0
  40a58e:	220a      	movs	r2, #10
  40a590:	4620      	mov	r0, r4
  40a592:	f001 fd15 	bl	40bfc0 <__multadd>
  40a596:	4647      	mov	r7, r8
  40a598:	4683      	mov	fp, r0
  40a59a:	e7a3      	b.n	40a4e4 <_dtoa_r+0x584>
  40a59c:	201c      	movs	r0, #28
  40a59e:	9b08      	ldr	r3, [sp, #32]
  40a5a0:	4403      	add	r3, r0
  40a5a2:	9308      	str	r3, [sp, #32]
  40a5a4:	9b06      	ldr	r3, [sp, #24]
  40a5a6:	4403      	add	r3, r0
  40a5a8:	4405      	add	r5, r0
  40a5aa:	9306      	str	r3, [sp, #24]
  40a5ac:	e763      	b.n	40a476 <_dtoa_r+0x516>
  40a5ae:	4641      	mov	r1, r8
  40a5b0:	4648      	mov	r0, r9
  40a5b2:	f001 fed3 	bl	40c35c <__mcmp>
  40a5b6:	2800      	cmp	r0, #0
  40a5b8:	f6bf af73 	bge.w	40a4a2 <_dtoa_r+0x542>
  40a5bc:	9f02      	ldr	r7, [sp, #8]
  40a5be:	4649      	mov	r1, r9
  40a5c0:	2300      	movs	r3, #0
  40a5c2:	220a      	movs	r2, #10
  40a5c4:	4620      	mov	r0, r4
  40a5c6:	3f01      	subs	r7, #1
  40a5c8:	9702      	str	r7, [sp, #8]
  40a5ca:	f001 fcf9 	bl	40bfc0 <__multadd>
  40a5ce:	9b0b      	ldr	r3, [sp, #44]	; 0x2c
  40a5d0:	4681      	mov	r9, r0
  40a5d2:	2b00      	cmp	r3, #0
  40a5d4:	f040 83b6 	bne.w	40ad44 <_dtoa_r+0xde4>
  40a5d8:	9b0f      	ldr	r3, [sp, #60]	; 0x3c
  40a5da:	2b00      	cmp	r3, #0
  40a5dc:	f340 83bf 	ble.w	40ad5e <_dtoa_r+0xdfe>
  40a5e0:	930a      	str	r3, [sp, #40]	; 0x28
  40a5e2:	f8dd b010 	ldr.w	fp, [sp, #16]
  40a5e6:	9f0a      	ldr	r7, [sp, #40]	; 0x28
  40a5e8:	465d      	mov	r5, fp
  40a5ea:	e002      	b.n	40a5f2 <_dtoa_r+0x692>
  40a5ec:	f001 fce8 	bl	40bfc0 <__multadd>
  40a5f0:	4681      	mov	r9, r0
  40a5f2:	4641      	mov	r1, r8
  40a5f4:	4648      	mov	r0, r9
  40a5f6:	f7ff fc1d 	bl	409e34 <quorem>
  40a5fa:	f100 0a30 	add.w	sl, r0, #48	; 0x30
  40a5fe:	f805 ab01 	strb.w	sl, [r5], #1
  40a602:	eba5 030b 	sub.w	r3, r5, fp
  40a606:	42bb      	cmp	r3, r7
  40a608:	f04f 020a 	mov.w	r2, #10
  40a60c:	f04f 0300 	mov.w	r3, #0
  40a610:	4649      	mov	r1, r9
  40a612:	4620      	mov	r0, r4
  40a614:	dbea      	blt.n	40a5ec <_dtoa_r+0x68c>
  40a616:	9b04      	ldr	r3, [sp, #16]
  40a618:	9a0a      	ldr	r2, [sp, #40]	; 0x28
  40a61a:	2a01      	cmp	r2, #1
  40a61c:	bfac      	ite	ge
  40a61e:	189b      	addge	r3, r3, r2
  40a620:	3301      	addlt	r3, #1
  40a622:	461d      	mov	r5, r3
  40a624:	f04f 0b00 	mov.w	fp, #0
  40a628:	4649      	mov	r1, r9
  40a62a:	2201      	movs	r2, #1
  40a62c:	4620      	mov	r0, r4
  40a62e:	f001 fe43 	bl	40c2b8 <__lshift>
  40a632:	4641      	mov	r1, r8
  40a634:	4681      	mov	r9, r0
  40a636:	f001 fe91 	bl	40c35c <__mcmp>
  40a63a:	2800      	cmp	r0, #0
  40a63c:	f340 823d 	ble.w	40aaba <_dtoa_r+0xb5a>
  40a640:	f815 2c01 	ldrb.w	r2, [r5, #-1]
  40a644:	9904      	ldr	r1, [sp, #16]
  40a646:	1e6b      	subs	r3, r5, #1
  40a648:	e004      	b.n	40a654 <_dtoa_r+0x6f4>
  40a64a:	428b      	cmp	r3, r1
  40a64c:	f000 81ae 	beq.w	40a9ac <_dtoa_r+0xa4c>
  40a650:	f813 2d01 	ldrb.w	r2, [r3, #-1]!
  40a654:	2a39      	cmp	r2, #57	; 0x39
  40a656:	f103 0501 	add.w	r5, r3, #1
  40a65a:	d0f6      	beq.n	40a64a <_dtoa_r+0x6ea>
  40a65c:	3201      	adds	r2, #1
  40a65e:	701a      	strb	r2, [r3, #0]
  40a660:	4641      	mov	r1, r8
  40a662:	4620      	mov	r0, r4
  40a664:	f001 fca2 	bl	40bfac <_Bfree>
  40a668:	2e00      	cmp	r6, #0
  40a66a:	f43f ae3d 	beq.w	40a2e8 <_dtoa_r+0x388>
  40a66e:	f1bb 0f00 	cmp.w	fp, #0
  40a672:	d005      	beq.n	40a680 <_dtoa_r+0x720>
  40a674:	45b3      	cmp	fp, r6
  40a676:	d003      	beq.n	40a680 <_dtoa_r+0x720>
  40a678:	4659      	mov	r1, fp
  40a67a:	4620      	mov	r0, r4
  40a67c:	f001 fc96 	bl	40bfac <_Bfree>
  40a680:	4631      	mov	r1, r6
  40a682:	4620      	mov	r0, r4
  40a684:	f001 fc92 	bl	40bfac <_Bfree>
  40a688:	e62e      	b.n	40a2e8 <_dtoa_r+0x388>
  40a68a:	2300      	movs	r3, #0
  40a68c:	930b      	str	r3, [sp, #44]	; 0x2c
  40a68e:	9b02      	ldr	r3, [sp, #8]
  40a690:	9a25      	ldr	r2, [sp, #148]	; 0x94
  40a692:	4413      	add	r3, r2
  40a694:	930f      	str	r3, [sp, #60]	; 0x3c
  40a696:	3301      	adds	r3, #1
  40a698:	2b01      	cmp	r3, #1
  40a69a:	461f      	mov	r7, r3
  40a69c:	461e      	mov	r6, r3
  40a69e:	930a      	str	r3, [sp, #40]	; 0x28
  40a6a0:	bfb8      	it	lt
  40a6a2:	2701      	movlt	r7, #1
  40a6a4:	2100      	movs	r1, #0
  40a6a6:	2f17      	cmp	r7, #23
  40a6a8:	6461      	str	r1, [r4, #68]	; 0x44
  40a6aa:	d90a      	bls.n	40a6c2 <_dtoa_r+0x762>
  40a6ac:	2201      	movs	r2, #1
  40a6ae:	2304      	movs	r3, #4
  40a6b0:	005b      	lsls	r3, r3, #1
  40a6b2:	f103 0014 	add.w	r0, r3, #20
  40a6b6:	4287      	cmp	r7, r0
  40a6b8:	4611      	mov	r1, r2
  40a6ba:	f102 0201 	add.w	r2, r2, #1
  40a6be:	d2f7      	bcs.n	40a6b0 <_dtoa_r+0x750>
  40a6c0:	6461      	str	r1, [r4, #68]	; 0x44
  40a6c2:	4620      	mov	r0, r4
  40a6c4:	f001 fc4c 	bl	40bf60 <_Balloc>
  40a6c8:	2e0e      	cmp	r6, #14
  40a6ca:	9004      	str	r0, [sp, #16]
  40a6cc:	6420      	str	r0, [r4, #64]	; 0x40
  40a6ce:	f63f ad41 	bhi.w	40a154 <_dtoa_r+0x1f4>
  40a6d2:	2d00      	cmp	r5, #0
  40a6d4:	f43f ad3e 	beq.w	40a154 <_dtoa_r+0x1f4>
  40a6d8:	9902      	ldr	r1, [sp, #8]
  40a6da:	2900      	cmp	r1, #0
  40a6dc:	e9cd ab10 	strd	sl, fp, [sp, #64]	; 0x40
  40a6e0:	f340 8202 	ble.w	40aae8 <_dtoa_r+0xb88>
  40a6e4:	4bb8      	ldr	r3, [pc, #736]	; (40a9c8 <_dtoa_r+0xa68>)
  40a6e6:	f001 020f 	and.w	r2, r1, #15
  40a6ea:	110d      	asrs	r5, r1, #4
  40a6ec:	eb03 03c2 	add.w	r3, r3, r2, lsl #3
  40a6f0:	06e9      	lsls	r1, r5, #27
  40a6f2:	e9d3 6700 	ldrd	r6, r7, [r3]
  40a6f6:	f140 81ae 	bpl.w	40aa56 <_dtoa_r+0xaf6>
  40a6fa:	4bb4      	ldr	r3, [pc, #720]	; (40a9cc <_dtoa_r+0xa6c>)
  40a6fc:	4650      	mov	r0, sl
  40a6fe:	4659      	mov	r1, fp
  40a700:	e9d3 2308 	ldrd	r2, r3, [r3, #32]
  40a704:	f7fc fdce 	bl	4072a4 <__aeabi_ddiv>
  40a708:	e9cd 0112 	strd	r0, r1, [sp, #72]	; 0x48
  40a70c:	f005 050f 	and.w	r5, r5, #15
  40a710:	f04f 0a03 	mov.w	sl, #3
  40a714:	b18d      	cbz	r5, 40a73a <_dtoa_r+0x7da>
  40a716:	f8df 82b4 	ldr.w	r8, [pc, #692]	; 40a9cc <_dtoa_r+0xa6c>
  40a71a:	07ea      	lsls	r2, r5, #31
  40a71c:	d509      	bpl.n	40a732 <_dtoa_r+0x7d2>
  40a71e:	4630      	mov	r0, r6
  40a720:	4639      	mov	r1, r7
  40a722:	e9d8 2300 	ldrd	r2, r3, [r8]
  40a726:	f7fc fc93 	bl	407050 <__aeabi_dmul>
  40a72a:	f10a 0a01 	add.w	sl, sl, #1
  40a72e:	4606      	mov	r6, r0
  40a730:	460f      	mov	r7, r1
  40a732:	106d      	asrs	r5, r5, #1
  40a734:	f108 0808 	add.w	r8, r8, #8
  40a738:	d1ef      	bne.n	40a71a <_dtoa_r+0x7ba>
  40a73a:	463b      	mov	r3, r7
  40a73c:	4632      	mov	r2, r6
  40a73e:	e9dd 0112 	ldrd	r0, r1, [sp, #72]	; 0x48
  40a742:	f7fc fdaf 	bl	4072a4 <__aeabi_ddiv>
  40a746:	4607      	mov	r7, r0
  40a748:	4688      	mov	r8, r1
  40a74a:	9b0e      	ldr	r3, [sp, #56]	; 0x38
  40a74c:	b143      	cbz	r3, 40a760 <_dtoa_r+0x800>
  40a74e:	2200      	movs	r2, #0
  40a750:	4b9f      	ldr	r3, [pc, #636]	; (40a9d0 <_dtoa_r+0xa70>)
  40a752:	4638      	mov	r0, r7
  40a754:	4641      	mov	r1, r8
  40a756:	f002 fbd5 	bl	40cf04 <__aeabi_dcmplt>
  40a75a:	2800      	cmp	r0, #0
  40a75c:	f040 8286 	bne.w	40ac6c <_dtoa_r+0xd0c>
  40a760:	4650      	mov	r0, sl
  40a762:	f7fc fc0f 	bl	406f84 <__aeabi_i2d>
  40a766:	463a      	mov	r2, r7
  40a768:	4643      	mov	r3, r8
  40a76a:	f7fc fc71 	bl	407050 <__aeabi_dmul>
  40a76e:	4b99      	ldr	r3, [pc, #612]	; (40a9d4 <_dtoa_r+0xa74>)
  40a770:	2200      	movs	r2, #0
  40a772:	f7fc fabb 	bl	406cec <__adddf3>
  40a776:	9b0a      	ldr	r3, [sp, #40]	; 0x28
  40a778:	4605      	mov	r5, r0
  40a77a:	f1a1 7650 	sub.w	r6, r1, #54525952	; 0x3400000
  40a77e:	2b00      	cmp	r3, #0
  40a780:	f000 813e 	beq.w	40aa00 <_dtoa_r+0xaa0>
  40a784:	9b02      	ldr	r3, [sp, #8]
  40a786:	9315      	str	r3, [sp, #84]	; 0x54
  40a788:	9b0a      	ldr	r3, [sp, #40]	; 0x28
  40a78a:	9312      	str	r3, [sp, #72]	; 0x48
  40a78c:	9b0b      	ldr	r3, [sp, #44]	; 0x2c
  40a78e:	2b00      	cmp	r3, #0
  40a790:	f000 81fa 	beq.w	40ab88 <_dtoa_r+0xc28>
  40a794:	9a12      	ldr	r2, [sp, #72]	; 0x48
  40a796:	4b8c      	ldr	r3, [pc, #560]	; (40a9c8 <_dtoa_r+0xa68>)
  40a798:	498f      	ldr	r1, [pc, #572]	; (40a9d8 <_dtoa_r+0xa78>)
  40a79a:	eb03 03c2 	add.w	r3, r3, r2, lsl #3
  40a79e:	e953 2302 	ldrd	r2, r3, [r3, #-8]
  40a7a2:	2000      	movs	r0, #0
  40a7a4:	f7fc fd7e 	bl	4072a4 <__aeabi_ddiv>
  40a7a8:	462a      	mov	r2, r5
  40a7aa:	4633      	mov	r3, r6
  40a7ac:	f7fc fa9c 	bl	406ce8 <__aeabi_dsub>
  40a7b0:	4682      	mov	sl, r0
  40a7b2:	468b      	mov	fp, r1
  40a7b4:	4638      	mov	r0, r7
  40a7b6:	4641      	mov	r1, r8
  40a7b8:	f7fc fe5c 	bl	407474 <__aeabi_d2iz>
  40a7bc:	4605      	mov	r5, r0
  40a7be:	f7fc fbe1 	bl	406f84 <__aeabi_i2d>
  40a7c2:	4602      	mov	r2, r0
  40a7c4:	460b      	mov	r3, r1
  40a7c6:	4638      	mov	r0, r7
  40a7c8:	4641      	mov	r1, r8
  40a7ca:	f7fc fa8d 	bl	406ce8 <__aeabi_dsub>
  40a7ce:	3530      	adds	r5, #48	; 0x30
  40a7d0:	fa5f f885 	uxtb.w	r8, r5
  40a7d4:	9d04      	ldr	r5, [sp, #16]
  40a7d6:	4606      	mov	r6, r0
  40a7d8:	460f      	mov	r7, r1
  40a7da:	f885 8000 	strb.w	r8, [r5]
  40a7de:	4602      	mov	r2, r0
  40a7e0:	460b      	mov	r3, r1
  40a7e2:	4650      	mov	r0, sl
  40a7e4:	4659      	mov	r1, fp
  40a7e6:	3501      	adds	r5, #1
  40a7e8:	f002 fbaa 	bl	40cf40 <__aeabi_dcmpgt>
  40a7ec:	2800      	cmp	r0, #0
  40a7ee:	d154      	bne.n	40a89a <_dtoa_r+0x93a>
  40a7f0:	4632      	mov	r2, r6
  40a7f2:	463b      	mov	r3, r7
  40a7f4:	2000      	movs	r0, #0
  40a7f6:	4976      	ldr	r1, [pc, #472]	; (40a9d0 <_dtoa_r+0xa70>)
  40a7f8:	f7fc fa76 	bl	406ce8 <__aeabi_dsub>
  40a7fc:	4602      	mov	r2, r0
  40a7fe:	460b      	mov	r3, r1
  40a800:	4650      	mov	r0, sl
  40a802:	4659      	mov	r1, fp
  40a804:	f002 fb9c 	bl	40cf40 <__aeabi_dcmpgt>
  40a808:	2800      	cmp	r0, #0
  40a80a:	f040 8270 	bne.w	40acee <_dtoa_r+0xd8e>
  40a80e:	9a12      	ldr	r2, [sp, #72]	; 0x48
  40a810:	2a01      	cmp	r2, #1
  40a812:	f000 8111 	beq.w	40aa38 <_dtoa_r+0xad8>
  40a816:	9b12      	ldr	r3, [sp, #72]	; 0x48
  40a818:	9a04      	ldr	r2, [sp, #16]
  40a81a:	f8cd 9048 	str.w	r9, [sp, #72]	; 0x48
  40a81e:	4413      	add	r3, r2
  40a820:	4699      	mov	r9, r3
  40a822:	e00d      	b.n	40a840 <_dtoa_r+0x8e0>
  40a824:	2000      	movs	r0, #0
  40a826:	496a      	ldr	r1, [pc, #424]	; (40a9d0 <_dtoa_r+0xa70>)
  40a828:	f7fc fa5e 	bl	406ce8 <__aeabi_dsub>
  40a82c:	4652      	mov	r2, sl
  40a82e:	465b      	mov	r3, fp
  40a830:	f002 fb68 	bl	40cf04 <__aeabi_dcmplt>
  40a834:	2800      	cmp	r0, #0
  40a836:	f040 8258 	bne.w	40acea <_dtoa_r+0xd8a>
  40a83a:	454d      	cmp	r5, r9
  40a83c:	f000 80fa 	beq.w	40aa34 <_dtoa_r+0xad4>
  40a840:	4650      	mov	r0, sl
  40a842:	4659      	mov	r1, fp
  40a844:	2200      	movs	r2, #0
  40a846:	4b65      	ldr	r3, [pc, #404]	; (40a9dc <_dtoa_r+0xa7c>)
  40a848:	f7fc fc02 	bl	407050 <__aeabi_dmul>
  40a84c:	2200      	movs	r2, #0
  40a84e:	4b63      	ldr	r3, [pc, #396]	; (40a9dc <_dtoa_r+0xa7c>)
  40a850:	4682      	mov	sl, r0
  40a852:	468b      	mov	fp, r1
  40a854:	4630      	mov	r0, r6
  40a856:	4639      	mov	r1, r7
  40a858:	f7fc fbfa 	bl	407050 <__aeabi_dmul>
  40a85c:	460f      	mov	r7, r1
  40a85e:	4606      	mov	r6, r0
  40a860:	f7fc fe08 	bl	407474 <__aeabi_d2iz>
  40a864:	4680      	mov	r8, r0
  40a866:	f7fc fb8d 	bl	406f84 <__aeabi_i2d>
  40a86a:	4602      	mov	r2, r0
  40a86c:	460b      	mov	r3, r1
  40a86e:	4630      	mov	r0, r6
  40a870:	4639      	mov	r1, r7
  40a872:	f7fc fa39 	bl	406ce8 <__aeabi_dsub>
  40a876:	f108 0830 	add.w	r8, r8, #48	; 0x30
  40a87a:	fa5f f888 	uxtb.w	r8, r8
  40a87e:	4652      	mov	r2, sl
  40a880:	465b      	mov	r3, fp
  40a882:	f805 8b01 	strb.w	r8, [r5], #1
  40a886:	4606      	mov	r6, r0
  40a888:	460f      	mov	r7, r1
  40a88a:	f002 fb3b 	bl	40cf04 <__aeabi_dcmplt>
  40a88e:	4632      	mov	r2, r6
  40a890:	463b      	mov	r3, r7
  40a892:	2800      	cmp	r0, #0
  40a894:	d0c6      	beq.n	40a824 <_dtoa_r+0x8c4>
  40a896:	f8dd 9048 	ldr.w	r9, [sp, #72]	; 0x48
  40a89a:	9b15      	ldr	r3, [sp, #84]	; 0x54
  40a89c:	9302      	str	r3, [sp, #8]
  40a89e:	e523      	b.n	40a2e8 <_dtoa_r+0x388>
  40a8a0:	2300      	movs	r3, #0
  40a8a2:	930b      	str	r3, [sp, #44]	; 0x2c
  40a8a4:	9b25      	ldr	r3, [sp, #148]	; 0x94
  40a8a6:	2b00      	cmp	r3, #0
  40a8a8:	f340 80dc 	ble.w	40aa64 <_dtoa_r+0xb04>
  40a8ac:	461f      	mov	r7, r3
  40a8ae:	461e      	mov	r6, r3
  40a8b0:	930f      	str	r3, [sp, #60]	; 0x3c
  40a8b2:	930a      	str	r3, [sp, #40]	; 0x28
  40a8b4:	e6f6      	b.n	40a6a4 <_dtoa_r+0x744>
  40a8b6:	2301      	movs	r3, #1
  40a8b8:	930b      	str	r3, [sp, #44]	; 0x2c
  40a8ba:	e7f3      	b.n	40a8a4 <_dtoa_r+0x944>
  40a8bc:	f1ba 0f00 	cmp.w	sl, #0
  40a8c0:	f47f ada8 	bne.w	40a414 <_dtoa_r+0x4b4>
  40a8c4:	f3cb 0313 	ubfx	r3, fp, #0, #20
  40a8c8:	2b00      	cmp	r3, #0
  40a8ca:	f47f adba 	bne.w	40a442 <_dtoa_r+0x4e2>
  40a8ce:	f02b 4700 	bic.w	r7, fp, #2147483648	; 0x80000000
  40a8d2:	0d3f      	lsrs	r7, r7, #20
  40a8d4:	053f      	lsls	r7, r7, #20
  40a8d6:	2f00      	cmp	r7, #0
  40a8d8:	f000 820d 	beq.w	40acf6 <_dtoa_r+0xd96>
  40a8dc:	9b08      	ldr	r3, [sp, #32]
  40a8de:	3301      	adds	r3, #1
  40a8e0:	9308      	str	r3, [sp, #32]
  40a8e2:	9b06      	ldr	r3, [sp, #24]
  40a8e4:	3301      	adds	r3, #1
  40a8e6:	9306      	str	r3, [sp, #24]
  40a8e8:	2301      	movs	r3, #1
  40a8ea:	930c      	str	r3, [sp, #48]	; 0x30
  40a8ec:	e5ab      	b.n	40a446 <_dtoa_r+0x4e6>
  40a8ee:	9b0a      	ldr	r3, [sp, #40]	; 0x28
  40a8f0:	2b00      	cmp	r3, #0
  40a8f2:	f73f ac42 	bgt.w	40a17a <_dtoa_r+0x21a>
  40a8f6:	f040 8221 	bne.w	40ad3c <_dtoa_r+0xddc>
  40a8fa:	2200      	movs	r2, #0
  40a8fc:	4b38      	ldr	r3, [pc, #224]	; (40a9e0 <_dtoa_r+0xa80>)
  40a8fe:	e9dd 0108 	ldrd	r0, r1, [sp, #32]
  40a902:	f7fc fba5 	bl	407050 <__aeabi_dmul>
  40a906:	4652      	mov	r2, sl
  40a908:	465b      	mov	r3, fp
  40a90a:	f002 fb0f 	bl	40cf2c <__aeabi_dcmpge>
  40a90e:	f8dd 8028 	ldr.w	r8, [sp, #40]	; 0x28
  40a912:	4646      	mov	r6, r8
  40a914:	2800      	cmp	r0, #0
  40a916:	d041      	beq.n	40a99c <_dtoa_r+0xa3c>
  40a918:	9b25      	ldr	r3, [sp, #148]	; 0x94
  40a91a:	9d04      	ldr	r5, [sp, #16]
  40a91c:	43db      	mvns	r3, r3
  40a91e:	9302      	str	r3, [sp, #8]
  40a920:	4641      	mov	r1, r8
  40a922:	4620      	mov	r0, r4
  40a924:	f001 fb42 	bl	40bfac <_Bfree>
  40a928:	2e00      	cmp	r6, #0
  40a92a:	f43f acdd 	beq.w	40a2e8 <_dtoa_r+0x388>
  40a92e:	e6a7      	b.n	40a680 <_dtoa_r+0x720>
  40a930:	9a0c      	ldr	r2, [sp, #48]	; 0x30
  40a932:	4649      	mov	r1, r9
  40a934:	4620      	mov	r0, r4
  40a936:	f001 fc6f 	bl	40c218 <__pow5mult>
  40a93a:	4681      	mov	r9, r0
  40a93c:	e558      	b.n	40a3f0 <_dtoa_r+0x490>
  40a93e:	9a14      	ldr	r2, [sp, #80]	; 0x50
  40a940:	2a00      	cmp	r2, #0
  40a942:	f000 8187 	beq.w	40ac54 <_dtoa_r+0xcf4>
  40a946:	f203 4333 	addw	r3, r3, #1075	; 0x433
  40a94a:	9f0c      	ldr	r7, [sp, #48]	; 0x30
  40a94c:	9d08      	ldr	r5, [sp, #32]
  40a94e:	e4f2      	b.n	40a336 <_dtoa_r+0x3d6>
  40a950:	f1ba 0f00 	cmp.w	sl, #0
  40a954:	f47f ad75 	bne.w	40a442 <_dtoa_r+0x4e2>
  40a958:	e7b4      	b.n	40a8c4 <_dtoa_r+0x964>
  40a95a:	f001 fb31 	bl	40bfc0 <__multadd>
  40a95e:	4647      	mov	r7, r8
  40a960:	4606      	mov	r6, r0
  40a962:	4683      	mov	fp, r0
  40a964:	e5be      	b.n	40a4e4 <_dtoa_r+0x584>
  40a966:	4601      	mov	r1, r0
  40a968:	4620      	mov	r0, r4
  40a96a:	9306      	str	r3, [sp, #24]
  40a96c:	f001 fb1e 	bl	40bfac <_Bfree>
  40a970:	2201      	movs	r2, #1
  40a972:	9b06      	ldr	r3, [sp, #24]
  40a974:	e5e0      	b.n	40a538 <_dtoa_r+0x5d8>
  40a976:	9b24      	ldr	r3, [sp, #144]	; 0x90
  40a978:	2b02      	cmp	r3, #2
  40a97a:	f77f ad96 	ble.w	40a4aa <_dtoa_r+0x54a>
  40a97e:	9b0a      	ldr	r3, [sp, #40]	; 0x28
  40a980:	2b00      	cmp	r3, #0
  40a982:	d1c9      	bne.n	40a918 <_dtoa_r+0x9b8>
  40a984:	4641      	mov	r1, r8
  40a986:	2205      	movs	r2, #5
  40a988:	4620      	mov	r0, r4
  40a98a:	f001 fb19 	bl	40bfc0 <__multadd>
  40a98e:	4601      	mov	r1, r0
  40a990:	4680      	mov	r8, r0
  40a992:	4648      	mov	r0, r9
  40a994:	f001 fce2 	bl	40c35c <__mcmp>
  40a998:	2800      	cmp	r0, #0
  40a99a:	ddbd      	ble.n	40a918 <_dtoa_r+0x9b8>
  40a99c:	9a02      	ldr	r2, [sp, #8]
  40a99e:	9904      	ldr	r1, [sp, #16]
  40a9a0:	2331      	movs	r3, #49	; 0x31
  40a9a2:	3201      	adds	r2, #1
  40a9a4:	9202      	str	r2, [sp, #8]
  40a9a6:	700b      	strb	r3, [r1, #0]
  40a9a8:	1c4d      	adds	r5, r1, #1
  40a9aa:	e7b9      	b.n	40a920 <_dtoa_r+0x9c0>
  40a9ac:	9a02      	ldr	r2, [sp, #8]
  40a9ae:	3201      	adds	r2, #1
  40a9b0:	9202      	str	r2, [sp, #8]
  40a9b2:	9a04      	ldr	r2, [sp, #16]
  40a9b4:	2331      	movs	r3, #49	; 0x31
  40a9b6:	7013      	strb	r3, [r2, #0]
  40a9b8:	e652      	b.n	40a660 <_dtoa_r+0x700>
  40a9ba:	2301      	movs	r3, #1
  40a9bc:	930b      	str	r3, [sp, #44]	; 0x2c
  40a9be:	e666      	b.n	40a68e <_dtoa_r+0x72e>
  40a9c0:	f8dd 902c 	ldr.w	r9, [sp, #44]	; 0x2c
  40a9c4:	9c0c      	ldr	r4, [sp, #48]	; 0x30
  40a9c6:	e48f      	b.n	40a2e8 <_dtoa_r+0x388>
  40a9c8:	0040e370 	.word	0x0040e370
  40a9cc:	0040e348 	.word	0x0040e348
  40a9d0:	3ff00000 	.word	0x3ff00000
  40a9d4:	401c0000 	.word	0x401c0000
  40a9d8:	3fe00000 	.word	0x3fe00000
  40a9dc:	40240000 	.word	0x40240000
  40a9e0:	40140000 	.word	0x40140000
  40a9e4:	4650      	mov	r0, sl
  40a9e6:	f7fc facd 	bl	406f84 <__aeabi_i2d>
  40a9ea:	463a      	mov	r2, r7
  40a9ec:	4643      	mov	r3, r8
  40a9ee:	f7fc fb2f 	bl	407050 <__aeabi_dmul>
  40a9f2:	2200      	movs	r2, #0
  40a9f4:	4bc1      	ldr	r3, [pc, #772]	; (40acfc <_dtoa_r+0xd9c>)
  40a9f6:	f7fc f979 	bl	406cec <__adddf3>
  40a9fa:	4605      	mov	r5, r0
  40a9fc:	f1a1 7650 	sub.w	r6, r1, #54525952	; 0x3400000
  40aa00:	4641      	mov	r1, r8
  40aa02:	2200      	movs	r2, #0
  40aa04:	4bbe      	ldr	r3, [pc, #760]	; (40ad00 <_dtoa_r+0xda0>)
  40aa06:	4638      	mov	r0, r7
  40aa08:	f7fc f96e 	bl	406ce8 <__aeabi_dsub>
  40aa0c:	462a      	mov	r2, r5
  40aa0e:	4633      	mov	r3, r6
  40aa10:	4682      	mov	sl, r0
  40aa12:	468b      	mov	fp, r1
  40aa14:	f002 fa94 	bl	40cf40 <__aeabi_dcmpgt>
  40aa18:	4680      	mov	r8, r0
  40aa1a:	2800      	cmp	r0, #0
  40aa1c:	f040 8110 	bne.w	40ac40 <_dtoa_r+0xce0>
  40aa20:	462a      	mov	r2, r5
  40aa22:	f106 4300 	add.w	r3, r6, #2147483648	; 0x80000000
  40aa26:	4650      	mov	r0, sl
  40aa28:	4659      	mov	r1, fp
  40aa2a:	f002 fa6b 	bl	40cf04 <__aeabi_dcmplt>
  40aa2e:	b118      	cbz	r0, 40aa38 <_dtoa_r+0xad8>
  40aa30:	4646      	mov	r6, r8
  40aa32:	e771      	b.n	40a918 <_dtoa_r+0x9b8>
  40aa34:	f8dd 9048 	ldr.w	r9, [sp, #72]	; 0x48
  40aa38:	e9dd ab10 	ldrd	sl, fp, [sp, #64]	; 0x40
  40aa3c:	f7ff bb8a 	b.w	40a154 <_dtoa_r+0x1f4>
  40aa40:	9804      	ldr	r0, [sp, #16]
  40aa42:	f7ff babb 	b.w	409fbc <_dtoa_r+0x5c>
  40aa46:	9b0c      	ldr	r3, [sp, #48]	; 0x30
  40aa48:	9a0d      	ldr	r2, [sp, #52]	; 0x34
  40aa4a:	970c      	str	r7, [sp, #48]	; 0x30
  40aa4c:	1afb      	subs	r3, r7, r3
  40aa4e:	441a      	add	r2, r3
  40aa50:	920d      	str	r2, [sp, #52]	; 0x34
  40aa52:	2700      	movs	r7, #0
  40aa54:	e469      	b.n	40a32a <_dtoa_r+0x3ca>
  40aa56:	e9dd 2310 	ldrd	r2, r3, [sp, #64]	; 0x40
  40aa5a:	f04f 0a02 	mov.w	sl, #2
  40aa5e:	e9cd 2312 	strd	r2, r3, [sp, #72]	; 0x48
  40aa62:	e657      	b.n	40a714 <_dtoa_r+0x7b4>
  40aa64:	2100      	movs	r1, #0
  40aa66:	2301      	movs	r3, #1
  40aa68:	6461      	str	r1, [r4, #68]	; 0x44
  40aa6a:	4620      	mov	r0, r4
  40aa6c:	9325      	str	r3, [sp, #148]	; 0x94
  40aa6e:	f001 fa77 	bl	40bf60 <_Balloc>
  40aa72:	9b25      	ldr	r3, [sp, #148]	; 0x94
  40aa74:	9004      	str	r0, [sp, #16]
  40aa76:	6420      	str	r0, [r4, #64]	; 0x40
  40aa78:	930a      	str	r3, [sp, #40]	; 0x28
  40aa7a:	930f      	str	r3, [sp, #60]	; 0x3c
  40aa7c:	e629      	b.n	40a6d2 <_dtoa_r+0x772>
  40aa7e:	2a00      	cmp	r2, #0
  40aa80:	46d0      	mov	r8, sl
  40aa82:	f8cd b018 	str.w	fp, [sp, #24]
  40aa86:	469a      	mov	sl, r3
  40aa88:	dd11      	ble.n	40aaae <_dtoa_r+0xb4e>
  40aa8a:	4649      	mov	r1, r9
  40aa8c:	2201      	movs	r2, #1
  40aa8e:	4620      	mov	r0, r4
  40aa90:	f001 fc12 	bl	40c2b8 <__lshift>
  40aa94:	4641      	mov	r1, r8
  40aa96:	4681      	mov	r9, r0
  40aa98:	f001 fc60 	bl	40c35c <__mcmp>
  40aa9c:	2800      	cmp	r0, #0
  40aa9e:	f340 8146 	ble.w	40ad2e <_dtoa_r+0xdce>
  40aaa2:	f1ba 0f39 	cmp.w	sl, #57	; 0x39
  40aaa6:	f000 8106 	beq.w	40acb6 <_dtoa_r+0xd56>
  40aaaa:	f105 0a31 	add.w	sl, r5, #49	; 0x31
  40aaae:	46b3      	mov	fp, r6
  40aab0:	f887 a000 	strb.w	sl, [r7]
  40aab4:	1c7d      	adds	r5, r7, #1
  40aab6:	9e06      	ldr	r6, [sp, #24]
  40aab8:	e5d2      	b.n	40a660 <_dtoa_r+0x700>
  40aaba:	d104      	bne.n	40aac6 <_dtoa_r+0xb66>
  40aabc:	f01a 0f01 	tst.w	sl, #1
  40aac0:	d001      	beq.n	40aac6 <_dtoa_r+0xb66>
  40aac2:	e5bd      	b.n	40a640 <_dtoa_r+0x6e0>
  40aac4:	4615      	mov	r5, r2
  40aac6:	f815 3c01 	ldrb.w	r3, [r5, #-1]
  40aaca:	2b30      	cmp	r3, #48	; 0x30
  40aacc:	f105 32ff 	add.w	r2, r5, #4294967295
  40aad0:	d0f8      	beq.n	40aac4 <_dtoa_r+0xb64>
  40aad2:	e5c5      	b.n	40a660 <_dtoa_r+0x700>
  40aad4:	9904      	ldr	r1, [sp, #16]
  40aad6:	2230      	movs	r2, #48	; 0x30
  40aad8:	700a      	strb	r2, [r1, #0]
  40aada:	9a02      	ldr	r2, [sp, #8]
  40aadc:	f815 8c01 	ldrb.w	r8, [r5, #-1]
  40aae0:	3201      	adds	r2, #1
  40aae2:	9202      	str	r2, [sp, #8]
  40aae4:	f7ff bbfc 	b.w	40a2e0 <_dtoa_r+0x380>
  40aae8:	f000 80bb 	beq.w	40ac62 <_dtoa_r+0xd02>
  40aaec:	9b02      	ldr	r3, [sp, #8]
  40aaee:	425d      	negs	r5, r3
  40aaf0:	4b84      	ldr	r3, [pc, #528]	; (40ad04 <_dtoa_r+0xda4>)
  40aaf2:	f005 020f 	and.w	r2, r5, #15
  40aaf6:	eb03 03c2 	add.w	r3, r3, r2, lsl #3
  40aafa:	e9d3 2300 	ldrd	r2, r3, [r3]
  40aafe:	e9dd 0110 	ldrd	r0, r1, [sp, #64]	; 0x40
  40ab02:	f7fc faa5 	bl	407050 <__aeabi_dmul>
  40ab06:	112d      	asrs	r5, r5, #4
  40ab08:	4607      	mov	r7, r0
  40ab0a:	4688      	mov	r8, r1
  40ab0c:	f000 812c 	beq.w	40ad68 <_dtoa_r+0xe08>
  40ab10:	4e7d      	ldr	r6, [pc, #500]	; (40ad08 <_dtoa_r+0xda8>)
  40ab12:	f04f 0a02 	mov.w	sl, #2
  40ab16:	07eb      	lsls	r3, r5, #31
  40ab18:	d509      	bpl.n	40ab2e <_dtoa_r+0xbce>
  40ab1a:	4638      	mov	r0, r7
  40ab1c:	4641      	mov	r1, r8
  40ab1e:	e9d6 2300 	ldrd	r2, r3, [r6]
  40ab22:	f7fc fa95 	bl	407050 <__aeabi_dmul>
  40ab26:	f10a 0a01 	add.w	sl, sl, #1
  40ab2a:	4607      	mov	r7, r0
  40ab2c:	4688      	mov	r8, r1
  40ab2e:	106d      	asrs	r5, r5, #1
  40ab30:	f106 0608 	add.w	r6, r6, #8
  40ab34:	d1ef      	bne.n	40ab16 <_dtoa_r+0xbb6>
  40ab36:	e608      	b.n	40a74a <_dtoa_r+0x7ea>
  40ab38:	6871      	ldr	r1, [r6, #4]
  40ab3a:	4620      	mov	r0, r4
  40ab3c:	f001 fa10 	bl	40bf60 <_Balloc>
  40ab40:	6933      	ldr	r3, [r6, #16]
  40ab42:	3302      	adds	r3, #2
  40ab44:	009a      	lsls	r2, r3, #2
  40ab46:	4605      	mov	r5, r0
  40ab48:	f106 010c 	add.w	r1, r6, #12
  40ab4c:	300c      	adds	r0, #12
  40ab4e:	f7fc fd45 	bl	4075dc <memcpy>
  40ab52:	4629      	mov	r1, r5
  40ab54:	2201      	movs	r2, #1
  40ab56:	4620      	mov	r0, r4
  40ab58:	f001 fbae 	bl	40c2b8 <__lshift>
  40ab5c:	9006      	str	r0, [sp, #24]
  40ab5e:	e4b5      	b.n	40a4cc <_dtoa_r+0x56c>
  40ab60:	2b39      	cmp	r3, #57	; 0x39
  40ab62:	f8cd b018 	str.w	fp, [sp, #24]
  40ab66:	46d0      	mov	r8, sl
  40ab68:	f000 80a5 	beq.w	40acb6 <_dtoa_r+0xd56>
  40ab6c:	f103 0a01 	add.w	sl, r3, #1
  40ab70:	46b3      	mov	fp, r6
  40ab72:	f887 a000 	strb.w	sl, [r7]
  40ab76:	1c7d      	adds	r5, r7, #1
  40ab78:	9e06      	ldr	r6, [sp, #24]
  40ab7a:	e571      	b.n	40a660 <_dtoa_r+0x700>
  40ab7c:	465a      	mov	r2, fp
  40ab7e:	46d0      	mov	r8, sl
  40ab80:	46b3      	mov	fp, r6
  40ab82:	469a      	mov	sl, r3
  40ab84:	4616      	mov	r6, r2
  40ab86:	e54f      	b.n	40a628 <_dtoa_r+0x6c8>
  40ab88:	9b12      	ldr	r3, [sp, #72]	; 0x48
  40ab8a:	495e      	ldr	r1, [pc, #376]	; (40ad04 <_dtoa_r+0xda4>)
  40ab8c:	eb01 01c3 	add.w	r1, r1, r3, lsl #3
  40ab90:	462a      	mov	r2, r5
  40ab92:	4633      	mov	r3, r6
  40ab94:	e951 0102 	ldrd	r0, r1, [r1, #-8]
  40ab98:	f7fc fa5a 	bl	407050 <__aeabi_dmul>
  40ab9c:	e9cd 0116 	strd	r0, r1, [sp, #88]	; 0x58
  40aba0:	4638      	mov	r0, r7
  40aba2:	4641      	mov	r1, r8
  40aba4:	f7fc fc66 	bl	407474 <__aeabi_d2iz>
  40aba8:	4605      	mov	r5, r0
  40abaa:	f7fc f9eb 	bl	406f84 <__aeabi_i2d>
  40abae:	460b      	mov	r3, r1
  40abb0:	4602      	mov	r2, r0
  40abb2:	4641      	mov	r1, r8
  40abb4:	4638      	mov	r0, r7
  40abb6:	f7fc f897 	bl	406ce8 <__aeabi_dsub>
  40abba:	9b12      	ldr	r3, [sp, #72]	; 0x48
  40abbc:	460f      	mov	r7, r1
  40abbe:	9904      	ldr	r1, [sp, #16]
  40abc0:	3530      	adds	r5, #48	; 0x30
  40abc2:	2b01      	cmp	r3, #1
  40abc4:	700d      	strb	r5, [r1, #0]
  40abc6:	4606      	mov	r6, r0
  40abc8:	f101 0501 	add.w	r5, r1, #1
  40abcc:	d026      	beq.n	40ac1c <_dtoa_r+0xcbc>
  40abce:	9b12      	ldr	r3, [sp, #72]	; 0x48
  40abd0:	9a04      	ldr	r2, [sp, #16]
  40abd2:	f8df b13c 	ldr.w	fp, [pc, #316]	; 40ad10 <_dtoa_r+0xdb0>
  40abd6:	f8cd 9048 	str.w	r9, [sp, #72]	; 0x48
  40abda:	4413      	add	r3, r2
  40abdc:	f04f 0a00 	mov.w	sl, #0
  40abe0:	4699      	mov	r9, r3
  40abe2:	4652      	mov	r2, sl
  40abe4:	465b      	mov	r3, fp
  40abe6:	4630      	mov	r0, r6
  40abe8:	4639      	mov	r1, r7
  40abea:	f7fc fa31 	bl	407050 <__aeabi_dmul>
  40abee:	460f      	mov	r7, r1
  40abf0:	4606      	mov	r6, r0
  40abf2:	f7fc fc3f 	bl	407474 <__aeabi_d2iz>
  40abf6:	4680      	mov	r8, r0
  40abf8:	f7fc f9c4 	bl	406f84 <__aeabi_i2d>
  40abfc:	f108 0830 	add.w	r8, r8, #48	; 0x30
  40ac00:	4602      	mov	r2, r0
  40ac02:	460b      	mov	r3, r1
  40ac04:	4630      	mov	r0, r6
  40ac06:	4639      	mov	r1, r7
  40ac08:	f7fc f86e 	bl	406ce8 <__aeabi_dsub>
  40ac0c:	f805 8b01 	strb.w	r8, [r5], #1
  40ac10:	454d      	cmp	r5, r9
  40ac12:	4606      	mov	r6, r0
  40ac14:	460f      	mov	r7, r1
  40ac16:	d1e4      	bne.n	40abe2 <_dtoa_r+0xc82>
  40ac18:	f8dd 9048 	ldr.w	r9, [sp, #72]	; 0x48
  40ac1c:	4b3b      	ldr	r3, [pc, #236]	; (40ad0c <_dtoa_r+0xdac>)
  40ac1e:	2200      	movs	r2, #0
  40ac20:	e9dd 0116 	ldrd	r0, r1, [sp, #88]	; 0x58
  40ac24:	f7fc f862 	bl	406cec <__adddf3>
  40ac28:	4632      	mov	r2, r6
  40ac2a:	463b      	mov	r3, r7
  40ac2c:	f002 f96a 	bl	40cf04 <__aeabi_dcmplt>
  40ac30:	2800      	cmp	r0, #0
  40ac32:	d046      	beq.n	40acc2 <_dtoa_r+0xd62>
  40ac34:	9b15      	ldr	r3, [sp, #84]	; 0x54
  40ac36:	9302      	str	r3, [sp, #8]
  40ac38:	f815 8c01 	ldrb.w	r8, [r5, #-1]
  40ac3c:	f7ff bb43 	b.w	40a2c6 <_dtoa_r+0x366>
  40ac40:	f04f 0800 	mov.w	r8, #0
  40ac44:	4646      	mov	r6, r8
  40ac46:	e6a9      	b.n	40a99c <_dtoa_r+0xa3c>
  40ac48:	9b08      	ldr	r3, [sp, #32]
  40ac4a:	9a0a      	ldr	r2, [sp, #40]	; 0x28
  40ac4c:	1a9d      	subs	r5, r3, r2
  40ac4e:	2300      	movs	r3, #0
  40ac50:	f7ff bb71 	b.w	40a336 <_dtoa_r+0x3d6>
  40ac54:	9b18      	ldr	r3, [sp, #96]	; 0x60
  40ac56:	9f0c      	ldr	r7, [sp, #48]	; 0x30
  40ac58:	9d08      	ldr	r5, [sp, #32]
  40ac5a:	f1c3 0336 	rsb	r3, r3, #54	; 0x36
  40ac5e:	f7ff bb6a 	b.w	40a336 <_dtoa_r+0x3d6>
  40ac62:	e9dd 7810 	ldrd	r7, r8, [sp, #64]	; 0x40
  40ac66:	f04f 0a02 	mov.w	sl, #2
  40ac6a:	e56e      	b.n	40a74a <_dtoa_r+0x7ea>
  40ac6c:	9b0a      	ldr	r3, [sp, #40]	; 0x28
  40ac6e:	2b00      	cmp	r3, #0
  40ac70:	f43f aeb8 	beq.w	40a9e4 <_dtoa_r+0xa84>
  40ac74:	9b0f      	ldr	r3, [sp, #60]	; 0x3c
  40ac76:	2b00      	cmp	r3, #0
  40ac78:	f77f aede 	ble.w	40aa38 <_dtoa_r+0xad8>
  40ac7c:	2200      	movs	r2, #0
  40ac7e:	4b24      	ldr	r3, [pc, #144]	; (40ad10 <_dtoa_r+0xdb0>)
  40ac80:	4638      	mov	r0, r7
  40ac82:	4641      	mov	r1, r8
  40ac84:	f7fc f9e4 	bl	407050 <__aeabi_dmul>
  40ac88:	4607      	mov	r7, r0
  40ac8a:	4688      	mov	r8, r1
  40ac8c:	f10a 0001 	add.w	r0, sl, #1
  40ac90:	f7fc f978 	bl	406f84 <__aeabi_i2d>
  40ac94:	463a      	mov	r2, r7
  40ac96:	4643      	mov	r3, r8
  40ac98:	f7fc f9da 	bl	407050 <__aeabi_dmul>
  40ac9c:	2200      	movs	r2, #0
  40ac9e:	4b17      	ldr	r3, [pc, #92]	; (40acfc <_dtoa_r+0xd9c>)
  40aca0:	f7fc f824 	bl	406cec <__adddf3>
  40aca4:	9a02      	ldr	r2, [sp, #8]
  40aca6:	9b0f      	ldr	r3, [sp, #60]	; 0x3c
  40aca8:	9312      	str	r3, [sp, #72]	; 0x48
  40acaa:	3a01      	subs	r2, #1
  40acac:	4605      	mov	r5, r0
  40acae:	f1a1 7650 	sub.w	r6, r1, #54525952	; 0x3400000
  40acb2:	9215      	str	r2, [sp, #84]	; 0x54
  40acb4:	e56a      	b.n	40a78c <_dtoa_r+0x82c>
  40acb6:	2239      	movs	r2, #57	; 0x39
  40acb8:	46b3      	mov	fp, r6
  40acba:	703a      	strb	r2, [r7, #0]
  40acbc:	9e06      	ldr	r6, [sp, #24]
  40acbe:	1c7d      	adds	r5, r7, #1
  40acc0:	e4c0      	b.n	40a644 <_dtoa_r+0x6e4>
  40acc2:	e9dd 2316 	ldrd	r2, r3, [sp, #88]	; 0x58
  40acc6:	2000      	movs	r0, #0
  40acc8:	4910      	ldr	r1, [pc, #64]	; (40ad0c <_dtoa_r+0xdac>)
  40acca:	f7fc f80d 	bl	406ce8 <__aeabi_dsub>
  40acce:	4632      	mov	r2, r6
  40acd0:	463b      	mov	r3, r7
  40acd2:	f002 f935 	bl	40cf40 <__aeabi_dcmpgt>
  40acd6:	b908      	cbnz	r0, 40acdc <_dtoa_r+0xd7c>
  40acd8:	e6ae      	b.n	40aa38 <_dtoa_r+0xad8>
  40acda:	4615      	mov	r5, r2
  40acdc:	f815 3c01 	ldrb.w	r3, [r5, #-1]
  40ace0:	2b30      	cmp	r3, #48	; 0x30
  40ace2:	f105 32ff 	add.w	r2, r5, #4294967295
  40ace6:	d0f8      	beq.n	40acda <_dtoa_r+0xd7a>
  40ace8:	e5d7      	b.n	40a89a <_dtoa_r+0x93a>
  40acea:	f8dd 9048 	ldr.w	r9, [sp, #72]	; 0x48
  40acee:	9b15      	ldr	r3, [sp, #84]	; 0x54
  40acf0:	9302      	str	r3, [sp, #8]
  40acf2:	f7ff bae8 	b.w	40a2c6 <_dtoa_r+0x366>
  40acf6:	970c      	str	r7, [sp, #48]	; 0x30
  40acf8:	f7ff bba5 	b.w	40a446 <_dtoa_r+0x4e6>
  40acfc:	401c0000 	.word	0x401c0000
  40ad00:	40140000 	.word	0x40140000
  40ad04:	0040e370 	.word	0x0040e370
  40ad08:	0040e348 	.word	0x0040e348
  40ad0c:	3fe00000 	.word	0x3fe00000
  40ad10:	40240000 	.word	0x40240000
  40ad14:	2b39      	cmp	r3, #57	; 0x39
  40ad16:	f8cd b018 	str.w	fp, [sp, #24]
  40ad1a:	46d0      	mov	r8, sl
  40ad1c:	f8dd b028 	ldr.w	fp, [sp, #40]	; 0x28
  40ad20:	469a      	mov	sl, r3
  40ad22:	d0c8      	beq.n	40acb6 <_dtoa_r+0xd56>
  40ad24:	f1bb 0f00 	cmp.w	fp, #0
  40ad28:	f73f aebf 	bgt.w	40aaaa <_dtoa_r+0xb4a>
  40ad2c:	e6bf      	b.n	40aaae <_dtoa_r+0xb4e>
  40ad2e:	f47f aebe 	bne.w	40aaae <_dtoa_r+0xb4e>
  40ad32:	f01a 0f01 	tst.w	sl, #1
  40ad36:	f43f aeba 	beq.w	40aaae <_dtoa_r+0xb4e>
  40ad3a:	e6b2      	b.n	40aaa2 <_dtoa_r+0xb42>
  40ad3c:	f04f 0800 	mov.w	r8, #0
  40ad40:	4646      	mov	r6, r8
  40ad42:	e5e9      	b.n	40a918 <_dtoa_r+0x9b8>
  40ad44:	4631      	mov	r1, r6
  40ad46:	2300      	movs	r3, #0
  40ad48:	220a      	movs	r2, #10
  40ad4a:	4620      	mov	r0, r4
  40ad4c:	f001 f938 	bl	40bfc0 <__multadd>
  40ad50:	9b0f      	ldr	r3, [sp, #60]	; 0x3c
  40ad52:	2b00      	cmp	r3, #0
  40ad54:	4606      	mov	r6, r0
  40ad56:	dd0a      	ble.n	40ad6e <_dtoa_r+0xe0e>
  40ad58:	930a      	str	r3, [sp, #40]	; 0x28
  40ad5a:	f7ff bbaa 	b.w	40a4b2 <_dtoa_r+0x552>
  40ad5e:	9b24      	ldr	r3, [sp, #144]	; 0x90
  40ad60:	2b02      	cmp	r3, #2
  40ad62:	dc23      	bgt.n	40adac <_dtoa_r+0xe4c>
  40ad64:	9b0f      	ldr	r3, [sp, #60]	; 0x3c
  40ad66:	e43b      	b.n	40a5e0 <_dtoa_r+0x680>
  40ad68:	f04f 0a02 	mov.w	sl, #2
  40ad6c:	e4ed      	b.n	40a74a <_dtoa_r+0x7ea>
  40ad6e:	9b24      	ldr	r3, [sp, #144]	; 0x90
  40ad70:	2b02      	cmp	r3, #2
  40ad72:	dc1b      	bgt.n	40adac <_dtoa_r+0xe4c>
  40ad74:	9b0f      	ldr	r3, [sp, #60]	; 0x3c
  40ad76:	e7ef      	b.n	40ad58 <_dtoa_r+0xdf8>
  40ad78:	2500      	movs	r5, #0
  40ad7a:	6465      	str	r5, [r4, #68]	; 0x44
  40ad7c:	4629      	mov	r1, r5
  40ad7e:	4620      	mov	r0, r4
  40ad80:	f001 f8ee 	bl	40bf60 <_Balloc>
  40ad84:	f04f 33ff 	mov.w	r3, #4294967295
  40ad88:	930a      	str	r3, [sp, #40]	; 0x28
  40ad8a:	930f      	str	r3, [sp, #60]	; 0x3c
  40ad8c:	2301      	movs	r3, #1
  40ad8e:	9004      	str	r0, [sp, #16]
  40ad90:	9525      	str	r5, [sp, #148]	; 0x94
  40ad92:	6420      	str	r0, [r4, #64]	; 0x40
  40ad94:	930b      	str	r3, [sp, #44]	; 0x2c
  40ad96:	f7ff b9dd 	b.w	40a154 <_dtoa_r+0x1f4>
  40ad9a:	2501      	movs	r5, #1
  40ad9c:	f7ff b9a5 	b.w	40a0ea <_dtoa_r+0x18a>
  40ada0:	f43f ab69 	beq.w	40a476 <_dtoa_r+0x516>
  40ada4:	f1c0 003c 	rsb	r0, r0, #60	; 0x3c
  40ada8:	f7ff bbf9 	b.w	40a59e <_dtoa_r+0x63e>
  40adac:	9b0f      	ldr	r3, [sp, #60]	; 0x3c
  40adae:	930a      	str	r3, [sp, #40]	; 0x28
  40adb0:	e5e5      	b.n	40a97e <_dtoa_r+0xa1e>
  40adb2:	bf00      	nop

0040adb4 <__sflush_r>:
  40adb4:	f9b1 300c 	ldrsh.w	r3, [r1, #12]
  40adb8:	b29a      	uxth	r2, r3
  40adba:	e92d 41f0 	stmdb	sp!, {r4, r5, r6, r7, r8, lr}
  40adbe:	460d      	mov	r5, r1
  40adc0:	0711      	lsls	r1, r2, #28
  40adc2:	4680      	mov	r8, r0
  40adc4:	d43a      	bmi.n	40ae3c <__sflush_r+0x88>
  40adc6:	686a      	ldr	r2, [r5, #4]
  40adc8:	f443 6300 	orr.w	r3, r3, #2048	; 0x800
  40adcc:	2a00      	cmp	r2, #0
  40adce:	81ab      	strh	r3, [r5, #12]
  40add0:	dd6f      	ble.n	40aeb2 <__sflush_r+0xfe>
  40add2:	6aac      	ldr	r4, [r5, #40]	; 0x28
  40add4:	2c00      	cmp	r4, #0
  40add6:	d049      	beq.n	40ae6c <__sflush_r+0xb8>
  40add8:	2200      	movs	r2, #0
  40adda:	b29b      	uxth	r3, r3
  40addc:	f8d8 6000 	ldr.w	r6, [r8]
  40ade0:	f8c8 2000 	str.w	r2, [r8]
  40ade4:	f413 5280 	ands.w	r2, r3, #4096	; 0x1000
  40ade8:	d067      	beq.n	40aeba <__sflush_r+0x106>
  40adea:	6d2a      	ldr	r2, [r5, #80]	; 0x50
  40adec:	075f      	lsls	r7, r3, #29
  40adee:	d505      	bpl.n	40adfc <__sflush_r+0x48>
  40adf0:	6869      	ldr	r1, [r5, #4]
  40adf2:	6b2b      	ldr	r3, [r5, #48]	; 0x30
  40adf4:	1a52      	subs	r2, r2, r1
  40adf6:	b10b      	cbz	r3, 40adfc <__sflush_r+0x48>
  40adf8:	6beb      	ldr	r3, [r5, #60]	; 0x3c
  40adfa:	1ad2      	subs	r2, r2, r3
  40adfc:	2300      	movs	r3, #0
  40adfe:	69e9      	ldr	r1, [r5, #28]
  40ae00:	4640      	mov	r0, r8
  40ae02:	47a0      	blx	r4
  40ae04:	1c44      	adds	r4, r0, #1
  40ae06:	d03c      	beq.n	40ae82 <__sflush_r+0xce>
  40ae08:	f9b5 300c 	ldrsh.w	r3, [r5, #12]
  40ae0c:	692a      	ldr	r2, [r5, #16]
  40ae0e:	602a      	str	r2, [r5, #0]
  40ae10:	f423 6300 	bic.w	r3, r3, #2048	; 0x800
  40ae14:	2200      	movs	r2, #0
  40ae16:	81ab      	strh	r3, [r5, #12]
  40ae18:	04db      	lsls	r3, r3, #19
  40ae1a:	606a      	str	r2, [r5, #4]
  40ae1c:	d447      	bmi.n	40aeae <__sflush_r+0xfa>
  40ae1e:	6b29      	ldr	r1, [r5, #48]	; 0x30
  40ae20:	f8c8 6000 	str.w	r6, [r8]
  40ae24:	b311      	cbz	r1, 40ae6c <__sflush_r+0xb8>
  40ae26:	f105 0340 	add.w	r3, r5, #64	; 0x40
  40ae2a:	4299      	cmp	r1, r3
  40ae2c:	d002      	beq.n	40ae34 <__sflush_r+0x80>
  40ae2e:	4640      	mov	r0, r8
  40ae30:	f000 f9de 	bl	40b1f0 <_free_r>
  40ae34:	2000      	movs	r0, #0
  40ae36:	6328      	str	r0, [r5, #48]	; 0x30
  40ae38:	e8bd 81f0 	ldmia.w	sp!, {r4, r5, r6, r7, r8, pc}
  40ae3c:	692e      	ldr	r6, [r5, #16]
  40ae3e:	b1ae      	cbz	r6, 40ae6c <__sflush_r+0xb8>
  40ae40:	682c      	ldr	r4, [r5, #0]
  40ae42:	602e      	str	r6, [r5, #0]
  40ae44:	0791      	lsls	r1, r2, #30
  40ae46:	bf0c      	ite	eq
  40ae48:	696b      	ldreq	r3, [r5, #20]
  40ae4a:	2300      	movne	r3, #0
  40ae4c:	1ba4      	subs	r4, r4, r6
  40ae4e:	60ab      	str	r3, [r5, #8]
  40ae50:	e00a      	b.n	40ae68 <__sflush_r+0xb4>
  40ae52:	4623      	mov	r3, r4
  40ae54:	4632      	mov	r2, r6
  40ae56:	6a6f      	ldr	r7, [r5, #36]	; 0x24
  40ae58:	69e9      	ldr	r1, [r5, #28]
  40ae5a:	4640      	mov	r0, r8
  40ae5c:	47b8      	blx	r7
  40ae5e:	2800      	cmp	r0, #0
  40ae60:	eba4 0400 	sub.w	r4, r4, r0
  40ae64:	4406      	add	r6, r0
  40ae66:	dd04      	ble.n	40ae72 <__sflush_r+0xbe>
  40ae68:	2c00      	cmp	r4, #0
  40ae6a:	dcf2      	bgt.n	40ae52 <__sflush_r+0x9e>
  40ae6c:	2000      	movs	r0, #0
  40ae6e:	e8bd 81f0 	ldmia.w	sp!, {r4, r5, r6, r7, r8, pc}
  40ae72:	89ab      	ldrh	r3, [r5, #12]
  40ae74:	f043 0340 	orr.w	r3, r3, #64	; 0x40
  40ae78:	81ab      	strh	r3, [r5, #12]
  40ae7a:	f04f 30ff 	mov.w	r0, #4294967295
  40ae7e:	e8bd 81f0 	ldmia.w	sp!, {r4, r5, r6, r7, r8, pc}
  40ae82:	f8d8 4000 	ldr.w	r4, [r8]
  40ae86:	2c1d      	cmp	r4, #29
  40ae88:	d8f3      	bhi.n	40ae72 <__sflush_r+0xbe>
  40ae8a:	4b19      	ldr	r3, [pc, #100]	; (40aef0 <__sflush_r+0x13c>)
  40ae8c:	40e3      	lsrs	r3, r4
  40ae8e:	43db      	mvns	r3, r3
  40ae90:	f013 0301 	ands.w	r3, r3, #1
  40ae94:	d1ed      	bne.n	40ae72 <__sflush_r+0xbe>
  40ae96:	f9b5 200c 	ldrsh.w	r2, [r5, #12]
  40ae9a:	606b      	str	r3, [r5, #4]
  40ae9c:	f422 6300 	bic.w	r3, r2, #2048	; 0x800
  40aea0:	6929      	ldr	r1, [r5, #16]
  40aea2:	81ab      	strh	r3, [r5, #12]
  40aea4:	04da      	lsls	r2, r3, #19
  40aea6:	6029      	str	r1, [r5, #0]
  40aea8:	d5b9      	bpl.n	40ae1e <__sflush_r+0x6a>
  40aeaa:	2c00      	cmp	r4, #0
  40aeac:	d1b7      	bne.n	40ae1e <__sflush_r+0x6a>
  40aeae:	6528      	str	r0, [r5, #80]	; 0x50
  40aeb0:	e7b5      	b.n	40ae1e <__sflush_r+0x6a>
  40aeb2:	6bea      	ldr	r2, [r5, #60]	; 0x3c
  40aeb4:	2a00      	cmp	r2, #0
  40aeb6:	dc8c      	bgt.n	40add2 <__sflush_r+0x1e>
  40aeb8:	e7d8      	b.n	40ae6c <__sflush_r+0xb8>
  40aeba:	2301      	movs	r3, #1
  40aebc:	69e9      	ldr	r1, [r5, #28]
  40aebe:	4640      	mov	r0, r8
  40aec0:	47a0      	blx	r4
  40aec2:	1c43      	adds	r3, r0, #1
  40aec4:	4602      	mov	r2, r0
  40aec6:	d002      	beq.n	40aece <__sflush_r+0x11a>
  40aec8:	89ab      	ldrh	r3, [r5, #12]
  40aeca:	6aac      	ldr	r4, [r5, #40]	; 0x28
  40aecc:	e78e      	b.n	40adec <__sflush_r+0x38>
  40aece:	f8d8 3000 	ldr.w	r3, [r8]
  40aed2:	2b00      	cmp	r3, #0
  40aed4:	d0f8      	beq.n	40aec8 <__sflush_r+0x114>
  40aed6:	2b1d      	cmp	r3, #29
  40aed8:	d001      	beq.n	40aede <__sflush_r+0x12a>
  40aeda:	2b16      	cmp	r3, #22
  40aedc:	d102      	bne.n	40aee4 <__sflush_r+0x130>
  40aede:	f8c8 6000 	str.w	r6, [r8]
  40aee2:	e7c3      	b.n	40ae6c <__sflush_r+0xb8>
  40aee4:	89ab      	ldrh	r3, [r5, #12]
  40aee6:	f043 0340 	orr.w	r3, r3, #64	; 0x40
  40aeea:	81ab      	strh	r3, [r5, #12]
  40aeec:	e8bd 81f0 	ldmia.w	sp!, {r4, r5, r6, r7, r8, pc}
  40aef0:	20400001 	.word	0x20400001

0040aef4 <_fflush_r>:
  40aef4:	b538      	push	{r3, r4, r5, lr}
  40aef6:	460d      	mov	r5, r1
  40aef8:	4604      	mov	r4, r0
  40aefa:	b108      	cbz	r0, 40af00 <_fflush_r+0xc>
  40aefc:	6b83      	ldr	r3, [r0, #56]	; 0x38
  40aefe:	b1bb      	cbz	r3, 40af30 <_fflush_r+0x3c>
  40af00:	f9b5 000c 	ldrsh.w	r0, [r5, #12]
  40af04:	b188      	cbz	r0, 40af2a <_fflush_r+0x36>
  40af06:	6e6b      	ldr	r3, [r5, #100]	; 0x64
  40af08:	07db      	lsls	r3, r3, #31
  40af0a:	d401      	bmi.n	40af10 <_fflush_r+0x1c>
  40af0c:	0581      	lsls	r1, r0, #22
  40af0e:	d517      	bpl.n	40af40 <_fflush_r+0x4c>
  40af10:	4620      	mov	r0, r4
  40af12:	4629      	mov	r1, r5
  40af14:	f7ff ff4e 	bl	40adb4 <__sflush_r>
  40af18:	6e6b      	ldr	r3, [r5, #100]	; 0x64
  40af1a:	07da      	lsls	r2, r3, #31
  40af1c:	4604      	mov	r4, r0
  40af1e:	d402      	bmi.n	40af26 <_fflush_r+0x32>
  40af20:	89ab      	ldrh	r3, [r5, #12]
  40af22:	059b      	lsls	r3, r3, #22
  40af24:	d507      	bpl.n	40af36 <_fflush_r+0x42>
  40af26:	4620      	mov	r0, r4
  40af28:	bd38      	pop	{r3, r4, r5, pc}
  40af2a:	4604      	mov	r4, r0
  40af2c:	4620      	mov	r0, r4
  40af2e:	bd38      	pop	{r3, r4, r5, pc}
  40af30:	f000 f838 	bl	40afa4 <__sinit>
  40af34:	e7e4      	b.n	40af00 <_fflush_r+0xc>
  40af36:	6da8      	ldr	r0, [r5, #88]	; 0x58
  40af38:	f000 fc04 	bl	40b744 <__retarget_lock_release_recursive>
  40af3c:	4620      	mov	r0, r4
  40af3e:	bd38      	pop	{r3, r4, r5, pc}
  40af40:	6da8      	ldr	r0, [r5, #88]	; 0x58
  40af42:	f000 fbfd 	bl	40b740 <__retarget_lock_acquire_recursive>
  40af46:	e7e3      	b.n	40af10 <_fflush_r+0x1c>

0040af48 <_cleanup_r>:
  40af48:	4901      	ldr	r1, [pc, #4]	; (40af50 <_cleanup_r+0x8>)
  40af4a:	f000 bbaf 	b.w	40b6ac <_fwalk_reent>
  40af4e:	bf00      	nop
  40af50:	0040ccdd 	.word	0x0040ccdd

0040af54 <std.isra.0>:
  40af54:	b510      	push	{r4, lr}
  40af56:	2300      	movs	r3, #0
  40af58:	4604      	mov	r4, r0
  40af5a:	8181      	strh	r1, [r0, #12]
  40af5c:	81c2      	strh	r2, [r0, #14]
  40af5e:	6003      	str	r3, [r0, #0]
  40af60:	6043      	str	r3, [r0, #4]
  40af62:	6083      	str	r3, [r0, #8]
  40af64:	6643      	str	r3, [r0, #100]	; 0x64
  40af66:	6103      	str	r3, [r0, #16]
  40af68:	6143      	str	r3, [r0, #20]
  40af6a:	6183      	str	r3, [r0, #24]
  40af6c:	4619      	mov	r1, r3
  40af6e:	2208      	movs	r2, #8
  40af70:	305c      	adds	r0, #92	; 0x5c
  40af72:	f7fc fbcd 	bl	407710 <memset>
  40af76:	4807      	ldr	r0, [pc, #28]	; (40af94 <std.isra.0+0x40>)
  40af78:	4907      	ldr	r1, [pc, #28]	; (40af98 <std.isra.0+0x44>)
  40af7a:	4a08      	ldr	r2, [pc, #32]	; (40af9c <std.isra.0+0x48>)
  40af7c:	4b08      	ldr	r3, [pc, #32]	; (40afa0 <std.isra.0+0x4c>)
  40af7e:	6220      	str	r0, [r4, #32]
  40af80:	61e4      	str	r4, [r4, #28]
  40af82:	6261      	str	r1, [r4, #36]	; 0x24
  40af84:	62a2      	str	r2, [r4, #40]	; 0x28
  40af86:	62e3      	str	r3, [r4, #44]	; 0x2c
  40af88:	f104 0058 	add.w	r0, r4, #88	; 0x58
  40af8c:	e8bd 4010 	ldmia.w	sp!, {r4, lr}
  40af90:	f000 bbd2 	b.w	40b738 <__retarget_lock_init_recursive>
  40af94:	0040c8c5 	.word	0x0040c8c5
  40af98:	0040c8e9 	.word	0x0040c8e9
  40af9c:	0040c925 	.word	0x0040c925
  40afa0:	0040c945 	.word	0x0040c945

0040afa4 <__sinit>:
  40afa4:	b510      	push	{r4, lr}
  40afa6:	4604      	mov	r4, r0
  40afa8:	4812      	ldr	r0, [pc, #72]	; (40aff4 <__sinit+0x50>)
  40afaa:	f000 fbc9 	bl	40b740 <__retarget_lock_acquire_recursive>
  40afae:	6ba2      	ldr	r2, [r4, #56]	; 0x38
  40afb0:	b9d2      	cbnz	r2, 40afe8 <__sinit+0x44>
  40afb2:	f504 733b 	add.w	r3, r4, #748	; 0x2ec
  40afb6:	4810      	ldr	r0, [pc, #64]	; (40aff8 <__sinit+0x54>)
  40afb8:	f8c4 32e8 	str.w	r3, [r4, #744]	; 0x2e8
  40afbc:	2103      	movs	r1, #3
  40afbe:	f8c4 22e0 	str.w	r2, [r4, #736]	; 0x2e0
  40afc2:	63e0      	str	r0, [r4, #60]	; 0x3c
  40afc4:	f8c4 12e4 	str.w	r1, [r4, #740]	; 0x2e4
  40afc8:	6860      	ldr	r0, [r4, #4]
  40afca:	2104      	movs	r1, #4
  40afcc:	f7ff ffc2 	bl	40af54 <std.isra.0>
  40afd0:	2201      	movs	r2, #1
  40afd2:	2109      	movs	r1, #9
  40afd4:	68a0      	ldr	r0, [r4, #8]
  40afd6:	f7ff ffbd 	bl	40af54 <std.isra.0>
  40afda:	2202      	movs	r2, #2
  40afdc:	2112      	movs	r1, #18
  40afde:	68e0      	ldr	r0, [r4, #12]
  40afe0:	f7ff ffb8 	bl	40af54 <std.isra.0>
  40afe4:	2301      	movs	r3, #1
  40afe6:	63a3      	str	r3, [r4, #56]	; 0x38
  40afe8:	4802      	ldr	r0, [pc, #8]	; (40aff4 <__sinit+0x50>)
  40afea:	e8bd 4010 	ldmia.w	sp!, {r4, lr}
  40afee:	f000 bba9 	b.w	40b744 <__retarget_lock_release_recursive>
  40aff2:	bf00      	nop
  40aff4:	2040cfbc 	.word	0x2040cfbc
  40aff8:	0040af49 	.word	0x0040af49

0040affc <__sfp_lock_acquire>:
  40affc:	4801      	ldr	r0, [pc, #4]	; (40b004 <__sfp_lock_acquire+0x8>)
  40affe:	f000 bb9f 	b.w	40b740 <__retarget_lock_acquire_recursive>
  40b002:	bf00      	nop
  40b004:	2040cfd0 	.word	0x2040cfd0

0040b008 <__sfp_lock_release>:
  40b008:	4801      	ldr	r0, [pc, #4]	; (40b010 <__sfp_lock_release+0x8>)
  40b00a:	f000 bb9b 	b.w	40b744 <__retarget_lock_release_recursive>
  40b00e:	bf00      	nop
  40b010:	2040cfd0 	.word	0x2040cfd0

0040b014 <__libc_fini_array>:
  40b014:	b538      	push	{r3, r4, r5, lr}
  40b016:	4c0a      	ldr	r4, [pc, #40]	; (40b040 <__libc_fini_array+0x2c>)
  40b018:	4d0a      	ldr	r5, [pc, #40]	; (40b044 <__libc_fini_array+0x30>)
  40b01a:	1b64      	subs	r4, r4, r5
  40b01c:	10a4      	asrs	r4, r4, #2
  40b01e:	d00a      	beq.n	40b036 <__libc_fini_array+0x22>
  40b020:	f104 4380 	add.w	r3, r4, #1073741824	; 0x40000000
  40b024:	3b01      	subs	r3, #1
  40b026:	eb05 0583 	add.w	r5, r5, r3, lsl #2
  40b02a:	3c01      	subs	r4, #1
  40b02c:	f855 3904 	ldr.w	r3, [r5], #-4
  40b030:	4798      	blx	r3
  40b032:	2c00      	cmp	r4, #0
  40b034:	d1f9      	bne.n	40b02a <__libc_fini_array+0x16>
  40b036:	e8bd 4038 	ldmia.w	sp!, {r3, r4, r5, lr}
  40b03a:	f003 ba8f 	b.w	40e55c <_fini>
  40b03e:	bf00      	nop
  40b040:	0040e56c 	.word	0x0040e56c
  40b044:	0040e568 	.word	0x0040e568

0040b048 <__fputwc>:
  40b048:	e92d 47f0 	stmdb	sp!, {r4, r5, r6, r7, r8, r9, sl, lr}
  40b04c:	b082      	sub	sp, #8
  40b04e:	4680      	mov	r8, r0
  40b050:	4689      	mov	r9, r1
  40b052:	4614      	mov	r4, r2
  40b054:	f000 fb54 	bl	40b700 <__locale_mb_cur_max>
  40b058:	2801      	cmp	r0, #1
  40b05a:	d036      	beq.n	40b0ca <__fputwc+0x82>
  40b05c:	464a      	mov	r2, r9
  40b05e:	f104 035c 	add.w	r3, r4, #92	; 0x5c
  40b062:	a901      	add	r1, sp, #4
  40b064:	4640      	mov	r0, r8
  40b066:	f001 fd47 	bl	40caf8 <_wcrtomb_r>
  40b06a:	1c42      	adds	r2, r0, #1
  40b06c:	4606      	mov	r6, r0
  40b06e:	d025      	beq.n	40b0bc <__fputwc+0x74>
  40b070:	b3a8      	cbz	r0, 40b0de <__fputwc+0x96>
  40b072:	f89d e004 	ldrb.w	lr, [sp, #4]
  40b076:	2500      	movs	r5, #0
  40b078:	f10d 0a04 	add.w	sl, sp, #4
  40b07c:	e009      	b.n	40b092 <__fputwc+0x4a>
  40b07e:	6823      	ldr	r3, [r4, #0]
  40b080:	1c5a      	adds	r2, r3, #1
  40b082:	6022      	str	r2, [r4, #0]
  40b084:	f883 e000 	strb.w	lr, [r3]
  40b088:	3501      	adds	r5, #1
  40b08a:	42b5      	cmp	r5, r6
  40b08c:	d227      	bcs.n	40b0de <__fputwc+0x96>
  40b08e:	f815 e00a 	ldrb.w	lr, [r5, sl]
  40b092:	68a3      	ldr	r3, [r4, #8]
  40b094:	3b01      	subs	r3, #1
  40b096:	2b00      	cmp	r3, #0
  40b098:	60a3      	str	r3, [r4, #8]
  40b09a:	daf0      	bge.n	40b07e <__fputwc+0x36>
  40b09c:	69a7      	ldr	r7, [r4, #24]
  40b09e:	42bb      	cmp	r3, r7
  40b0a0:	4671      	mov	r1, lr
  40b0a2:	4622      	mov	r2, r4
  40b0a4:	4640      	mov	r0, r8
  40b0a6:	db02      	blt.n	40b0ae <__fputwc+0x66>
  40b0a8:	f1be 0f0a 	cmp.w	lr, #10
  40b0ac:	d1e7      	bne.n	40b07e <__fputwc+0x36>
  40b0ae:	f001 fccb 	bl	40ca48 <__swbuf_r>
  40b0b2:	1c43      	adds	r3, r0, #1
  40b0b4:	d1e8      	bne.n	40b088 <__fputwc+0x40>
  40b0b6:	b002      	add	sp, #8
  40b0b8:	e8bd 87f0 	ldmia.w	sp!, {r4, r5, r6, r7, r8, r9, sl, pc}
  40b0bc:	89a3      	ldrh	r3, [r4, #12]
  40b0be:	f043 0340 	orr.w	r3, r3, #64	; 0x40
  40b0c2:	81a3      	strh	r3, [r4, #12]
  40b0c4:	b002      	add	sp, #8
  40b0c6:	e8bd 87f0 	ldmia.w	sp!, {r4, r5, r6, r7, r8, r9, sl, pc}
  40b0ca:	f109 33ff 	add.w	r3, r9, #4294967295
  40b0ce:	2bfe      	cmp	r3, #254	; 0xfe
  40b0d0:	d8c4      	bhi.n	40b05c <__fputwc+0x14>
  40b0d2:	fa5f fe89 	uxtb.w	lr, r9
  40b0d6:	4606      	mov	r6, r0
  40b0d8:	f88d e004 	strb.w	lr, [sp, #4]
  40b0dc:	e7cb      	b.n	40b076 <__fputwc+0x2e>
  40b0de:	4648      	mov	r0, r9
  40b0e0:	b002      	add	sp, #8
  40b0e2:	e8bd 87f0 	ldmia.w	sp!, {r4, r5, r6, r7, r8, r9, sl, pc}
  40b0e6:	bf00      	nop

0040b0e8 <_fputwc_r>:
  40b0e8:	b530      	push	{r4, r5, lr}
  40b0ea:	6e53      	ldr	r3, [r2, #100]	; 0x64
  40b0ec:	f013 0f01 	tst.w	r3, #1
  40b0f0:	f9b2 300c 	ldrsh.w	r3, [r2, #12]
  40b0f4:	4614      	mov	r4, r2
  40b0f6:	b083      	sub	sp, #12
  40b0f8:	4605      	mov	r5, r0
  40b0fa:	b29a      	uxth	r2, r3
  40b0fc:	d101      	bne.n	40b102 <_fputwc_r+0x1a>
  40b0fe:	0590      	lsls	r0, r2, #22
  40b100:	d51c      	bpl.n	40b13c <_fputwc_r+0x54>
  40b102:	0490      	lsls	r0, r2, #18
  40b104:	d406      	bmi.n	40b114 <_fputwc_r+0x2c>
  40b106:	6e62      	ldr	r2, [r4, #100]	; 0x64
  40b108:	f443 5300 	orr.w	r3, r3, #8192	; 0x2000
  40b10c:	f442 5200 	orr.w	r2, r2, #8192	; 0x2000
  40b110:	81a3      	strh	r3, [r4, #12]
  40b112:	6662      	str	r2, [r4, #100]	; 0x64
  40b114:	4628      	mov	r0, r5
  40b116:	4622      	mov	r2, r4
  40b118:	f7ff ff96 	bl	40b048 <__fputwc>
  40b11c:	6e63      	ldr	r3, [r4, #100]	; 0x64
  40b11e:	07da      	lsls	r2, r3, #31
  40b120:	4605      	mov	r5, r0
  40b122:	d402      	bmi.n	40b12a <_fputwc_r+0x42>
  40b124:	89a3      	ldrh	r3, [r4, #12]
  40b126:	059b      	lsls	r3, r3, #22
  40b128:	d502      	bpl.n	40b130 <_fputwc_r+0x48>
  40b12a:	4628      	mov	r0, r5
  40b12c:	b003      	add	sp, #12
  40b12e:	bd30      	pop	{r4, r5, pc}
  40b130:	6da0      	ldr	r0, [r4, #88]	; 0x58
  40b132:	f000 fb07 	bl	40b744 <__retarget_lock_release_recursive>
  40b136:	4628      	mov	r0, r5
  40b138:	b003      	add	sp, #12
  40b13a:	bd30      	pop	{r4, r5, pc}
  40b13c:	6da0      	ldr	r0, [r4, #88]	; 0x58
  40b13e:	9101      	str	r1, [sp, #4]
  40b140:	f000 fafe 	bl	40b740 <__retarget_lock_acquire_recursive>
  40b144:	f9b4 300c 	ldrsh.w	r3, [r4, #12]
  40b148:	9901      	ldr	r1, [sp, #4]
  40b14a:	b29a      	uxth	r2, r3
  40b14c:	e7d9      	b.n	40b102 <_fputwc_r+0x1a>
  40b14e:	bf00      	nop

0040b150 <_malloc_trim_r>:
  40b150:	b5f8      	push	{r3, r4, r5, r6, r7, lr}
  40b152:	4f24      	ldr	r7, [pc, #144]	; (40b1e4 <_malloc_trim_r+0x94>)
  40b154:	460c      	mov	r4, r1
  40b156:	4606      	mov	r6, r0
  40b158:	f000 fef6 	bl	40bf48 <__malloc_lock>
  40b15c:	68bb      	ldr	r3, [r7, #8]
  40b15e:	685d      	ldr	r5, [r3, #4]
  40b160:	f5c4 617e 	rsb	r1, r4, #4064	; 0xfe0
  40b164:	310f      	adds	r1, #15
  40b166:	f025 0503 	bic.w	r5, r5, #3
  40b16a:	4429      	add	r1, r5
  40b16c:	f421 617f 	bic.w	r1, r1, #4080	; 0xff0
  40b170:	f021 010f 	bic.w	r1, r1, #15
  40b174:	f5a1 5480 	sub.w	r4, r1, #4096	; 0x1000
  40b178:	f5b4 5f80 	cmp.w	r4, #4096	; 0x1000
  40b17c:	db07      	blt.n	40b18e <_malloc_trim_r+0x3e>
  40b17e:	2100      	movs	r1, #0
  40b180:	4630      	mov	r0, r6
  40b182:	f001 fb8d 	bl	40c8a0 <_sbrk_r>
  40b186:	68bb      	ldr	r3, [r7, #8]
  40b188:	442b      	add	r3, r5
  40b18a:	4298      	cmp	r0, r3
  40b18c:	d004      	beq.n	40b198 <_malloc_trim_r+0x48>
  40b18e:	4630      	mov	r0, r6
  40b190:	f000 fee0 	bl	40bf54 <__malloc_unlock>
  40b194:	2000      	movs	r0, #0
  40b196:	bdf8      	pop	{r3, r4, r5, r6, r7, pc}
  40b198:	4261      	negs	r1, r4
  40b19a:	4630      	mov	r0, r6
  40b19c:	f001 fb80 	bl	40c8a0 <_sbrk_r>
  40b1a0:	3001      	adds	r0, #1
  40b1a2:	d00d      	beq.n	40b1c0 <_malloc_trim_r+0x70>
  40b1a4:	4b10      	ldr	r3, [pc, #64]	; (40b1e8 <_malloc_trim_r+0x98>)
  40b1a6:	68ba      	ldr	r2, [r7, #8]
  40b1a8:	6819      	ldr	r1, [r3, #0]
  40b1aa:	1b2d      	subs	r5, r5, r4
  40b1ac:	f045 0501 	orr.w	r5, r5, #1
  40b1b0:	4630      	mov	r0, r6
  40b1b2:	1b09      	subs	r1, r1, r4
  40b1b4:	6055      	str	r5, [r2, #4]
  40b1b6:	6019      	str	r1, [r3, #0]
  40b1b8:	f000 fecc 	bl	40bf54 <__malloc_unlock>
  40b1bc:	2001      	movs	r0, #1
  40b1be:	bdf8      	pop	{r3, r4, r5, r6, r7, pc}
  40b1c0:	2100      	movs	r1, #0
  40b1c2:	4630      	mov	r0, r6
  40b1c4:	f001 fb6c 	bl	40c8a0 <_sbrk_r>
  40b1c8:	68ba      	ldr	r2, [r7, #8]
  40b1ca:	1a83      	subs	r3, r0, r2
  40b1cc:	2b0f      	cmp	r3, #15
  40b1ce:	ddde      	ble.n	40b18e <_malloc_trim_r+0x3e>
  40b1d0:	4c06      	ldr	r4, [pc, #24]	; (40b1ec <_malloc_trim_r+0x9c>)
  40b1d2:	4905      	ldr	r1, [pc, #20]	; (40b1e8 <_malloc_trim_r+0x98>)
  40b1d4:	6824      	ldr	r4, [r4, #0]
  40b1d6:	f043 0301 	orr.w	r3, r3, #1
  40b1da:	1b00      	subs	r0, r0, r4
  40b1dc:	6053      	str	r3, [r2, #4]
  40b1de:	6008      	str	r0, [r1, #0]
  40b1e0:	e7d5      	b.n	40b18e <_malloc_trim_r+0x3e>
  40b1e2:	bf00      	nop
  40b1e4:	204005c8 	.word	0x204005c8
  40b1e8:	2040cd5c 	.word	0x2040cd5c
  40b1ec:	204009d0 	.word	0x204009d0

0040b1f0 <_free_r>:
  40b1f0:	2900      	cmp	r1, #0
  40b1f2:	d044      	beq.n	40b27e <_free_r+0x8e>
  40b1f4:	e92d 41f0 	stmdb	sp!, {r4, r5, r6, r7, r8, lr}
  40b1f8:	460d      	mov	r5, r1
  40b1fa:	4680      	mov	r8, r0
  40b1fc:	f000 fea4 	bl	40bf48 <__malloc_lock>
  40b200:	f855 7c04 	ldr.w	r7, [r5, #-4]
  40b204:	4969      	ldr	r1, [pc, #420]	; (40b3ac <_free_r+0x1bc>)
  40b206:	f027 0301 	bic.w	r3, r7, #1
  40b20a:	f1a5 0408 	sub.w	r4, r5, #8
  40b20e:	18e2      	adds	r2, r4, r3
  40b210:	688e      	ldr	r6, [r1, #8]
  40b212:	6850      	ldr	r0, [r2, #4]
  40b214:	42b2      	cmp	r2, r6
  40b216:	f020 0003 	bic.w	r0, r0, #3
  40b21a:	d05e      	beq.n	40b2da <_free_r+0xea>
  40b21c:	07fe      	lsls	r6, r7, #31
  40b21e:	6050      	str	r0, [r2, #4]
  40b220:	d40b      	bmi.n	40b23a <_free_r+0x4a>
  40b222:	f855 7c08 	ldr.w	r7, [r5, #-8]
  40b226:	1be4      	subs	r4, r4, r7
  40b228:	f101 0e08 	add.w	lr, r1, #8
  40b22c:	68a5      	ldr	r5, [r4, #8]
  40b22e:	4575      	cmp	r5, lr
  40b230:	443b      	add	r3, r7
  40b232:	d06d      	beq.n	40b310 <_free_r+0x120>
  40b234:	68e7      	ldr	r7, [r4, #12]
  40b236:	60ef      	str	r7, [r5, #12]
  40b238:	60bd      	str	r5, [r7, #8]
  40b23a:	1815      	adds	r5, r2, r0
  40b23c:	686d      	ldr	r5, [r5, #4]
  40b23e:	07ed      	lsls	r5, r5, #31
  40b240:	d53e      	bpl.n	40b2c0 <_free_r+0xd0>
  40b242:	f043 0201 	orr.w	r2, r3, #1
  40b246:	6062      	str	r2, [r4, #4]
  40b248:	50e3      	str	r3, [r4, r3]
  40b24a:	f5b3 7f00 	cmp.w	r3, #512	; 0x200
  40b24e:	d217      	bcs.n	40b280 <_free_r+0x90>
  40b250:	08db      	lsrs	r3, r3, #3
  40b252:	1c58      	adds	r0, r3, #1
  40b254:	109a      	asrs	r2, r3, #2
  40b256:	684d      	ldr	r5, [r1, #4]
  40b258:	f851 7030 	ldr.w	r7, [r1, r0, lsl #3]
  40b25c:	60a7      	str	r7, [r4, #8]
  40b25e:	2301      	movs	r3, #1
  40b260:	4093      	lsls	r3, r2
  40b262:	eb01 02c0 	add.w	r2, r1, r0, lsl #3
  40b266:	432b      	orrs	r3, r5
  40b268:	3a08      	subs	r2, #8
  40b26a:	60e2      	str	r2, [r4, #12]
  40b26c:	604b      	str	r3, [r1, #4]
  40b26e:	f841 4030 	str.w	r4, [r1, r0, lsl #3]
  40b272:	60fc      	str	r4, [r7, #12]
  40b274:	4640      	mov	r0, r8
  40b276:	e8bd 41f0 	ldmia.w	sp!, {r4, r5, r6, r7, r8, lr}
  40b27a:	f000 be6b 	b.w	40bf54 <__malloc_unlock>
  40b27e:	4770      	bx	lr
  40b280:	0a5a      	lsrs	r2, r3, #9
  40b282:	2a04      	cmp	r2, #4
  40b284:	d852      	bhi.n	40b32c <_free_r+0x13c>
  40b286:	099a      	lsrs	r2, r3, #6
  40b288:	f102 0739 	add.w	r7, r2, #57	; 0x39
  40b28c:	00ff      	lsls	r7, r7, #3
  40b28e:	f102 0538 	add.w	r5, r2, #56	; 0x38
  40b292:	19c8      	adds	r0, r1, r7
  40b294:	59ca      	ldr	r2, [r1, r7]
  40b296:	3808      	subs	r0, #8
  40b298:	4290      	cmp	r0, r2
  40b29a:	d04f      	beq.n	40b33c <_free_r+0x14c>
  40b29c:	6851      	ldr	r1, [r2, #4]
  40b29e:	f021 0103 	bic.w	r1, r1, #3
  40b2a2:	428b      	cmp	r3, r1
  40b2a4:	d232      	bcs.n	40b30c <_free_r+0x11c>
  40b2a6:	6892      	ldr	r2, [r2, #8]
  40b2a8:	4290      	cmp	r0, r2
  40b2aa:	d1f7      	bne.n	40b29c <_free_r+0xac>
  40b2ac:	68c3      	ldr	r3, [r0, #12]
  40b2ae:	60a0      	str	r0, [r4, #8]
  40b2b0:	60e3      	str	r3, [r4, #12]
  40b2b2:	609c      	str	r4, [r3, #8]
  40b2b4:	60c4      	str	r4, [r0, #12]
  40b2b6:	4640      	mov	r0, r8
  40b2b8:	e8bd 41f0 	ldmia.w	sp!, {r4, r5, r6, r7, r8, lr}
  40b2bc:	f000 be4a 	b.w	40bf54 <__malloc_unlock>
  40b2c0:	6895      	ldr	r5, [r2, #8]
  40b2c2:	4f3b      	ldr	r7, [pc, #236]	; (40b3b0 <_free_r+0x1c0>)
  40b2c4:	42bd      	cmp	r5, r7
  40b2c6:	4403      	add	r3, r0
  40b2c8:	d040      	beq.n	40b34c <_free_r+0x15c>
  40b2ca:	68d0      	ldr	r0, [r2, #12]
  40b2cc:	60e8      	str	r0, [r5, #12]
  40b2ce:	f043 0201 	orr.w	r2, r3, #1
  40b2d2:	6085      	str	r5, [r0, #8]
  40b2d4:	6062      	str	r2, [r4, #4]
  40b2d6:	50e3      	str	r3, [r4, r3]
  40b2d8:	e7b7      	b.n	40b24a <_free_r+0x5a>
  40b2da:	07ff      	lsls	r7, r7, #31
  40b2dc:	4403      	add	r3, r0
  40b2de:	d407      	bmi.n	40b2f0 <_free_r+0x100>
  40b2e0:	f855 2c08 	ldr.w	r2, [r5, #-8]
  40b2e4:	1aa4      	subs	r4, r4, r2
  40b2e6:	4413      	add	r3, r2
  40b2e8:	68a0      	ldr	r0, [r4, #8]
  40b2ea:	68e2      	ldr	r2, [r4, #12]
  40b2ec:	60c2      	str	r2, [r0, #12]
  40b2ee:	6090      	str	r0, [r2, #8]
  40b2f0:	4a30      	ldr	r2, [pc, #192]	; (40b3b4 <_free_r+0x1c4>)
  40b2f2:	6812      	ldr	r2, [r2, #0]
  40b2f4:	f043 0001 	orr.w	r0, r3, #1
  40b2f8:	4293      	cmp	r3, r2
  40b2fa:	6060      	str	r0, [r4, #4]
  40b2fc:	608c      	str	r4, [r1, #8]
  40b2fe:	d3b9      	bcc.n	40b274 <_free_r+0x84>
  40b300:	4b2d      	ldr	r3, [pc, #180]	; (40b3b8 <_free_r+0x1c8>)
  40b302:	4640      	mov	r0, r8
  40b304:	6819      	ldr	r1, [r3, #0]
  40b306:	f7ff ff23 	bl	40b150 <_malloc_trim_r>
  40b30a:	e7b3      	b.n	40b274 <_free_r+0x84>
  40b30c:	4610      	mov	r0, r2
  40b30e:	e7cd      	b.n	40b2ac <_free_r+0xbc>
  40b310:	1811      	adds	r1, r2, r0
  40b312:	6849      	ldr	r1, [r1, #4]
  40b314:	07c9      	lsls	r1, r1, #31
  40b316:	d444      	bmi.n	40b3a2 <_free_r+0x1b2>
  40b318:	6891      	ldr	r1, [r2, #8]
  40b31a:	68d2      	ldr	r2, [r2, #12]
  40b31c:	60ca      	str	r2, [r1, #12]
  40b31e:	4403      	add	r3, r0
  40b320:	f043 0001 	orr.w	r0, r3, #1
  40b324:	6091      	str	r1, [r2, #8]
  40b326:	6060      	str	r0, [r4, #4]
  40b328:	50e3      	str	r3, [r4, r3]
  40b32a:	e7a3      	b.n	40b274 <_free_r+0x84>
  40b32c:	2a14      	cmp	r2, #20
  40b32e:	d816      	bhi.n	40b35e <_free_r+0x16e>
  40b330:	f102 075c 	add.w	r7, r2, #92	; 0x5c
  40b334:	00ff      	lsls	r7, r7, #3
  40b336:	f102 055b 	add.w	r5, r2, #91	; 0x5b
  40b33a:	e7aa      	b.n	40b292 <_free_r+0xa2>
  40b33c:	10aa      	asrs	r2, r5, #2
  40b33e:	2301      	movs	r3, #1
  40b340:	684d      	ldr	r5, [r1, #4]
  40b342:	4093      	lsls	r3, r2
  40b344:	432b      	orrs	r3, r5
  40b346:	604b      	str	r3, [r1, #4]
  40b348:	4603      	mov	r3, r0
  40b34a:	e7b0      	b.n	40b2ae <_free_r+0xbe>
  40b34c:	f043 0201 	orr.w	r2, r3, #1
  40b350:	614c      	str	r4, [r1, #20]
  40b352:	610c      	str	r4, [r1, #16]
  40b354:	60e5      	str	r5, [r4, #12]
  40b356:	60a5      	str	r5, [r4, #8]
  40b358:	6062      	str	r2, [r4, #4]
  40b35a:	50e3      	str	r3, [r4, r3]
  40b35c:	e78a      	b.n	40b274 <_free_r+0x84>
  40b35e:	2a54      	cmp	r2, #84	; 0x54
  40b360:	d806      	bhi.n	40b370 <_free_r+0x180>
  40b362:	0b1a      	lsrs	r2, r3, #12
  40b364:	f102 076f 	add.w	r7, r2, #111	; 0x6f
  40b368:	00ff      	lsls	r7, r7, #3
  40b36a:	f102 056e 	add.w	r5, r2, #110	; 0x6e
  40b36e:	e790      	b.n	40b292 <_free_r+0xa2>
  40b370:	f5b2 7faa 	cmp.w	r2, #340	; 0x154
  40b374:	d806      	bhi.n	40b384 <_free_r+0x194>
  40b376:	0bda      	lsrs	r2, r3, #15
  40b378:	f102 0778 	add.w	r7, r2, #120	; 0x78
  40b37c:	00ff      	lsls	r7, r7, #3
  40b37e:	f102 0577 	add.w	r5, r2, #119	; 0x77
  40b382:	e786      	b.n	40b292 <_free_r+0xa2>
  40b384:	f240 5054 	movw	r0, #1364	; 0x554
  40b388:	4282      	cmp	r2, r0
  40b38a:	d806      	bhi.n	40b39a <_free_r+0x1aa>
  40b38c:	0c9a      	lsrs	r2, r3, #18
  40b38e:	f102 077d 	add.w	r7, r2, #125	; 0x7d
  40b392:	00ff      	lsls	r7, r7, #3
  40b394:	f102 057c 	add.w	r5, r2, #124	; 0x7c
  40b398:	e77b      	b.n	40b292 <_free_r+0xa2>
  40b39a:	f44f 777e 	mov.w	r7, #1016	; 0x3f8
  40b39e:	257e      	movs	r5, #126	; 0x7e
  40b3a0:	e777      	b.n	40b292 <_free_r+0xa2>
  40b3a2:	f043 0101 	orr.w	r1, r3, #1
  40b3a6:	6061      	str	r1, [r4, #4]
  40b3a8:	6013      	str	r3, [r2, #0]
  40b3aa:	e763      	b.n	40b274 <_free_r+0x84>
  40b3ac:	204005c8 	.word	0x204005c8
  40b3b0:	204005d0 	.word	0x204005d0
  40b3b4:	204009d4 	.word	0x204009d4
  40b3b8:	2040cd8c 	.word	0x2040cd8c

0040b3bc <__sfvwrite_r>:
  40b3bc:	6893      	ldr	r3, [r2, #8]
  40b3be:	2b00      	cmp	r3, #0
  40b3c0:	d073      	beq.n	40b4aa <__sfvwrite_r+0xee>
  40b3c2:	e92d 4ff0 	stmdb	sp!, {r4, r5, r6, r7, r8, r9, sl, fp, lr}
  40b3c6:	898b      	ldrh	r3, [r1, #12]
  40b3c8:	b083      	sub	sp, #12
  40b3ca:	460c      	mov	r4, r1
  40b3cc:	0719      	lsls	r1, r3, #28
  40b3ce:	9000      	str	r0, [sp, #0]
  40b3d0:	4616      	mov	r6, r2
  40b3d2:	d526      	bpl.n	40b422 <__sfvwrite_r+0x66>
  40b3d4:	6922      	ldr	r2, [r4, #16]
  40b3d6:	b322      	cbz	r2, 40b422 <__sfvwrite_r+0x66>
  40b3d8:	f013 0002 	ands.w	r0, r3, #2
  40b3dc:	6835      	ldr	r5, [r6, #0]
  40b3de:	d02c      	beq.n	40b43a <__sfvwrite_r+0x7e>
  40b3e0:	f04f 0900 	mov.w	r9, #0
  40b3e4:	4fb0      	ldr	r7, [pc, #704]	; (40b6a8 <__sfvwrite_r+0x2ec>)
  40b3e6:	46c8      	mov	r8, r9
  40b3e8:	46b2      	mov	sl, r6
  40b3ea:	45b8      	cmp	r8, r7
  40b3ec:	4643      	mov	r3, r8
  40b3ee:	464a      	mov	r2, r9
  40b3f0:	bf28      	it	cs
  40b3f2:	463b      	movcs	r3, r7
  40b3f4:	9800      	ldr	r0, [sp, #0]
  40b3f6:	f1b8 0f00 	cmp.w	r8, #0
  40b3fa:	d050      	beq.n	40b49e <__sfvwrite_r+0xe2>
  40b3fc:	69e1      	ldr	r1, [r4, #28]
  40b3fe:	6a66      	ldr	r6, [r4, #36]	; 0x24
  40b400:	47b0      	blx	r6
  40b402:	2800      	cmp	r0, #0
  40b404:	dd58      	ble.n	40b4b8 <__sfvwrite_r+0xfc>
  40b406:	f8da 3008 	ldr.w	r3, [sl, #8]
  40b40a:	1a1b      	subs	r3, r3, r0
  40b40c:	4481      	add	r9, r0
  40b40e:	eba8 0800 	sub.w	r8, r8, r0
  40b412:	f8ca 3008 	str.w	r3, [sl, #8]
  40b416:	2b00      	cmp	r3, #0
  40b418:	d1e7      	bne.n	40b3ea <__sfvwrite_r+0x2e>
  40b41a:	2000      	movs	r0, #0
  40b41c:	b003      	add	sp, #12
  40b41e:	e8bd 8ff0 	ldmia.w	sp!, {r4, r5, r6, r7, r8, r9, sl, fp, pc}
  40b422:	4621      	mov	r1, r4
  40b424:	9800      	ldr	r0, [sp, #0]
  40b426:	f7fe fc91 	bl	409d4c <__swsetup_r>
  40b42a:	2800      	cmp	r0, #0
  40b42c:	f040 8133 	bne.w	40b696 <__sfvwrite_r+0x2da>
  40b430:	89a3      	ldrh	r3, [r4, #12]
  40b432:	6835      	ldr	r5, [r6, #0]
  40b434:	f013 0002 	ands.w	r0, r3, #2
  40b438:	d1d2      	bne.n	40b3e0 <__sfvwrite_r+0x24>
  40b43a:	f013 0901 	ands.w	r9, r3, #1
  40b43e:	d145      	bne.n	40b4cc <__sfvwrite_r+0x110>
  40b440:	464f      	mov	r7, r9
  40b442:	9601      	str	r6, [sp, #4]
  40b444:	b337      	cbz	r7, 40b494 <__sfvwrite_r+0xd8>
  40b446:	059a      	lsls	r2, r3, #22
  40b448:	f8d4 8008 	ldr.w	r8, [r4, #8]
  40b44c:	f140 8083 	bpl.w	40b556 <__sfvwrite_r+0x19a>
  40b450:	4547      	cmp	r7, r8
  40b452:	46c3      	mov	fp, r8
  40b454:	f0c0 80ab 	bcc.w	40b5ae <__sfvwrite_r+0x1f2>
  40b458:	f413 6f90 	tst.w	r3, #1152	; 0x480
  40b45c:	f040 80ac 	bne.w	40b5b8 <__sfvwrite_r+0x1fc>
  40b460:	6820      	ldr	r0, [r4, #0]
  40b462:	46ba      	mov	sl, r7
  40b464:	465a      	mov	r2, fp
  40b466:	4649      	mov	r1, r9
  40b468:	f000 fd0a 	bl	40be80 <memmove>
  40b46c:	68a2      	ldr	r2, [r4, #8]
  40b46e:	6823      	ldr	r3, [r4, #0]
  40b470:	eba2 0208 	sub.w	r2, r2, r8
  40b474:	445b      	add	r3, fp
  40b476:	60a2      	str	r2, [r4, #8]
  40b478:	6023      	str	r3, [r4, #0]
  40b47a:	9a01      	ldr	r2, [sp, #4]
  40b47c:	6893      	ldr	r3, [r2, #8]
  40b47e:	eba3 030a 	sub.w	r3, r3, sl
  40b482:	44d1      	add	r9, sl
  40b484:	eba7 070a 	sub.w	r7, r7, sl
  40b488:	6093      	str	r3, [r2, #8]
  40b48a:	2b00      	cmp	r3, #0
  40b48c:	d0c5      	beq.n	40b41a <__sfvwrite_r+0x5e>
  40b48e:	89a3      	ldrh	r3, [r4, #12]
  40b490:	2f00      	cmp	r7, #0
  40b492:	d1d8      	bne.n	40b446 <__sfvwrite_r+0x8a>
  40b494:	f8d5 9000 	ldr.w	r9, [r5]
  40b498:	686f      	ldr	r7, [r5, #4]
  40b49a:	3508      	adds	r5, #8
  40b49c:	e7d2      	b.n	40b444 <__sfvwrite_r+0x88>
  40b49e:	f8d5 9000 	ldr.w	r9, [r5]
  40b4a2:	f8d5 8004 	ldr.w	r8, [r5, #4]
  40b4a6:	3508      	adds	r5, #8
  40b4a8:	e79f      	b.n	40b3ea <__sfvwrite_r+0x2e>
  40b4aa:	2000      	movs	r0, #0
  40b4ac:	4770      	bx	lr
  40b4ae:	4621      	mov	r1, r4
  40b4b0:	9800      	ldr	r0, [sp, #0]
  40b4b2:	f7ff fd1f 	bl	40aef4 <_fflush_r>
  40b4b6:	b370      	cbz	r0, 40b516 <__sfvwrite_r+0x15a>
  40b4b8:	f9b4 300c 	ldrsh.w	r3, [r4, #12]
  40b4bc:	f043 0340 	orr.w	r3, r3, #64	; 0x40
  40b4c0:	f04f 30ff 	mov.w	r0, #4294967295
  40b4c4:	81a3      	strh	r3, [r4, #12]
  40b4c6:	b003      	add	sp, #12
  40b4c8:	e8bd 8ff0 	ldmia.w	sp!, {r4, r5, r6, r7, r8, r9, sl, fp, pc}
  40b4cc:	4681      	mov	r9, r0
  40b4ce:	4633      	mov	r3, r6
  40b4d0:	464e      	mov	r6, r9
  40b4d2:	46a8      	mov	r8, r5
  40b4d4:	469a      	mov	sl, r3
  40b4d6:	464d      	mov	r5, r9
  40b4d8:	b34e      	cbz	r6, 40b52e <__sfvwrite_r+0x172>
  40b4da:	b380      	cbz	r0, 40b53e <__sfvwrite_r+0x182>
  40b4dc:	6820      	ldr	r0, [r4, #0]
  40b4de:	6923      	ldr	r3, [r4, #16]
  40b4e0:	6962      	ldr	r2, [r4, #20]
  40b4e2:	45b1      	cmp	r9, r6
  40b4e4:	46cb      	mov	fp, r9
  40b4e6:	bf28      	it	cs
  40b4e8:	46b3      	movcs	fp, r6
  40b4ea:	4298      	cmp	r0, r3
  40b4ec:	465f      	mov	r7, fp
  40b4ee:	d904      	bls.n	40b4fa <__sfvwrite_r+0x13e>
  40b4f0:	68a3      	ldr	r3, [r4, #8]
  40b4f2:	4413      	add	r3, r2
  40b4f4:	459b      	cmp	fp, r3
  40b4f6:	f300 80a6 	bgt.w	40b646 <__sfvwrite_r+0x28a>
  40b4fa:	4593      	cmp	fp, r2
  40b4fc:	db4b      	blt.n	40b596 <__sfvwrite_r+0x1da>
  40b4fe:	4613      	mov	r3, r2
  40b500:	6a67      	ldr	r7, [r4, #36]	; 0x24
  40b502:	69e1      	ldr	r1, [r4, #28]
  40b504:	9800      	ldr	r0, [sp, #0]
  40b506:	462a      	mov	r2, r5
  40b508:	47b8      	blx	r7
  40b50a:	1e07      	subs	r7, r0, #0
  40b50c:	ddd4      	ble.n	40b4b8 <__sfvwrite_r+0xfc>
  40b50e:	ebb9 0907 	subs.w	r9, r9, r7
  40b512:	d0cc      	beq.n	40b4ae <__sfvwrite_r+0xf2>
  40b514:	2001      	movs	r0, #1
  40b516:	f8da 3008 	ldr.w	r3, [sl, #8]
  40b51a:	1bdb      	subs	r3, r3, r7
  40b51c:	443d      	add	r5, r7
  40b51e:	1bf6      	subs	r6, r6, r7
  40b520:	f8ca 3008 	str.w	r3, [sl, #8]
  40b524:	2b00      	cmp	r3, #0
  40b526:	f43f af78 	beq.w	40b41a <__sfvwrite_r+0x5e>
  40b52a:	2e00      	cmp	r6, #0
  40b52c:	d1d5      	bne.n	40b4da <__sfvwrite_r+0x11e>
  40b52e:	f108 0308 	add.w	r3, r8, #8
  40b532:	e913 0060 	ldmdb	r3, {r5, r6}
  40b536:	4698      	mov	r8, r3
  40b538:	3308      	adds	r3, #8
  40b53a:	2e00      	cmp	r6, #0
  40b53c:	d0f9      	beq.n	40b532 <__sfvwrite_r+0x176>
  40b53e:	4632      	mov	r2, r6
  40b540:	210a      	movs	r1, #10
  40b542:	4628      	mov	r0, r5
  40b544:	f000 fc4c 	bl	40bde0 <memchr>
  40b548:	2800      	cmp	r0, #0
  40b54a:	f000 80a1 	beq.w	40b690 <__sfvwrite_r+0x2d4>
  40b54e:	3001      	adds	r0, #1
  40b550:	eba0 0905 	sub.w	r9, r0, r5
  40b554:	e7c2      	b.n	40b4dc <__sfvwrite_r+0x120>
  40b556:	6820      	ldr	r0, [r4, #0]
  40b558:	6923      	ldr	r3, [r4, #16]
  40b55a:	4298      	cmp	r0, r3
  40b55c:	d802      	bhi.n	40b564 <__sfvwrite_r+0x1a8>
  40b55e:	6963      	ldr	r3, [r4, #20]
  40b560:	429f      	cmp	r7, r3
  40b562:	d25d      	bcs.n	40b620 <__sfvwrite_r+0x264>
  40b564:	45b8      	cmp	r8, r7
  40b566:	bf28      	it	cs
  40b568:	46b8      	movcs	r8, r7
  40b56a:	4642      	mov	r2, r8
  40b56c:	4649      	mov	r1, r9
  40b56e:	f000 fc87 	bl	40be80 <memmove>
  40b572:	68a3      	ldr	r3, [r4, #8]
  40b574:	6822      	ldr	r2, [r4, #0]
  40b576:	eba3 0308 	sub.w	r3, r3, r8
  40b57a:	4442      	add	r2, r8
  40b57c:	60a3      	str	r3, [r4, #8]
  40b57e:	6022      	str	r2, [r4, #0]
  40b580:	b10b      	cbz	r3, 40b586 <__sfvwrite_r+0x1ca>
  40b582:	46c2      	mov	sl, r8
  40b584:	e779      	b.n	40b47a <__sfvwrite_r+0xbe>
  40b586:	4621      	mov	r1, r4
  40b588:	9800      	ldr	r0, [sp, #0]
  40b58a:	f7ff fcb3 	bl	40aef4 <_fflush_r>
  40b58e:	2800      	cmp	r0, #0
  40b590:	d192      	bne.n	40b4b8 <__sfvwrite_r+0xfc>
  40b592:	46c2      	mov	sl, r8
  40b594:	e771      	b.n	40b47a <__sfvwrite_r+0xbe>
  40b596:	465a      	mov	r2, fp
  40b598:	4629      	mov	r1, r5
  40b59a:	f000 fc71 	bl	40be80 <memmove>
  40b59e:	68a2      	ldr	r2, [r4, #8]
  40b5a0:	6823      	ldr	r3, [r4, #0]
  40b5a2:	eba2 020b 	sub.w	r2, r2, fp
  40b5a6:	445b      	add	r3, fp
  40b5a8:	60a2      	str	r2, [r4, #8]
  40b5aa:	6023      	str	r3, [r4, #0]
  40b5ac:	e7af      	b.n	40b50e <__sfvwrite_r+0x152>
  40b5ae:	6820      	ldr	r0, [r4, #0]
  40b5b0:	46b8      	mov	r8, r7
  40b5b2:	46ba      	mov	sl, r7
  40b5b4:	46bb      	mov	fp, r7
  40b5b6:	e755      	b.n	40b464 <__sfvwrite_r+0xa8>
  40b5b8:	6962      	ldr	r2, [r4, #20]
  40b5ba:	6820      	ldr	r0, [r4, #0]
  40b5bc:	6921      	ldr	r1, [r4, #16]
  40b5be:	eb02 0842 	add.w	r8, r2, r2, lsl #1
  40b5c2:	eba0 0a01 	sub.w	sl, r0, r1
  40b5c6:	eb08 78d8 	add.w	r8, r8, r8, lsr #31
  40b5ca:	f10a 0001 	add.w	r0, sl, #1
  40b5ce:	ea4f 0868 	mov.w	r8, r8, asr #1
  40b5d2:	4438      	add	r0, r7
  40b5d4:	4540      	cmp	r0, r8
  40b5d6:	4642      	mov	r2, r8
  40b5d8:	bf84      	itt	hi
  40b5da:	4680      	movhi	r8, r0
  40b5dc:	4642      	movhi	r2, r8
  40b5de:	055b      	lsls	r3, r3, #21
  40b5e0:	d544      	bpl.n	40b66c <__sfvwrite_r+0x2b0>
  40b5e2:	4611      	mov	r1, r2
  40b5e4:	9800      	ldr	r0, [sp, #0]
  40b5e6:	f000 f92f 	bl	40b848 <_malloc_r>
  40b5ea:	4683      	mov	fp, r0
  40b5ec:	2800      	cmp	r0, #0
  40b5ee:	d055      	beq.n	40b69c <__sfvwrite_r+0x2e0>
  40b5f0:	4652      	mov	r2, sl
  40b5f2:	6921      	ldr	r1, [r4, #16]
  40b5f4:	f7fb fff2 	bl	4075dc <memcpy>
  40b5f8:	89a3      	ldrh	r3, [r4, #12]
  40b5fa:	f423 6390 	bic.w	r3, r3, #1152	; 0x480
  40b5fe:	f043 0380 	orr.w	r3, r3, #128	; 0x80
  40b602:	81a3      	strh	r3, [r4, #12]
  40b604:	eb0b 000a 	add.w	r0, fp, sl
  40b608:	eba8 030a 	sub.w	r3, r8, sl
  40b60c:	f8c4 b010 	str.w	fp, [r4, #16]
  40b610:	f8c4 8014 	str.w	r8, [r4, #20]
  40b614:	6020      	str	r0, [r4, #0]
  40b616:	60a3      	str	r3, [r4, #8]
  40b618:	46b8      	mov	r8, r7
  40b61a:	46ba      	mov	sl, r7
  40b61c:	46bb      	mov	fp, r7
  40b61e:	e721      	b.n	40b464 <__sfvwrite_r+0xa8>
  40b620:	f06f 4100 	mvn.w	r1, #2147483648	; 0x80000000
  40b624:	42b9      	cmp	r1, r7
  40b626:	bf28      	it	cs
  40b628:	4639      	movcs	r1, r7
  40b62a:	464a      	mov	r2, r9
  40b62c:	fb91 f1f3 	sdiv	r1, r1, r3
  40b630:	9800      	ldr	r0, [sp, #0]
  40b632:	6a66      	ldr	r6, [r4, #36]	; 0x24
  40b634:	fb03 f301 	mul.w	r3, r3, r1
  40b638:	69e1      	ldr	r1, [r4, #28]
  40b63a:	47b0      	blx	r6
  40b63c:	f1b0 0a00 	subs.w	sl, r0, #0
  40b640:	f73f af1b 	bgt.w	40b47a <__sfvwrite_r+0xbe>
  40b644:	e738      	b.n	40b4b8 <__sfvwrite_r+0xfc>
  40b646:	461a      	mov	r2, r3
  40b648:	4629      	mov	r1, r5
  40b64a:	9301      	str	r3, [sp, #4]
  40b64c:	f000 fc18 	bl	40be80 <memmove>
  40b650:	6822      	ldr	r2, [r4, #0]
  40b652:	9b01      	ldr	r3, [sp, #4]
  40b654:	9800      	ldr	r0, [sp, #0]
  40b656:	441a      	add	r2, r3
  40b658:	6022      	str	r2, [r4, #0]
  40b65a:	4621      	mov	r1, r4
  40b65c:	f7ff fc4a 	bl	40aef4 <_fflush_r>
  40b660:	9b01      	ldr	r3, [sp, #4]
  40b662:	2800      	cmp	r0, #0
  40b664:	f47f af28 	bne.w	40b4b8 <__sfvwrite_r+0xfc>
  40b668:	461f      	mov	r7, r3
  40b66a:	e750      	b.n	40b50e <__sfvwrite_r+0x152>
  40b66c:	9800      	ldr	r0, [sp, #0]
  40b66e:	f000 ff71 	bl	40c554 <_realloc_r>
  40b672:	4683      	mov	fp, r0
  40b674:	2800      	cmp	r0, #0
  40b676:	d1c5      	bne.n	40b604 <__sfvwrite_r+0x248>
  40b678:	9d00      	ldr	r5, [sp, #0]
  40b67a:	6921      	ldr	r1, [r4, #16]
  40b67c:	4628      	mov	r0, r5
  40b67e:	f7ff fdb7 	bl	40b1f0 <_free_r>
  40b682:	f9b4 300c 	ldrsh.w	r3, [r4, #12]
  40b686:	220c      	movs	r2, #12
  40b688:	f023 0380 	bic.w	r3, r3, #128	; 0x80
  40b68c:	602a      	str	r2, [r5, #0]
  40b68e:	e715      	b.n	40b4bc <__sfvwrite_r+0x100>
  40b690:	f106 0901 	add.w	r9, r6, #1
  40b694:	e722      	b.n	40b4dc <__sfvwrite_r+0x120>
  40b696:	f04f 30ff 	mov.w	r0, #4294967295
  40b69a:	e6bf      	b.n	40b41c <__sfvwrite_r+0x60>
  40b69c:	9a00      	ldr	r2, [sp, #0]
  40b69e:	230c      	movs	r3, #12
  40b6a0:	6013      	str	r3, [r2, #0]
  40b6a2:	f9b4 300c 	ldrsh.w	r3, [r4, #12]
  40b6a6:	e709      	b.n	40b4bc <__sfvwrite_r+0x100>
  40b6a8:	7ffffc00 	.word	0x7ffffc00

0040b6ac <_fwalk_reent>:
  40b6ac:	e92d 43f8 	stmdb	sp!, {r3, r4, r5, r6, r7, r8, r9, lr}
  40b6b0:	f510 7738 	adds.w	r7, r0, #736	; 0x2e0
  40b6b4:	d01f      	beq.n	40b6f6 <_fwalk_reent+0x4a>
  40b6b6:	4688      	mov	r8, r1
  40b6b8:	4606      	mov	r6, r0
  40b6ba:	f04f 0900 	mov.w	r9, #0
  40b6be:	687d      	ldr	r5, [r7, #4]
  40b6c0:	68bc      	ldr	r4, [r7, #8]
  40b6c2:	3d01      	subs	r5, #1
  40b6c4:	d411      	bmi.n	40b6ea <_fwalk_reent+0x3e>
  40b6c6:	89a3      	ldrh	r3, [r4, #12]
  40b6c8:	2b01      	cmp	r3, #1
  40b6ca:	f105 35ff 	add.w	r5, r5, #4294967295
  40b6ce:	d908      	bls.n	40b6e2 <_fwalk_reent+0x36>
  40b6d0:	f9b4 300e 	ldrsh.w	r3, [r4, #14]
  40b6d4:	3301      	adds	r3, #1
  40b6d6:	4621      	mov	r1, r4
  40b6d8:	4630      	mov	r0, r6
  40b6da:	d002      	beq.n	40b6e2 <_fwalk_reent+0x36>
  40b6dc:	47c0      	blx	r8
  40b6de:	ea49 0900 	orr.w	r9, r9, r0
  40b6e2:	1c6b      	adds	r3, r5, #1
  40b6e4:	f104 0468 	add.w	r4, r4, #104	; 0x68
  40b6e8:	d1ed      	bne.n	40b6c6 <_fwalk_reent+0x1a>
  40b6ea:	683f      	ldr	r7, [r7, #0]
  40b6ec:	2f00      	cmp	r7, #0
  40b6ee:	d1e6      	bne.n	40b6be <_fwalk_reent+0x12>
  40b6f0:	4648      	mov	r0, r9
  40b6f2:	e8bd 83f8 	ldmia.w	sp!, {r3, r4, r5, r6, r7, r8, r9, pc}
  40b6f6:	46b9      	mov	r9, r7
  40b6f8:	4648      	mov	r0, r9
  40b6fa:	e8bd 83f8 	ldmia.w	sp!, {r3, r4, r5, r6, r7, r8, r9, pc}
  40b6fe:	bf00      	nop

0040b700 <__locale_mb_cur_max>:
  40b700:	4b04      	ldr	r3, [pc, #16]	; (40b714 <__locale_mb_cur_max+0x14>)
  40b702:	4a05      	ldr	r2, [pc, #20]	; (40b718 <__locale_mb_cur_max+0x18>)
  40b704:	681b      	ldr	r3, [r3, #0]
  40b706:	6b5b      	ldr	r3, [r3, #52]	; 0x34
  40b708:	2b00      	cmp	r3, #0
  40b70a:	bf08      	it	eq
  40b70c:	4613      	moveq	r3, r2
  40b70e:	f893 0128 	ldrb.w	r0, [r3, #296]	; 0x128
  40b712:	4770      	bx	lr
  40b714:	20400028 	.word	0x20400028
  40b718:	2040045c 	.word	0x2040045c

0040b71c <_localeconv_r>:
  40b71c:	4a04      	ldr	r2, [pc, #16]	; (40b730 <_localeconv_r+0x14>)
  40b71e:	4b05      	ldr	r3, [pc, #20]	; (40b734 <_localeconv_r+0x18>)
  40b720:	6812      	ldr	r2, [r2, #0]
  40b722:	6b50      	ldr	r0, [r2, #52]	; 0x34
  40b724:	2800      	cmp	r0, #0
  40b726:	bf08      	it	eq
  40b728:	4618      	moveq	r0, r3
  40b72a:	30f0      	adds	r0, #240	; 0xf0
  40b72c:	4770      	bx	lr
  40b72e:	bf00      	nop
  40b730:	20400028 	.word	0x20400028
  40b734:	2040045c 	.word	0x2040045c

0040b738 <__retarget_lock_init_recursive>:
  40b738:	4770      	bx	lr
  40b73a:	bf00      	nop

0040b73c <__retarget_lock_close_recursive>:
  40b73c:	4770      	bx	lr
  40b73e:	bf00      	nop

0040b740 <__retarget_lock_acquire_recursive>:
  40b740:	4770      	bx	lr
  40b742:	bf00      	nop

0040b744 <__retarget_lock_release_recursive>:
  40b744:	4770      	bx	lr
  40b746:	bf00      	nop

0040b748 <__swhatbuf_r>:
  40b748:	b570      	push	{r4, r5, r6, lr}
  40b74a:	460c      	mov	r4, r1
  40b74c:	f9b1 100e 	ldrsh.w	r1, [r1, #14]
  40b750:	2900      	cmp	r1, #0
  40b752:	b090      	sub	sp, #64	; 0x40
  40b754:	4615      	mov	r5, r2
  40b756:	461e      	mov	r6, r3
  40b758:	db14      	blt.n	40b784 <__swhatbuf_r+0x3c>
  40b75a:	aa01      	add	r2, sp, #4
  40b75c:	f001 fb20 	bl	40cda0 <_fstat_r>
  40b760:	2800      	cmp	r0, #0
  40b762:	db0f      	blt.n	40b784 <__swhatbuf_r+0x3c>
  40b764:	9a02      	ldr	r2, [sp, #8]
  40b766:	f402 4270 	and.w	r2, r2, #61440	; 0xf000
  40b76a:	f5a2 5200 	sub.w	r2, r2, #8192	; 0x2000
  40b76e:	fab2 f282 	clz	r2, r2
  40b772:	0952      	lsrs	r2, r2, #5
  40b774:	f44f 6380 	mov.w	r3, #1024	; 0x400
  40b778:	f44f 6000 	mov.w	r0, #2048	; 0x800
  40b77c:	6032      	str	r2, [r6, #0]
  40b77e:	602b      	str	r3, [r5, #0]
  40b780:	b010      	add	sp, #64	; 0x40
  40b782:	bd70      	pop	{r4, r5, r6, pc}
  40b784:	89a2      	ldrh	r2, [r4, #12]
  40b786:	2300      	movs	r3, #0
  40b788:	f012 0080 	ands.w	r0, r2, #128	; 0x80
  40b78c:	6033      	str	r3, [r6, #0]
  40b78e:	d004      	beq.n	40b79a <__swhatbuf_r+0x52>
  40b790:	2240      	movs	r2, #64	; 0x40
  40b792:	4618      	mov	r0, r3
  40b794:	602a      	str	r2, [r5, #0]
  40b796:	b010      	add	sp, #64	; 0x40
  40b798:	bd70      	pop	{r4, r5, r6, pc}
  40b79a:	f44f 6380 	mov.w	r3, #1024	; 0x400
  40b79e:	602b      	str	r3, [r5, #0]
  40b7a0:	b010      	add	sp, #64	; 0x40
  40b7a2:	bd70      	pop	{r4, r5, r6, pc}

0040b7a4 <__smakebuf_r>:
  40b7a4:	898a      	ldrh	r2, [r1, #12]
  40b7a6:	0792      	lsls	r2, r2, #30
  40b7a8:	460b      	mov	r3, r1
  40b7aa:	d506      	bpl.n	40b7ba <__smakebuf_r+0x16>
  40b7ac:	f101 0243 	add.w	r2, r1, #67	; 0x43
  40b7b0:	2101      	movs	r1, #1
  40b7b2:	601a      	str	r2, [r3, #0]
  40b7b4:	611a      	str	r2, [r3, #16]
  40b7b6:	6159      	str	r1, [r3, #20]
  40b7b8:	4770      	bx	lr
  40b7ba:	b5f0      	push	{r4, r5, r6, r7, lr}
  40b7bc:	b083      	sub	sp, #12
  40b7be:	ab01      	add	r3, sp, #4
  40b7c0:	466a      	mov	r2, sp
  40b7c2:	460c      	mov	r4, r1
  40b7c4:	4606      	mov	r6, r0
  40b7c6:	f7ff ffbf 	bl	40b748 <__swhatbuf_r>
  40b7ca:	9900      	ldr	r1, [sp, #0]
  40b7cc:	4605      	mov	r5, r0
  40b7ce:	4630      	mov	r0, r6
  40b7d0:	f000 f83a 	bl	40b848 <_malloc_r>
  40b7d4:	f9b4 300c 	ldrsh.w	r3, [r4, #12]
  40b7d8:	b1d8      	cbz	r0, 40b812 <__smakebuf_r+0x6e>
  40b7da:	9a01      	ldr	r2, [sp, #4]
  40b7dc:	4f15      	ldr	r7, [pc, #84]	; (40b834 <__smakebuf_r+0x90>)
  40b7de:	9900      	ldr	r1, [sp, #0]
  40b7e0:	63f7      	str	r7, [r6, #60]	; 0x3c
  40b7e2:	f043 0380 	orr.w	r3, r3, #128	; 0x80
  40b7e6:	81a3      	strh	r3, [r4, #12]
  40b7e8:	6020      	str	r0, [r4, #0]
  40b7ea:	6120      	str	r0, [r4, #16]
  40b7ec:	6161      	str	r1, [r4, #20]
  40b7ee:	b91a      	cbnz	r2, 40b7f8 <__smakebuf_r+0x54>
  40b7f0:	432b      	orrs	r3, r5
  40b7f2:	81a3      	strh	r3, [r4, #12]
  40b7f4:	b003      	add	sp, #12
  40b7f6:	bdf0      	pop	{r4, r5, r6, r7, pc}
  40b7f8:	4630      	mov	r0, r6
  40b7fa:	f9b4 100e 	ldrsh.w	r1, [r4, #14]
  40b7fe:	f001 fae3 	bl	40cdc8 <_isatty_r>
  40b802:	b1a0      	cbz	r0, 40b82e <__smakebuf_r+0x8a>
  40b804:	89a3      	ldrh	r3, [r4, #12]
  40b806:	f023 0303 	bic.w	r3, r3, #3
  40b80a:	f043 0301 	orr.w	r3, r3, #1
  40b80e:	b21b      	sxth	r3, r3
  40b810:	e7ee      	b.n	40b7f0 <__smakebuf_r+0x4c>
  40b812:	059a      	lsls	r2, r3, #22
  40b814:	d4ee      	bmi.n	40b7f4 <__smakebuf_r+0x50>
  40b816:	f023 0303 	bic.w	r3, r3, #3
  40b81a:	f104 0243 	add.w	r2, r4, #67	; 0x43
  40b81e:	f043 0302 	orr.w	r3, r3, #2
  40b822:	2101      	movs	r1, #1
  40b824:	81a3      	strh	r3, [r4, #12]
  40b826:	6022      	str	r2, [r4, #0]
  40b828:	6122      	str	r2, [r4, #16]
  40b82a:	6161      	str	r1, [r4, #20]
  40b82c:	e7e2      	b.n	40b7f4 <__smakebuf_r+0x50>
  40b82e:	f9b4 300c 	ldrsh.w	r3, [r4, #12]
  40b832:	e7dd      	b.n	40b7f0 <__smakebuf_r+0x4c>
  40b834:	0040af49 	.word	0x0040af49

0040b838 <malloc>:
  40b838:	4b02      	ldr	r3, [pc, #8]	; (40b844 <malloc+0xc>)
  40b83a:	4601      	mov	r1, r0
  40b83c:	6818      	ldr	r0, [r3, #0]
  40b83e:	f000 b803 	b.w	40b848 <_malloc_r>
  40b842:	bf00      	nop
  40b844:	20400028 	.word	0x20400028

0040b848 <_malloc_r>:
  40b848:	e92d 4ff0 	stmdb	sp!, {r4, r5, r6, r7, r8, r9, sl, fp, lr}
  40b84c:	f101 060b 	add.w	r6, r1, #11
  40b850:	2e16      	cmp	r6, #22
  40b852:	b083      	sub	sp, #12
  40b854:	4605      	mov	r5, r0
  40b856:	f240 809e 	bls.w	40b996 <_malloc_r+0x14e>
  40b85a:	f036 0607 	bics.w	r6, r6, #7
  40b85e:	f100 80bd 	bmi.w	40b9dc <_malloc_r+0x194>
  40b862:	42b1      	cmp	r1, r6
  40b864:	f200 80ba 	bhi.w	40b9dc <_malloc_r+0x194>
  40b868:	f000 fb6e 	bl	40bf48 <__malloc_lock>
  40b86c:	f5b6 7ffc 	cmp.w	r6, #504	; 0x1f8
  40b870:	f0c0 8293 	bcc.w	40bd9a <_malloc_r+0x552>
  40b874:	0a73      	lsrs	r3, r6, #9
  40b876:	f000 80b8 	beq.w	40b9ea <_malloc_r+0x1a2>
  40b87a:	2b04      	cmp	r3, #4
  40b87c:	f200 8179 	bhi.w	40bb72 <_malloc_r+0x32a>
  40b880:	09b3      	lsrs	r3, r6, #6
  40b882:	f103 0039 	add.w	r0, r3, #57	; 0x39
  40b886:	f103 0e38 	add.w	lr, r3, #56	; 0x38
  40b88a:	00c3      	lsls	r3, r0, #3
  40b88c:	4fbf      	ldr	r7, [pc, #764]	; (40bb8c <_malloc_r+0x344>)
  40b88e:	443b      	add	r3, r7
  40b890:	f1a3 0108 	sub.w	r1, r3, #8
  40b894:	685c      	ldr	r4, [r3, #4]
  40b896:	42a1      	cmp	r1, r4
  40b898:	d106      	bne.n	40b8a8 <_malloc_r+0x60>
  40b89a:	e00c      	b.n	40b8b6 <_malloc_r+0x6e>
  40b89c:	2a00      	cmp	r2, #0
  40b89e:	f280 80aa 	bge.w	40b9f6 <_malloc_r+0x1ae>
  40b8a2:	68e4      	ldr	r4, [r4, #12]
  40b8a4:	42a1      	cmp	r1, r4
  40b8a6:	d006      	beq.n	40b8b6 <_malloc_r+0x6e>
  40b8a8:	6863      	ldr	r3, [r4, #4]
  40b8aa:	f023 0303 	bic.w	r3, r3, #3
  40b8ae:	1b9a      	subs	r2, r3, r6
  40b8b0:	2a0f      	cmp	r2, #15
  40b8b2:	ddf3      	ble.n	40b89c <_malloc_r+0x54>
  40b8b4:	4670      	mov	r0, lr
  40b8b6:	693c      	ldr	r4, [r7, #16]
  40b8b8:	f8df e2e4 	ldr.w	lr, [pc, #740]	; 40bba0 <_malloc_r+0x358>
  40b8bc:	4574      	cmp	r4, lr
  40b8be:	f000 81ab 	beq.w	40bc18 <_malloc_r+0x3d0>
  40b8c2:	6863      	ldr	r3, [r4, #4]
  40b8c4:	f023 0303 	bic.w	r3, r3, #3
  40b8c8:	1b9a      	subs	r2, r3, r6
  40b8ca:	2a0f      	cmp	r2, #15
  40b8cc:	f300 8190 	bgt.w	40bbf0 <_malloc_r+0x3a8>
  40b8d0:	2a00      	cmp	r2, #0
  40b8d2:	f8c7 e014 	str.w	lr, [r7, #20]
  40b8d6:	f8c7 e010 	str.w	lr, [r7, #16]
  40b8da:	f280 809d 	bge.w	40ba18 <_malloc_r+0x1d0>
  40b8de:	f5b3 7f00 	cmp.w	r3, #512	; 0x200
  40b8e2:	f080 8161 	bcs.w	40bba8 <_malloc_r+0x360>
  40b8e6:	08db      	lsrs	r3, r3, #3
  40b8e8:	f103 0c01 	add.w	ip, r3, #1
  40b8ec:	1099      	asrs	r1, r3, #2
  40b8ee:	687a      	ldr	r2, [r7, #4]
  40b8f0:	f857 803c 	ldr.w	r8, [r7, ip, lsl #3]
  40b8f4:	f8c4 8008 	str.w	r8, [r4, #8]
  40b8f8:	2301      	movs	r3, #1
  40b8fa:	408b      	lsls	r3, r1
  40b8fc:	eb07 01cc 	add.w	r1, r7, ip, lsl #3
  40b900:	4313      	orrs	r3, r2
  40b902:	3908      	subs	r1, #8
  40b904:	60e1      	str	r1, [r4, #12]
  40b906:	607b      	str	r3, [r7, #4]
  40b908:	f847 403c 	str.w	r4, [r7, ip, lsl #3]
  40b90c:	f8c8 400c 	str.w	r4, [r8, #12]
  40b910:	1082      	asrs	r2, r0, #2
  40b912:	2401      	movs	r4, #1
  40b914:	4094      	lsls	r4, r2
  40b916:	429c      	cmp	r4, r3
  40b918:	f200 808b 	bhi.w	40ba32 <_malloc_r+0x1ea>
  40b91c:	421c      	tst	r4, r3
  40b91e:	d106      	bne.n	40b92e <_malloc_r+0xe6>
  40b920:	f020 0003 	bic.w	r0, r0, #3
  40b924:	0064      	lsls	r4, r4, #1
  40b926:	421c      	tst	r4, r3
  40b928:	f100 0004 	add.w	r0, r0, #4
  40b92c:	d0fa      	beq.n	40b924 <_malloc_r+0xdc>
  40b92e:	eb07 09c0 	add.w	r9, r7, r0, lsl #3
  40b932:	46cc      	mov	ip, r9
  40b934:	4680      	mov	r8, r0
  40b936:	f8dc 300c 	ldr.w	r3, [ip, #12]
  40b93a:	459c      	cmp	ip, r3
  40b93c:	d107      	bne.n	40b94e <_malloc_r+0x106>
  40b93e:	e16d      	b.n	40bc1c <_malloc_r+0x3d4>
  40b940:	2a00      	cmp	r2, #0
  40b942:	f280 817b 	bge.w	40bc3c <_malloc_r+0x3f4>
  40b946:	68db      	ldr	r3, [r3, #12]
  40b948:	459c      	cmp	ip, r3
  40b94a:	f000 8167 	beq.w	40bc1c <_malloc_r+0x3d4>
  40b94e:	6859      	ldr	r1, [r3, #4]
  40b950:	f021 0103 	bic.w	r1, r1, #3
  40b954:	1b8a      	subs	r2, r1, r6
  40b956:	2a0f      	cmp	r2, #15
  40b958:	ddf2      	ble.n	40b940 <_malloc_r+0xf8>
  40b95a:	f8d3 c00c 	ldr.w	ip, [r3, #12]
  40b95e:	f8d3 8008 	ldr.w	r8, [r3, #8]
  40b962:	9300      	str	r3, [sp, #0]
  40b964:	199c      	adds	r4, r3, r6
  40b966:	4628      	mov	r0, r5
  40b968:	f046 0601 	orr.w	r6, r6, #1
  40b96c:	f042 0501 	orr.w	r5, r2, #1
  40b970:	605e      	str	r6, [r3, #4]
  40b972:	f8c8 c00c 	str.w	ip, [r8, #12]
  40b976:	f8cc 8008 	str.w	r8, [ip, #8]
  40b97a:	617c      	str	r4, [r7, #20]
  40b97c:	613c      	str	r4, [r7, #16]
  40b97e:	f8c4 e00c 	str.w	lr, [r4, #12]
  40b982:	f8c4 e008 	str.w	lr, [r4, #8]
  40b986:	6065      	str	r5, [r4, #4]
  40b988:	505a      	str	r2, [r3, r1]
  40b98a:	f000 fae3 	bl	40bf54 <__malloc_unlock>
  40b98e:	9b00      	ldr	r3, [sp, #0]
  40b990:	f103 0408 	add.w	r4, r3, #8
  40b994:	e01e      	b.n	40b9d4 <_malloc_r+0x18c>
  40b996:	2910      	cmp	r1, #16
  40b998:	d820      	bhi.n	40b9dc <_malloc_r+0x194>
  40b99a:	f000 fad5 	bl	40bf48 <__malloc_lock>
  40b99e:	2610      	movs	r6, #16
  40b9a0:	2318      	movs	r3, #24
  40b9a2:	2002      	movs	r0, #2
  40b9a4:	4f79      	ldr	r7, [pc, #484]	; (40bb8c <_malloc_r+0x344>)
  40b9a6:	443b      	add	r3, r7
  40b9a8:	f1a3 0208 	sub.w	r2, r3, #8
  40b9ac:	685c      	ldr	r4, [r3, #4]
  40b9ae:	4294      	cmp	r4, r2
  40b9b0:	f000 813d 	beq.w	40bc2e <_malloc_r+0x3e6>
  40b9b4:	6863      	ldr	r3, [r4, #4]
  40b9b6:	68e1      	ldr	r1, [r4, #12]
  40b9b8:	68a6      	ldr	r6, [r4, #8]
  40b9ba:	f023 0303 	bic.w	r3, r3, #3
  40b9be:	4423      	add	r3, r4
  40b9c0:	4628      	mov	r0, r5
  40b9c2:	685a      	ldr	r2, [r3, #4]
  40b9c4:	60f1      	str	r1, [r6, #12]
  40b9c6:	f042 0201 	orr.w	r2, r2, #1
  40b9ca:	608e      	str	r6, [r1, #8]
  40b9cc:	605a      	str	r2, [r3, #4]
  40b9ce:	f000 fac1 	bl	40bf54 <__malloc_unlock>
  40b9d2:	3408      	adds	r4, #8
  40b9d4:	4620      	mov	r0, r4
  40b9d6:	b003      	add	sp, #12
  40b9d8:	e8bd 8ff0 	ldmia.w	sp!, {r4, r5, r6, r7, r8, r9, sl, fp, pc}
  40b9dc:	2400      	movs	r4, #0
  40b9de:	230c      	movs	r3, #12
  40b9e0:	4620      	mov	r0, r4
  40b9e2:	602b      	str	r3, [r5, #0]
  40b9e4:	b003      	add	sp, #12
  40b9e6:	e8bd 8ff0 	ldmia.w	sp!, {r4, r5, r6, r7, r8, r9, sl, fp, pc}
  40b9ea:	2040      	movs	r0, #64	; 0x40
  40b9ec:	f44f 7300 	mov.w	r3, #512	; 0x200
  40b9f0:	f04f 0e3f 	mov.w	lr, #63	; 0x3f
  40b9f4:	e74a      	b.n	40b88c <_malloc_r+0x44>
  40b9f6:	4423      	add	r3, r4
  40b9f8:	68e1      	ldr	r1, [r4, #12]
  40b9fa:	685a      	ldr	r2, [r3, #4]
  40b9fc:	68a6      	ldr	r6, [r4, #8]
  40b9fe:	f042 0201 	orr.w	r2, r2, #1
  40ba02:	60f1      	str	r1, [r6, #12]
  40ba04:	4628      	mov	r0, r5
  40ba06:	608e      	str	r6, [r1, #8]
  40ba08:	605a      	str	r2, [r3, #4]
  40ba0a:	f000 faa3 	bl	40bf54 <__malloc_unlock>
  40ba0e:	3408      	adds	r4, #8
  40ba10:	4620      	mov	r0, r4
  40ba12:	b003      	add	sp, #12
  40ba14:	e8bd 8ff0 	ldmia.w	sp!, {r4, r5, r6, r7, r8, r9, sl, fp, pc}
  40ba18:	4423      	add	r3, r4
  40ba1a:	4628      	mov	r0, r5
  40ba1c:	685a      	ldr	r2, [r3, #4]
  40ba1e:	f042 0201 	orr.w	r2, r2, #1
  40ba22:	605a      	str	r2, [r3, #4]
  40ba24:	f000 fa96 	bl	40bf54 <__malloc_unlock>
  40ba28:	3408      	adds	r4, #8
  40ba2a:	4620      	mov	r0, r4
  40ba2c:	b003      	add	sp, #12
  40ba2e:	e8bd 8ff0 	ldmia.w	sp!, {r4, r5, r6, r7, r8, r9, sl, fp, pc}
  40ba32:	68bc      	ldr	r4, [r7, #8]
  40ba34:	6863      	ldr	r3, [r4, #4]
  40ba36:	f023 0803 	bic.w	r8, r3, #3
  40ba3a:	45b0      	cmp	r8, r6
  40ba3c:	d304      	bcc.n	40ba48 <_malloc_r+0x200>
  40ba3e:	eba8 0306 	sub.w	r3, r8, r6
  40ba42:	2b0f      	cmp	r3, #15
  40ba44:	f300 8085 	bgt.w	40bb52 <_malloc_r+0x30a>
  40ba48:	f8df 9158 	ldr.w	r9, [pc, #344]	; 40bba4 <_malloc_r+0x35c>
  40ba4c:	4b50      	ldr	r3, [pc, #320]	; (40bb90 <_malloc_r+0x348>)
  40ba4e:	f8d9 2000 	ldr.w	r2, [r9]
  40ba52:	681b      	ldr	r3, [r3, #0]
  40ba54:	3201      	adds	r2, #1
  40ba56:	4433      	add	r3, r6
  40ba58:	eb04 0a08 	add.w	sl, r4, r8
  40ba5c:	f000 8155 	beq.w	40bd0a <_malloc_r+0x4c2>
  40ba60:	f503 5380 	add.w	r3, r3, #4096	; 0x1000
  40ba64:	330f      	adds	r3, #15
  40ba66:	f423 6b7f 	bic.w	fp, r3, #4080	; 0xff0
  40ba6a:	f02b 0b0f 	bic.w	fp, fp, #15
  40ba6e:	4659      	mov	r1, fp
  40ba70:	4628      	mov	r0, r5
  40ba72:	f000 ff15 	bl	40c8a0 <_sbrk_r>
  40ba76:	1c41      	adds	r1, r0, #1
  40ba78:	4602      	mov	r2, r0
  40ba7a:	f000 80fc 	beq.w	40bc76 <_malloc_r+0x42e>
  40ba7e:	4582      	cmp	sl, r0
  40ba80:	f200 80f7 	bhi.w	40bc72 <_malloc_r+0x42a>
  40ba84:	4b43      	ldr	r3, [pc, #268]	; (40bb94 <_malloc_r+0x34c>)
  40ba86:	6819      	ldr	r1, [r3, #0]
  40ba88:	4459      	add	r1, fp
  40ba8a:	6019      	str	r1, [r3, #0]
  40ba8c:	f000 814d 	beq.w	40bd2a <_malloc_r+0x4e2>
  40ba90:	f8d9 0000 	ldr.w	r0, [r9]
  40ba94:	3001      	adds	r0, #1
  40ba96:	bf1b      	ittet	ne
  40ba98:	eba2 0a0a 	subne.w	sl, r2, sl
  40ba9c:	4451      	addne	r1, sl
  40ba9e:	f8c9 2000 	streq.w	r2, [r9]
  40baa2:	6019      	strne	r1, [r3, #0]
  40baa4:	f012 0107 	ands.w	r1, r2, #7
  40baa8:	f000 8115 	beq.w	40bcd6 <_malloc_r+0x48e>
  40baac:	f1c1 0008 	rsb	r0, r1, #8
  40bab0:	f5c1 5180 	rsb	r1, r1, #4096	; 0x1000
  40bab4:	4402      	add	r2, r0
  40bab6:	3108      	adds	r1, #8
  40bab8:	eb02 090b 	add.w	r9, r2, fp
  40babc:	f3c9 090b 	ubfx	r9, r9, #0, #12
  40bac0:	eba1 0909 	sub.w	r9, r1, r9
  40bac4:	4649      	mov	r1, r9
  40bac6:	4628      	mov	r0, r5
  40bac8:	9301      	str	r3, [sp, #4]
  40baca:	9200      	str	r2, [sp, #0]
  40bacc:	f000 fee8 	bl	40c8a0 <_sbrk_r>
  40bad0:	1c43      	adds	r3, r0, #1
  40bad2:	e89d 000c 	ldmia.w	sp, {r2, r3}
  40bad6:	f000 8143 	beq.w	40bd60 <_malloc_r+0x518>
  40bada:	1a80      	subs	r0, r0, r2
  40badc:	4448      	add	r0, r9
  40bade:	f040 0001 	orr.w	r0, r0, #1
  40bae2:	6819      	ldr	r1, [r3, #0]
  40bae4:	60ba      	str	r2, [r7, #8]
  40bae6:	4449      	add	r1, r9
  40bae8:	42bc      	cmp	r4, r7
  40baea:	6050      	str	r0, [r2, #4]
  40baec:	6019      	str	r1, [r3, #0]
  40baee:	d017      	beq.n	40bb20 <_malloc_r+0x2d8>
  40baf0:	f1b8 0f0f 	cmp.w	r8, #15
  40baf4:	f240 80fb 	bls.w	40bcee <_malloc_r+0x4a6>
  40baf8:	6860      	ldr	r0, [r4, #4]
  40bafa:	f1a8 020c 	sub.w	r2, r8, #12
  40bafe:	f022 0207 	bic.w	r2, r2, #7
  40bb02:	eb04 0e02 	add.w	lr, r4, r2
  40bb06:	f000 0001 	and.w	r0, r0, #1
  40bb0a:	f04f 0c05 	mov.w	ip, #5
  40bb0e:	4310      	orrs	r0, r2
  40bb10:	2a0f      	cmp	r2, #15
  40bb12:	6060      	str	r0, [r4, #4]
  40bb14:	f8ce c004 	str.w	ip, [lr, #4]
  40bb18:	f8ce c008 	str.w	ip, [lr, #8]
  40bb1c:	f200 8117 	bhi.w	40bd4e <_malloc_r+0x506>
  40bb20:	4b1d      	ldr	r3, [pc, #116]	; (40bb98 <_malloc_r+0x350>)
  40bb22:	68bc      	ldr	r4, [r7, #8]
  40bb24:	681a      	ldr	r2, [r3, #0]
  40bb26:	4291      	cmp	r1, r2
  40bb28:	bf88      	it	hi
  40bb2a:	6019      	strhi	r1, [r3, #0]
  40bb2c:	4b1b      	ldr	r3, [pc, #108]	; (40bb9c <_malloc_r+0x354>)
  40bb2e:	681a      	ldr	r2, [r3, #0]
  40bb30:	4291      	cmp	r1, r2
  40bb32:	6862      	ldr	r2, [r4, #4]
  40bb34:	bf88      	it	hi
  40bb36:	6019      	strhi	r1, [r3, #0]
  40bb38:	f022 0203 	bic.w	r2, r2, #3
  40bb3c:	4296      	cmp	r6, r2
  40bb3e:	eba2 0306 	sub.w	r3, r2, r6
  40bb42:	d801      	bhi.n	40bb48 <_malloc_r+0x300>
  40bb44:	2b0f      	cmp	r3, #15
  40bb46:	dc04      	bgt.n	40bb52 <_malloc_r+0x30a>
  40bb48:	4628      	mov	r0, r5
  40bb4a:	f000 fa03 	bl	40bf54 <__malloc_unlock>
  40bb4e:	2400      	movs	r4, #0
  40bb50:	e740      	b.n	40b9d4 <_malloc_r+0x18c>
  40bb52:	19a2      	adds	r2, r4, r6
  40bb54:	f043 0301 	orr.w	r3, r3, #1
  40bb58:	f046 0601 	orr.w	r6, r6, #1
  40bb5c:	6066      	str	r6, [r4, #4]
  40bb5e:	4628      	mov	r0, r5
  40bb60:	60ba      	str	r2, [r7, #8]
  40bb62:	6053      	str	r3, [r2, #4]
  40bb64:	f000 f9f6 	bl	40bf54 <__malloc_unlock>
  40bb68:	3408      	adds	r4, #8
  40bb6a:	4620      	mov	r0, r4
  40bb6c:	b003      	add	sp, #12
  40bb6e:	e8bd 8ff0 	ldmia.w	sp!, {r4, r5, r6, r7, r8, r9, sl, fp, pc}
  40bb72:	2b14      	cmp	r3, #20
  40bb74:	d971      	bls.n	40bc5a <_malloc_r+0x412>
  40bb76:	2b54      	cmp	r3, #84	; 0x54
  40bb78:	f200 80a3 	bhi.w	40bcc2 <_malloc_r+0x47a>
  40bb7c:	0b33      	lsrs	r3, r6, #12
  40bb7e:	f103 006f 	add.w	r0, r3, #111	; 0x6f
  40bb82:	f103 0e6e 	add.w	lr, r3, #110	; 0x6e
  40bb86:	00c3      	lsls	r3, r0, #3
  40bb88:	e680      	b.n	40b88c <_malloc_r+0x44>
  40bb8a:	bf00      	nop
  40bb8c:	204005c8 	.word	0x204005c8
  40bb90:	2040cd8c 	.word	0x2040cd8c
  40bb94:	2040cd5c 	.word	0x2040cd5c
  40bb98:	2040cd84 	.word	0x2040cd84
  40bb9c:	2040cd88 	.word	0x2040cd88
  40bba0:	204005d0 	.word	0x204005d0
  40bba4:	204009d0 	.word	0x204009d0
  40bba8:	0a5a      	lsrs	r2, r3, #9
  40bbaa:	2a04      	cmp	r2, #4
  40bbac:	d95b      	bls.n	40bc66 <_malloc_r+0x41e>
  40bbae:	2a14      	cmp	r2, #20
  40bbb0:	f200 80ae 	bhi.w	40bd10 <_malloc_r+0x4c8>
  40bbb4:	f102 015c 	add.w	r1, r2, #92	; 0x5c
  40bbb8:	00c9      	lsls	r1, r1, #3
  40bbba:	325b      	adds	r2, #91	; 0x5b
  40bbbc:	eb07 0c01 	add.w	ip, r7, r1
  40bbc0:	5879      	ldr	r1, [r7, r1]
  40bbc2:	f1ac 0c08 	sub.w	ip, ip, #8
  40bbc6:	458c      	cmp	ip, r1
  40bbc8:	f000 8088 	beq.w	40bcdc <_malloc_r+0x494>
  40bbcc:	684a      	ldr	r2, [r1, #4]
  40bbce:	f022 0203 	bic.w	r2, r2, #3
  40bbd2:	4293      	cmp	r3, r2
  40bbd4:	d273      	bcs.n	40bcbe <_malloc_r+0x476>
  40bbd6:	6889      	ldr	r1, [r1, #8]
  40bbd8:	458c      	cmp	ip, r1
  40bbda:	d1f7      	bne.n	40bbcc <_malloc_r+0x384>
  40bbdc:	f8dc 200c 	ldr.w	r2, [ip, #12]
  40bbe0:	687b      	ldr	r3, [r7, #4]
  40bbe2:	60e2      	str	r2, [r4, #12]
  40bbe4:	f8c4 c008 	str.w	ip, [r4, #8]
  40bbe8:	6094      	str	r4, [r2, #8]
  40bbea:	f8cc 400c 	str.w	r4, [ip, #12]
  40bbee:	e68f      	b.n	40b910 <_malloc_r+0xc8>
  40bbf0:	19a1      	adds	r1, r4, r6
  40bbf2:	f046 0c01 	orr.w	ip, r6, #1
  40bbf6:	f042 0601 	orr.w	r6, r2, #1
  40bbfa:	f8c4 c004 	str.w	ip, [r4, #4]
  40bbfe:	4628      	mov	r0, r5
  40bc00:	6179      	str	r1, [r7, #20]
  40bc02:	6139      	str	r1, [r7, #16]
  40bc04:	f8c1 e00c 	str.w	lr, [r1, #12]
  40bc08:	f8c1 e008 	str.w	lr, [r1, #8]
  40bc0c:	604e      	str	r6, [r1, #4]
  40bc0e:	50e2      	str	r2, [r4, r3]
  40bc10:	f000 f9a0 	bl	40bf54 <__malloc_unlock>
  40bc14:	3408      	adds	r4, #8
  40bc16:	e6dd      	b.n	40b9d4 <_malloc_r+0x18c>
  40bc18:	687b      	ldr	r3, [r7, #4]
  40bc1a:	e679      	b.n	40b910 <_malloc_r+0xc8>
  40bc1c:	f108 0801 	add.w	r8, r8, #1
  40bc20:	f018 0f03 	tst.w	r8, #3
  40bc24:	f10c 0c08 	add.w	ip, ip, #8
  40bc28:	f47f ae85 	bne.w	40b936 <_malloc_r+0xee>
  40bc2c:	e02d      	b.n	40bc8a <_malloc_r+0x442>
  40bc2e:	68dc      	ldr	r4, [r3, #12]
  40bc30:	42a3      	cmp	r3, r4
  40bc32:	bf08      	it	eq
  40bc34:	3002      	addeq	r0, #2
  40bc36:	f43f ae3e 	beq.w	40b8b6 <_malloc_r+0x6e>
  40bc3a:	e6bb      	b.n	40b9b4 <_malloc_r+0x16c>
  40bc3c:	4419      	add	r1, r3
  40bc3e:	461c      	mov	r4, r3
  40bc40:	684a      	ldr	r2, [r1, #4]
  40bc42:	68db      	ldr	r3, [r3, #12]
  40bc44:	f854 6f08 	ldr.w	r6, [r4, #8]!
  40bc48:	f042 0201 	orr.w	r2, r2, #1
  40bc4c:	604a      	str	r2, [r1, #4]
  40bc4e:	4628      	mov	r0, r5
  40bc50:	60f3      	str	r3, [r6, #12]
  40bc52:	609e      	str	r6, [r3, #8]
  40bc54:	f000 f97e 	bl	40bf54 <__malloc_unlock>
  40bc58:	e6bc      	b.n	40b9d4 <_malloc_r+0x18c>
  40bc5a:	f103 005c 	add.w	r0, r3, #92	; 0x5c
  40bc5e:	f103 0e5b 	add.w	lr, r3, #91	; 0x5b
  40bc62:	00c3      	lsls	r3, r0, #3
  40bc64:	e612      	b.n	40b88c <_malloc_r+0x44>
  40bc66:	099a      	lsrs	r2, r3, #6
  40bc68:	f102 0139 	add.w	r1, r2, #57	; 0x39
  40bc6c:	00c9      	lsls	r1, r1, #3
  40bc6e:	3238      	adds	r2, #56	; 0x38
  40bc70:	e7a4      	b.n	40bbbc <_malloc_r+0x374>
  40bc72:	42bc      	cmp	r4, r7
  40bc74:	d054      	beq.n	40bd20 <_malloc_r+0x4d8>
  40bc76:	68bc      	ldr	r4, [r7, #8]
  40bc78:	6862      	ldr	r2, [r4, #4]
  40bc7a:	f022 0203 	bic.w	r2, r2, #3
  40bc7e:	e75d      	b.n	40bb3c <_malloc_r+0x2f4>
  40bc80:	f859 3908 	ldr.w	r3, [r9], #-8
  40bc84:	4599      	cmp	r9, r3
  40bc86:	f040 8086 	bne.w	40bd96 <_malloc_r+0x54e>
  40bc8a:	f010 0f03 	tst.w	r0, #3
  40bc8e:	f100 30ff 	add.w	r0, r0, #4294967295
  40bc92:	d1f5      	bne.n	40bc80 <_malloc_r+0x438>
  40bc94:	687b      	ldr	r3, [r7, #4]
  40bc96:	ea23 0304 	bic.w	r3, r3, r4
  40bc9a:	607b      	str	r3, [r7, #4]
  40bc9c:	0064      	lsls	r4, r4, #1
  40bc9e:	429c      	cmp	r4, r3
  40bca0:	f63f aec7 	bhi.w	40ba32 <_malloc_r+0x1ea>
  40bca4:	2c00      	cmp	r4, #0
  40bca6:	f43f aec4 	beq.w	40ba32 <_malloc_r+0x1ea>
  40bcaa:	421c      	tst	r4, r3
  40bcac:	4640      	mov	r0, r8
  40bcae:	f47f ae3e 	bne.w	40b92e <_malloc_r+0xe6>
  40bcb2:	0064      	lsls	r4, r4, #1
  40bcb4:	421c      	tst	r4, r3
  40bcb6:	f100 0004 	add.w	r0, r0, #4
  40bcba:	d0fa      	beq.n	40bcb2 <_malloc_r+0x46a>
  40bcbc:	e637      	b.n	40b92e <_malloc_r+0xe6>
  40bcbe:	468c      	mov	ip, r1
  40bcc0:	e78c      	b.n	40bbdc <_malloc_r+0x394>
  40bcc2:	f5b3 7faa 	cmp.w	r3, #340	; 0x154
  40bcc6:	d815      	bhi.n	40bcf4 <_malloc_r+0x4ac>
  40bcc8:	0bf3      	lsrs	r3, r6, #15
  40bcca:	f103 0078 	add.w	r0, r3, #120	; 0x78
  40bcce:	f103 0e77 	add.w	lr, r3, #119	; 0x77
  40bcd2:	00c3      	lsls	r3, r0, #3
  40bcd4:	e5da      	b.n	40b88c <_malloc_r+0x44>
  40bcd6:	f44f 5180 	mov.w	r1, #4096	; 0x1000
  40bcda:	e6ed      	b.n	40bab8 <_malloc_r+0x270>
  40bcdc:	687b      	ldr	r3, [r7, #4]
  40bcde:	1092      	asrs	r2, r2, #2
  40bce0:	2101      	movs	r1, #1
  40bce2:	fa01 f202 	lsl.w	r2, r1, r2
  40bce6:	4313      	orrs	r3, r2
  40bce8:	607b      	str	r3, [r7, #4]
  40bcea:	4662      	mov	r2, ip
  40bcec:	e779      	b.n	40bbe2 <_malloc_r+0x39a>
  40bcee:	2301      	movs	r3, #1
  40bcf0:	6053      	str	r3, [r2, #4]
  40bcf2:	e729      	b.n	40bb48 <_malloc_r+0x300>
  40bcf4:	f240 5254 	movw	r2, #1364	; 0x554
  40bcf8:	4293      	cmp	r3, r2
  40bcfa:	d822      	bhi.n	40bd42 <_malloc_r+0x4fa>
  40bcfc:	0cb3      	lsrs	r3, r6, #18
  40bcfe:	f103 007d 	add.w	r0, r3, #125	; 0x7d
  40bd02:	f103 0e7c 	add.w	lr, r3, #124	; 0x7c
  40bd06:	00c3      	lsls	r3, r0, #3
  40bd08:	e5c0      	b.n	40b88c <_malloc_r+0x44>
  40bd0a:	f103 0b10 	add.w	fp, r3, #16
  40bd0e:	e6ae      	b.n	40ba6e <_malloc_r+0x226>
  40bd10:	2a54      	cmp	r2, #84	; 0x54
  40bd12:	d829      	bhi.n	40bd68 <_malloc_r+0x520>
  40bd14:	0b1a      	lsrs	r2, r3, #12
  40bd16:	f102 016f 	add.w	r1, r2, #111	; 0x6f
  40bd1a:	00c9      	lsls	r1, r1, #3
  40bd1c:	326e      	adds	r2, #110	; 0x6e
  40bd1e:	e74d      	b.n	40bbbc <_malloc_r+0x374>
  40bd20:	4b20      	ldr	r3, [pc, #128]	; (40bda4 <_malloc_r+0x55c>)
  40bd22:	6819      	ldr	r1, [r3, #0]
  40bd24:	4459      	add	r1, fp
  40bd26:	6019      	str	r1, [r3, #0]
  40bd28:	e6b2      	b.n	40ba90 <_malloc_r+0x248>
  40bd2a:	f3ca 000b 	ubfx	r0, sl, #0, #12
  40bd2e:	2800      	cmp	r0, #0
  40bd30:	f47f aeae 	bne.w	40ba90 <_malloc_r+0x248>
  40bd34:	eb08 030b 	add.w	r3, r8, fp
  40bd38:	68ba      	ldr	r2, [r7, #8]
  40bd3a:	f043 0301 	orr.w	r3, r3, #1
  40bd3e:	6053      	str	r3, [r2, #4]
  40bd40:	e6ee      	b.n	40bb20 <_malloc_r+0x2d8>
  40bd42:	207f      	movs	r0, #127	; 0x7f
  40bd44:	f44f 737e 	mov.w	r3, #1016	; 0x3f8
  40bd48:	f04f 0e7e 	mov.w	lr, #126	; 0x7e
  40bd4c:	e59e      	b.n	40b88c <_malloc_r+0x44>
  40bd4e:	f104 0108 	add.w	r1, r4, #8
  40bd52:	4628      	mov	r0, r5
  40bd54:	9300      	str	r3, [sp, #0]
  40bd56:	f7ff fa4b 	bl	40b1f0 <_free_r>
  40bd5a:	9b00      	ldr	r3, [sp, #0]
  40bd5c:	6819      	ldr	r1, [r3, #0]
  40bd5e:	e6df      	b.n	40bb20 <_malloc_r+0x2d8>
  40bd60:	2001      	movs	r0, #1
  40bd62:	f04f 0900 	mov.w	r9, #0
  40bd66:	e6bc      	b.n	40bae2 <_malloc_r+0x29a>
  40bd68:	f5b2 7faa 	cmp.w	r2, #340	; 0x154
  40bd6c:	d805      	bhi.n	40bd7a <_malloc_r+0x532>
  40bd6e:	0bda      	lsrs	r2, r3, #15
  40bd70:	f102 0178 	add.w	r1, r2, #120	; 0x78
  40bd74:	00c9      	lsls	r1, r1, #3
  40bd76:	3277      	adds	r2, #119	; 0x77
  40bd78:	e720      	b.n	40bbbc <_malloc_r+0x374>
  40bd7a:	f240 5154 	movw	r1, #1364	; 0x554
  40bd7e:	428a      	cmp	r2, r1
  40bd80:	d805      	bhi.n	40bd8e <_malloc_r+0x546>
  40bd82:	0c9a      	lsrs	r2, r3, #18
  40bd84:	f102 017d 	add.w	r1, r2, #125	; 0x7d
  40bd88:	00c9      	lsls	r1, r1, #3
  40bd8a:	327c      	adds	r2, #124	; 0x7c
  40bd8c:	e716      	b.n	40bbbc <_malloc_r+0x374>
  40bd8e:	f44f 717e 	mov.w	r1, #1016	; 0x3f8
  40bd92:	227e      	movs	r2, #126	; 0x7e
  40bd94:	e712      	b.n	40bbbc <_malloc_r+0x374>
  40bd96:	687b      	ldr	r3, [r7, #4]
  40bd98:	e780      	b.n	40bc9c <_malloc_r+0x454>
  40bd9a:	08f0      	lsrs	r0, r6, #3
  40bd9c:	f106 0308 	add.w	r3, r6, #8
  40bda0:	e600      	b.n	40b9a4 <_malloc_r+0x15c>
  40bda2:	bf00      	nop
  40bda4:	2040cd5c 	.word	0x2040cd5c

0040bda8 <__ascii_mbtowc>:
  40bda8:	b082      	sub	sp, #8
  40bdaa:	b149      	cbz	r1, 40bdc0 <__ascii_mbtowc+0x18>
  40bdac:	b15a      	cbz	r2, 40bdc6 <__ascii_mbtowc+0x1e>
  40bdae:	b16b      	cbz	r3, 40bdcc <__ascii_mbtowc+0x24>
  40bdb0:	7813      	ldrb	r3, [r2, #0]
  40bdb2:	600b      	str	r3, [r1, #0]
  40bdb4:	7812      	ldrb	r2, [r2, #0]
  40bdb6:	1c10      	adds	r0, r2, #0
  40bdb8:	bf18      	it	ne
  40bdba:	2001      	movne	r0, #1
  40bdbc:	b002      	add	sp, #8
  40bdbe:	4770      	bx	lr
  40bdc0:	a901      	add	r1, sp, #4
  40bdc2:	2a00      	cmp	r2, #0
  40bdc4:	d1f3      	bne.n	40bdae <__ascii_mbtowc+0x6>
  40bdc6:	4610      	mov	r0, r2
  40bdc8:	b002      	add	sp, #8
  40bdca:	4770      	bx	lr
  40bdcc:	f06f 0001 	mvn.w	r0, #1
  40bdd0:	e7f4      	b.n	40bdbc <__ascii_mbtowc+0x14>
  40bdd2:	bf00      	nop
	...

0040bde0 <memchr>:
  40bde0:	f001 01ff 	and.w	r1, r1, #255	; 0xff
  40bde4:	2a10      	cmp	r2, #16
  40bde6:	db2b      	blt.n	40be40 <memchr+0x60>
  40bde8:	f010 0f07 	tst.w	r0, #7
  40bdec:	d008      	beq.n	40be00 <memchr+0x20>
  40bdee:	f810 3b01 	ldrb.w	r3, [r0], #1
  40bdf2:	3a01      	subs	r2, #1
  40bdf4:	428b      	cmp	r3, r1
  40bdf6:	d02d      	beq.n	40be54 <memchr+0x74>
  40bdf8:	f010 0f07 	tst.w	r0, #7
  40bdfc:	b342      	cbz	r2, 40be50 <memchr+0x70>
  40bdfe:	d1f6      	bne.n	40bdee <memchr+0xe>
  40be00:	b4f0      	push	{r4, r5, r6, r7}
  40be02:	ea41 2101 	orr.w	r1, r1, r1, lsl #8
  40be06:	ea41 4101 	orr.w	r1, r1, r1, lsl #16
  40be0a:	f022 0407 	bic.w	r4, r2, #7
  40be0e:	f07f 0700 	mvns.w	r7, #0
  40be12:	2300      	movs	r3, #0
  40be14:	e8f0 5602 	ldrd	r5, r6, [r0], #8
  40be18:	3c08      	subs	r4, #8
  40be1a:	ea85 0501 	eor.w	r5, r5, r1
  40be1e:	ea86 0601 	eor.w	r6, r6, r1
  40be22:	fa85 f547 	uadd8	r5, r5, r7
  40be26:	faa3 f587 	sel	r5, r3, r7
  40be2a:	fa86 f647 	uadd8	r6, r6, r7
  40be2e:	faa5 f687 	sel	r6, r5, r7
  40be32:	b98e      	cbnz	r6, 40be58 <memchr+0x78>
  40be34:	d1ee      	bne.n	40be14 <memchr+0x34>
  40be36:	bcf0      	pop	{r4, r5, r6, r7}
  40be38:	f001 01ff 	and.w	r1, r1, #255	; 0xff
  40be3c:	f002 0207 	and.w	r2, r2, #7
  40be40:	b132      	cbz	r2, 40be50 <memchr+0x70>
  40be42:	f810 3b01 	ldrb.w	r3, [r0], #1
  40be46:	3a01      	subs	r2, #1
  40be48:	ea83 0301 	eor.w	r3, r3, r1
  40be4c:	b113      	cbz	r3, 40be54 <memchr+0x74>
  40be4e:	d1f8      	bne.n	40be42 <memchr+0x62>
  40be50:	2000      	movs	r0, #0
  40be52:	4770      	bx	lr
  40be54:	3801      	subs	r0, #1
  40be56:	4770      	bx	lr
  40be58:	2d00      	cmp	r5, #0
  40be5a:	bf06      	itte	eq
  40be5c:	4635      	moveq	r5, r6
  40be5e:	3803      	subeq	r0, #3
  40be60:	3807      	subne	r0, #7
  40be62:	f015 0f01 	tst.w	r5, #1
  40be66:	d107      	bne.n	40be78 <memchr+0x98>
  40be68:	3001      	adds	r0, #1
  40be6a:	f415 7f80 	tst.w	r5, #256	; 0x100
  40be6e:	bf02      	ittt	eq
  40be70:	3001      	addeq	r0, #1
  40be72:	f415 3fc0 	tsteq.w	r5, #98304	; 0x18000
  40be76:	3001      	addeq	r0, #1
  40be78:	bcf0      	pop	{r4, r5, r6, r7}
  40be7a:	3801      	subs	r0, #1
  40be7c:	4770      	bx	lr
  40be7e:	bf00      	nop

0040be80 <memmove>:
  40be80:	4288      	cmp	r0, r1
  40be82:	b5f0      	push	{r4, r5, r6, r7, lr}
  40be84:	d90d      	bls.n	40bea2 <memmove+0x22>
  40be86:	188b      	adds	r3, r1, r2
  40be88:	4298      	cmp	r0, r3
  40be8a:	d20a      	bcs.n	40bea2 <memmove+0x22>
  40be8c:	1884      	adds	r4, r0, r2
  40be8e:	2a00      	cmp	r2, #0
  40be90:	d051      	beq.n	40bf36 <memmove+0xb6>
  40be92:	4622      	mov	r2, r4
  40be94:	f813 4d01 	ldrb.w	r4, [r3, #-1]!
  40be98:	f802 4d01 	strb.w	r4, [r2, #-1]!
  40be9c:	4299      	cmp	r1, r3
  40be9e:	d1f9      	bne.n	40be94 <memmove+0x14>
  40bea0:	bdf0      	pop	{r4, r5, r6, r7, pc}
  40bea2:	2a0f      	cmp	r2, #15
  40bea4:	d948      	bls.n	40bf38 <memmove+0xb8>
  40bea6:	ea41 0300 	orr.w	r3, r1, r0
  40beaa:	079b      	lsls	r3, r3, #30
  40beac:	d146      	bne.n	40bf3c <memmove+0xbc>
  40beae:	f100 0410 	add.w	r4, r0, #16
  40beb2:	f101 0310 	add.w	r3, r1, #16
  40beb6:	4615      	mov	r5, r2
  40beb8:	f853 6c10 	ldr.w	r6, [r3, #-16]
  40bebc:	f844 6c10 	str.w	r6, [r4, #-16]
  40bec0:	f853 6c0c 	ldr.w	r6, [r3, #-12]
  40bec4:	f844 6c0c 	str.w	r6, [r4, #-12]
  40bec8:	f853 6c08 	ldr.w	r6, [r3, #-8]
  40becc:	f844 6c08 	str.w	r6, [r4, #-8]
  40bed0:	3d10      	subs	r5, #16
  40bed2:	f853 6c04 	ldr.w	r6, [r3, #-4]
  40bed6:	f844 6c04 	str.w	r6, [r4, #-4]
  40beda:	2d0f      	cmp	r5, #15
  40bedc:	f103 0310 	add.w	r3, r3, #16
  40bee0:	f104 0410 	add.w	r4, r4, #16
  40bee4:	d8e8      	bhi.n	40beb8 <memmove+0x38>
  40bee6:	f1a2 0310 	sub.w	r3, r2, #16
  40beea:	f023 030f 	bic.w	r3, r3, #15
  40beee:	f002 0e0f 	and.w	lr, r2, #15
  40bef2:	3310      	adds	r3, #16
  40bef4:	f1be 0f03 	cmp.w	lr, #3
  40bef8:	4419      	add	r1, r3
  40befa:	4403      	add	r3, r0
  40befc:	d921      	bls.n	40bf42 <memmove+0xc2>
  40befe:	1f1e      	subs	r6, r3, #4
  40bf00:	460d      	mov	r5, r1
  40bf02:	4674      	mov	r4, lr
  40bf04:	3c04      	subs	r4, #4
  40bf06:	f855 7b04 	ldr.w	r7, [r5], #4
  40bf0a:	f846 7f04 	str.w	r7, [r6, #4]!
  40bf0e:	2c03      	cmp	r4, #3
  40bf10:	d8f8      	bhi.n	40bf04 <memmove+0x84>
  40bf12:	f1ae 0404 	sub.w	r4, lr, #4
  40bf16:	f024 0403 	bic.w	r4, r4, #3
  40bf1a:	3404      	adds	r4, #4
  40bf1c:	4421      	add	r1, r4
  40bf1e:	4423      	add	r3, r4
  40bf20:	f002 0203 	and.w	r2, r2, #3
  40bf24:	b162      	cbz	r2, 40bf40 <memmove+0xc0>
  40bf26:	3b01      	subs	r3, #1
  40bf28:	440a      	add	r2, r1
  40bf2a:	f811 4b01 	ldrb.w	r4, [r1], #1
  40bf2e:	f803 4f01 	strb.w	r4, [r3, #1]!
  40bf32:	428a      	cmp	r2, r1
  40bf34:	d1f9      	bne.n	40bf2a <memmove+0xaa>
  40bf36:	bdf0      	pop	{r4, r5, r6, r7, pc}
  40bf38:	4603      	mov	r3, r0
  40bf3a:	e7f3      	b.n	40bf24 <memmove+0xa4>
  40bf3c:	4603      	mov	r3, r0
  40bf3e:	e7f2      	b.n	40bf26 <memmove+0xa6>
  40bf40:	bdf0      	pop	{r4, r5, r6, r7, pc}
  40bf42:	4672      	mov	r2, lr
  40bf44:	e7ee      	b.n	40bf24 <memmove+0xa4>
  40bf46:	bf00      	nop

0040bf48 <__malloc_lock>:
  40bf48:	4801      	ldr	r0, [pc, #4]	; (40bf50 <__malloc_lock+0x8>)
  40bf4a:	f7ff bbf9 	b.w	40b740 <__retarget_lock_acquire_recursive>
  40bf4e:	bf00      	nop
  40bf50:	2040cfc0 	.word	0x2040cfc0

0040bf54 <__malloc_unlock>:
  40bf54:	4801      	ldr	r0, [pc, #4]	; (40bf5c <__malloc_unlock+0x8>)
  40bf56:	f7ff bbf5 	b.w	40b744 <__retarget_lock_release_recursive>
  40bf5a:	bf00      	nop
  40bf5c:	2040cfc0 	.word	0x2040cfc0

0040bf60 <_Balloc>:
  40bf60:	6cc3      	ldr	r3, [r0, #76]	; 0x4c
  40bf62:	b570      	push	{r4, r5, r6, lr}
  40bf64:	4605      	mov	r5, r0
  40bf66:	460c      	mov	r4, r1
  40bf68:	b14b      	cbz	r3, 40bf7e <_Balloc+0x1e>
  40bf6a:	f853 0024 	ldr.w	r0, [r3, r4, lsl #2]
  40bf6e:	b180      	cbz	r0, 40bf92 <_Balloc+0x32>
  40bf70:	6802      	ldr	r2, [r0, #0]
  40bf72:	f843 2024 	str.w	r2, [r3, r4, lsl #2]
  40bf76:	2300      	movs	r3, #0
  40bf78:	6103      	str	r3, [r0, #16]
  40bf7a:	60c3      	str	r3, [r0, #12]
  40bf7c:	bd70      	pop	{r4, r5, r6, pc}
  40bf7e:	2221      	movs	r2, #33	; 0x21
  40bf80:	2104      	movs	r1, #4
  40bf82:	f000 fe69 	bl	40cc58 <_calloc_r>
  40bf86:	64e8      	str	r0, [r5, #76]	; 0x4c
  40bf88:	4603      	mov	r3, r0
  40bf8a:	2800      	cmp	r0, #0
  40bf8c:	d1ed      	bne.n	40bf6a <_Balloc+0xa>
  40bf8e:	2000      	movs	r0, #0
  40bf90:	bd70      	pop	{r4, r5, r6, pc}
  40bf92:	2101      	movs	r1, #1
  40bf94:	fa01 f604 	lsl.w	r6, r1, r4
  40bf98:	1d72      	adds	r2, r6, #5
  40bf9a:	4628      	mov	r0, r5
  40bf9c:	0092      	lsls	r2, r2, #2
  40bf9e:	f000 fe5b 	bl	40cc58 <_calloc_r>
  40bfa2:	2800      	cmp	r0, #0
  40bfa4:	d0f3      	beq.n	40bf8e <_Balloc+0x2e>
  40bfa6:	6044      	str	r4, [r0, #4]
  40bfa8:	6086      	str	r6, [r0, #8]
  40bfaa:	e7e4      	b.n	40bf76 <_Balloc+0x16>

0040bfac <_Bfree>:
  40bfac:	b131      	cbz	r1, 40bfbc <_Bfree+0x10>
  40bfae:	6cc3      	ldr	r3, [r0, #76]	; 0x4c
  40bfb0:	684a      	ldr	r2, [r1, #4]
  40bfb2:	f853 0022 	ldr.w	r0, [r3, r2, lsl #2]
  40bfb6:	6008      	str	r0, [r1, #0]
  40bfb8:	f843 1022 	str.w	r1, [r3, r2, lsl #2]
  40bfbc:	4770      	bx	lr
  40bfbe:	bf00      	nop

0040bfc0 <__multadd>:
  40bfc0:	b5f0      	push	{r4, r5, r6, r7, lr}
  40bfc2:	690c      	ldr	r4, [r1, #16]
  40bfc4:	b083      	sub	sp, #12
  40bfc6:	460d      	mov	r5, r1
  40bfc8:	4606      	mov	r6, r0
  40bfca:	f101 0e14 	add.w	lr, r1, #20
  40bfce:	2700      	movs	r7, #0
  40bfd0:	f8de 0000 	ldr.w	r0, [lr]
  40bfd4:	b281      	uxth	r1, r0
  40bfd6:	fb02 3301 	mla	r3, r2, r1, r3
  40bfda:	0c01      	lsrs	r1, r0, #16
  40bfdc:	0c18      	lsrs	r0, r3, #16
  40bfde:	fb02 0101 	mla	r1, r2, r1, r0
  40bfe2:	b29b      	uxth	r3, r3
  40bfe4:	3701      	adds	r7, #1
  40bfe6:	eb03 4301 	add.w	r3, r3, r1, lsl #16
  40bfea:	42bc      	cmp	r4, r7
  40bfec:	f84e 3b04 	str.w	r3, [lr], #4
  40bff0:	ea4f 4311 	mov.w	r3, r1, lsr #16
  40bff4:	dcec      	bgt.n	40bfd0 <__multadd+0x10>
  40bff6:	b13b      	cbz	r3, 40c008 <__multadd+0x48>
  40bff8:	68aa      	ldr	r2, [r5, #8]
  40bffa:	4294      	cmp	r4, r2
  40bffc:	da07      	bge.n	40c00e <__multadd+0x4e>
  40bffe:	eb05 0284 	add.w	r2, r5, r4, lsl #2
  40c002:	3401      	adds	r4, #1
  40c004:	6153      	str	r3, [r2, #20]
  40c006:	612c      	str	r4, [r5, #16]
  40c008:	4628      	mov	r0, r5
  40c00a:	b003      	add	sp, #12
  40c00c:	bdf0      	pop	{r4, r5, r6, r7, pc}
  40c00e:	6869      	ldr	r1, [r5, #4]
  40c010:	9301      	str	r3, [sp, #4]
  40c012:	3101      	adds	r1, #1
  40c014:	4630      	mov	r0, r6
  40c016:	f7ff ffa3 	bl	40bf60 <_Balloc>
  40c01a:	692a      	ldr	r2, [r5, #16]
  40c01c:	3202      	adds	r2, #2
  40c01e:	f105 010c 	add.w	r1, r5, #12
  40c022:	4607      	mov	r7, r0
  40c024:	0092      	lsls	r2, r2, #2
  40c026:	300c      	adds	r0, #12
  40c028:	f7fb fad8 	bl	4075dc <memcpy>
  40c02c:	6cf2      	ldr	r2, [r6, #76]	; 0x4c
  40c02e:	6869      	ldr	r1, [r5, #4]
  40c030:	9b01      	ldr	r3, [sp, #4]
  40c032:	f852 0021 	ldr.w	r0, [r2, r1, lsl #2]
  40c036:	6028      	str	r0, [r5, #0]
  40c038:	f842 5021 	str.w	r5, [r2, r1, lsl #2]
  40c03c:	463d      	mov	r5, r7
  40c03e:	e7de      	b.n	40bffe <__multadd+0x3e>

0040c040 <__hi0bits>:
  40c040:	0c02      	lsrs	r2, r0, #16
  40c042:	0412      	lsls	r2, r2, #16
  40c044:	4603      	mov	r3, r0
  40c046:	b9b2      	cbnz	r2, 40c076 <__hi0bits+0x36>
  40c048:	0403      	lsls	r3, r0, #16
  40c04a:	2010      	movs	r0, #16
  40c04c:	f013 4f7f 	tst.w	r3, #4278190080	; 0xff000000
  40c050:	bf04      	itt	eq
  40c052:	021b      	lsleq	r3, r3, #8
  40c054:	3008      	addeq	r0, #8
  40c056:	f013 4f70 	tst.w	r3, #4026531840	; 0xf0000000
  40c05a:	bf04      	itt	eq
  40c05c:	011b      	lsleq	r3, r3, #4
  40c05e:	3004      	addeq	r0, #4
  40c060:	f013 4f40 	tst.w	r3, #3221225472	; 0xc0000000
  40c064:	bf04      	itt	eq
  40c066:	009b      	lsleq	r3, r3, #2
  40c068:	3002      	addeq	r0, #2
  40c06a:	2b00      	cmp	r3, #0
  40c06c:	db02      	blt.n	40c074 <__hi0bits+0x34>
  40c06e:	005b      	lsls	r3, r3, #1
  40c070:	d403      	bmi.n	40c07a <__hi0bits+0x3a>
  40c072:	2020      	movs	r0, #32
  40c074:	4770      	bx	lr
  40c076:	2000      	movs	r0, #0
  40c078:	e7e8      	b.n	40c04c <__hi0bits+0xc>
  40c07a:	3001      	adds	r0, #1
  40c07c:	4770      	bx	lr
  40c07e:	bf00      	nop

0040c080 <__lo0bits>:
  40c080:	6803      	ldr	r3, [r0, #0]
  40c082:	f013 0207 	ands.w	r2, r3, #7
  40c086:	4601      	mov	r1, r0
  40c088:	d007      	beq.n	40c09a <__lo0bits+0x1a>
  40c08a:	07da      	lsls	r2, r3, #31
  40c08c:	d421      	bmi.n	40c0d2 <__lo0bits+0x52>
  40c08e:	0798      	lsls	r0, r3, #30
  40c090:	d421      	bmi.n	40c0d6 <__lo0bits+0x56>
  40c092:	089b      	lsrs	r3, r3, #2
  40c094:	600b      	str	r3, [r1, #0]
  40c096:	2002      	movs	r0, #2
  40c098:	4770      	bx	lr
  40c09a:	b298      	uxth	r0, r3
  40c09c:	b198      	cbz	r0, 40c0c6 <__lo0bits+0x46>
  40c09e:	4610      	mov	r0, r2
  40c0a0:	f013 0fff 	tst.w	r3, #255	; 0xff
  40c0a4:	bf04      	itt	eq
  40c0a6:	0a1b      	lsreq	r3, r3, #8
  40c0a8:	3008      	addeq	r0, #8
  40c0aa:	071a      	lsls	r2, r3, #28
  40c0ac:	bf04      	itt	eq
  40c0ae:	091b      	lsreq	r3, r3, #4
  40c0b0:	3004      	addeq	r0, #4
  40c0b2:	079a      	lsls	r2, r3, #30
  40c0b4:	bf04      	itt	eq
  40c0b6:	089b      	lsreq	r3, r3, #2
  40c0b8:	3002      	addeq	r0, #2
  40c0ba:	07da      	lsls	r2, r3, #31
  40c0bc:	d407      	bmi.n	40c0ce <__lo0bits+0x4e>
  40c0be:	085b      	lsrs	r3, r3, #1
  40c0c0:	d104      	bne.n	40c0cc <__lo0bits+0x4c>
  40c0c2:	2020      	movs	r0, #32
  40c0c4:	4770      	bx	lr
  40c0c6:	0c1b      	lsrs	r3, r3, #16
  40c0c8:	2010      	movs	r0, #16
  40c0ca:	e7e9      	b.n	40c0a0 <__lo0bits+0x20>
  40c0cc:	3001      	adds	r0, #1
  40c0ce:	600b      	str	r3, [r1, #0]
  40c0d0:	4770      	bx	lr
  40c0d2:	2000      	movs	r0, #0
  40c0d4:	4770      	bx	lr
  40c0d6:	085b      	lsrs	r3, r3, #1
  40c0d8:	600b      	str	r3, [r1, #0]
  40c0da:	2001      	movs	r0, #1
  40c0dc:	4770      	bx	lr
  40c0de:	bf00      	nop

0040c0e0 <__i2b>:
  40c0e0:	b510      	push	{r4, lr}
  40c0e2:	460c      	mov	r4, r1
  40c0e4:	2101      	movs	r1, #1
  40c0e6:	f7ff ff3b 	bl	40bf60 <_Balloc>
  40c0ea:	2201      	movs	r2, #1
  40c0ec:	6144      	str	r4, [r0, #20]
  40c0ee:	6102      	str	r2, [r0, #16]
  40c0f0:	bd10      	pop	{r4, pc}
  40c0f2:	bf00      	nop

0040c0f4 <__multiply>:
  40c0f4:	e92d 4ff0 	stmdb	sp!, {r4, r5, r6, r7, r8, r9, sl, fp, lr}
  40c0f8:	690c      	ldr	r4, [r1, #16]
  40c0fa:	6915      	ldr	r5, [r2, #16]
  40c0fc:	42ac      	cmp	r4, r5
  40c0fe:	b083      	sub	sp, #12
  40c100:	468b      	mov	fp, r1
  40c102:	4616      	mov	r6, r2
  40c104:	da04      	bge.n	40c110 <__multiply+0x1c>
  40c106:	4622      	mov	r2, r4
  40c108:	46b3      	mov	fp, r6
  40c10a:	462c      	mov	r4, r5
  40c10c:	460e      	mov	r6, r1
  40c10e:	4615      	mov	r5, r2
  40c110:	f8db 3008 	ldr.w	r3, [fp, #8]
  40c114:	f8db 1004 	ldr.w	r1, [fp, #4]
  40c118:	eb04 0805 	add.w	r8, r4, r5
  40c11c:	4598      	cmp	r8, r3
  40c11e:	bfc8      	it	gt
  40c120:	3101      	addgt	r1, #1
  40c122:	f7ff ff1d 	bl	40bf60 <_Balloc>
  40c126:	f100 0914 	add.w	r9, r0, #20
  40c12a:	eb09 0a88 	add.w	sl, r9, r8, lsl #2
  40c12e:	45d1      	cmp	r9, sl
  40c130:	9000      	str	r0, [sp, #0]
  40c132:	d205      	bcs.n	40c140 <__multiply+0x4c>
  40c134:	464b      	mov	r3, r9
  40c136:	2100      	movs	r1, #0
  40c138:	f843 1b04 	str.w	r1, [r3], #4
  40c13c:	459a      	cmp	sl, r3
  40c13e:	d8fb      	bhi.n	40c138 <__multiply+0x44>
  40c140:	f106 0c14 	add.w	ip, r6, #20
  40c144:	eb0c 0385 	add.w	r3, ip, r5, lsl #2
  40c148:	f10b 0b14 	add.w	fp, fp, #20
  40c14c:	459c      	cmp	ip, r3
  40c14e:	eb0b 0e84 	add.w	lr, fp, r4, lsl #2
  40c152:	d24c      	bcs.n	40c1ee <__multiply+0xfa>
  40c154:	f8cd a004 	str.w	sl, [sp, #4]
  40c158:	469a      	mov	sl, r3
  40c15a:	f8dc 5000 	ldr.w	r5, [ip]
  40c15e:	b2af      	uxth	r7, r5
  40c160:	b1ef      	cbz	r7, 40c19e <__multiply+0xaa>
  40c162:	2100      	movs	r1, #0
  40c164:	464d      	mov	r5, r9
  40c166:	465e      	mov	r6, fp
  40c168:	460c      	mov	r4, r1
  40c16a:	f856 2b04 	ldr.w	r2, [r6], #4
  40c16e:	6828      	ldr	r0, [r5, #0]
  40c170:	b293      	uxth	r3, r2
  40c172:	b281      	uxth	r1, r0
  40c174:	fb07 1303 	mla	r3, r7, r3, r1
  40c178:	0c12      	lsrs	r2, r2, #16
  40c17a:	0c01      	lsrs	r1, r0, #16
  40c17c:	4423      	add	r3, r4
  40c17e:	fb07 1102 	mla	r1, r7, r2, r1
  40c182:	eb01 4113 	add.w	r1, r1, r3, lsr #16
  40c186:	b29b      	uxth	r3, r3
  40c188:	ea43 4301 	orr.w	r3, r3, r1, lsl #16
  40c18c:	45b6      	cmp	lr, r6
  40c18e:	f845 3b04 	str.w	r3, [r5], #4
  40c192:	ea4f 4411 	mov.w	r4, r1, lsr #16
  40c196:	d8e8      	bhi.n	40c16a <__multiply+0x76>
  40c198:	602c      	str	r4, [r5, #0]
  40c19a:	f8dc 5000 	ldr.w	r5, [ip]
  40c19e:	0c2d      	lsrs	r5, r5, #16
  40c1a0:	d01d      	beq.n	40c1de <__multiply+0xea>
  40c1a2:	f8d9 3000 	ldr.w	r3, [r9]
  40c1a6:	4648      	mov	r0, r9
  40c1a8:	461c      	mov	r4, r3
  40c1aa:	4659      	mov	r1, fp
  40c1ac:	2200      	movs	r2, #0
  40c1ae:	880e      	ldrh	r6, [r1, #0]
  40c1b0:	0c24      	lsrs	r4, r4, #16
  40c1b2:	fb05 4406 	mla	r4, r5, r6, r4
  40c1b6:	4422      	add	r2, r4
  40c1b8:	b29b      	uxth	r3, r3
  40c1ba:	ea43 4302 	orr.w	r3, r3, r2, lsl #16
  40c1be:	f840 3b04 	str.w	r3, [r0], #4
  40c1c2:	f851 3b04 	ldr.w	r3, [r1], #4
  40c1c6:	6804      	ldr	r4, [r0, #0]
  40c1c8:	0c1b      	lsrs	r3, r3, #16
  40c1ca:	b2a6      	uxth	r6, r4
  40c1cc:	fb05 6303 	mla	r3, r5, r3, r6
  40c1d0:	eb03 4312 	add.w	r3, r3, r2, lsr #16
  40c1d4:	458e      	cmp	lr, r1
  40c1d6:	ea4f 4213 	mov.w	r2, r3, lsr #16
  40c1da:	d8e8      	bhi.n	40c1ae <__multiply+0xba>
  40c1dc:	6003      	str	r3, [r0, #0]
  40c1de:	f10c 0c04 	add.w	ip, ip, #4
  40c1e2:	45e2      	cmp	sl, ip
  40c1e4:	f109 0904 	add.w	r9, r9, #4
  40c1e8:	d8b7      	bhi.n	40c15a <__multiply+0x66>
  40c1ea:	f8dd a004 	ldr.w	sl, [sp, #4]
  40c1ee:	f1b8 0f00 	cmp.w	r8, #0
  40c1f2:	dd0b      	ble.n	40c20c <__multiply+0x118>
  40c1f4:	f85a 3c04 	ldr.w	r3, [sl, #-4]
  40c1f8:	f1aa 0a04 	sub.w	sl, sl, #4
  40c1fc:	b11b      	cbz	r3, 40c206 <__multiply+0x112>
  40c1fe:	e005      	b.n	40c20c <__multiply+0x118>
  40c200:	f85a 3d04 	ldr.w	r3, [sl, #-4]!
  40c204:	b913      	cbnz	r3, 40c20c <__multiply+0x118>
  40c206:	f1b8 0801 	subs.w	r8, r8, #1
  40c20a:	d1f9      	bne.n	40c200 <__multiply+0x10c>
  40c20c:	9800      	ldr	r0, [sp, #0]
  40c20e:	f8c0 8010 	str.w	r8, [r0, #16]
  40c212:	b003      	add	sp, #12
  40c214:	e8bd 8ff0 	ldmia.w	sp!, {r4, r5, r6, r7, r8, r9, sl, fp, pc}

0040c218 <__pow5mult>:
  40c218:	f012 0303 	ands.w	r3, r2, #3
  40c21c:	e92d 41f0 	stmdb	sp!, {r4, r5, r6, r7, r8, lr}
  40c220:	4614      	mov	r4, r2
  40c222:	4607      	mov	r7, r0
  40c224:	d12e      	bne.n	40c284 <__pow5mult+0x6c>
  40c226:	460d      	mov	r5, r1
  40c228:	10a4      	asrs	r4, r4, #2
  40c22a:	d01c      	beq.n	40c266 <__pow5mult+0x4e>
  40c22c:	6cbe      	ldr	r6, [r7, #72]	; 0x48
  40c22e:	b396      	cbz	r6, 40c296 <__pow5mult+0x7e>
  40c230:	07e3      	lsls	r3, r4, #31
  40c232:	f04f 0800 	mov.w	r8, #0
  40c236:	d406      	bmi.n	40c246 <__pow5mult+0x2e>
  40c238:	1064      	asrs	r4, r4, #1
  40c23a:	d014      	beq.n	40c266 <__pow5mult+0x4e>
  40c23c:	6830      	ldr	r0, [r6, #0]
  40c23e:	b1a8      	cbz	r0, 40c26c <__pow5mult+0x54>
  40c240:	4606      	mov	r6, r0
  40c242:	07e3      	lsls	r3, r4, #31
  40c244:	d5f8      	bpl.n	40c238 <__pow5mult+0x20>
  40c246:	4632      	mov	r2, r6
  40c248:	4629      	mov	r1, r5
  40c24a:	4638      	mov	r0, r7
  40c24c:	f7ff ff52 	bl	40c0f4 <__multiply>
  40c250:	b1b5      	cbz	r5, 40c280 <__pow5mult+0x68>
  40c252:	686a      	ldr	r2, [r5, #4]
  40c254:	6cfb      	ldr	r3, [r7, #76]	; 0x4c
  40c256:	1064      	asrs	r4, r4, #1
  40c258:	f853 1022 	ldr.w	r1, [r3, r2, lsl #2]
  40c25c:	6029      	str	r1, [r5, #0]
  40c25e:	f843 5022 	str.w	r5, [r3, r2, lsl #2]
  40c262:	4605      	mov	r5, r0
  40c264:	d1ea      	bne.n	40c23c <__pow5mult+0x24>
  40c266:	4628      	mov	r0, r5
  40c268:	e8bd 81f0 	ldmia.w	sp!, {r4, r5, r6, r7, r8, pc}
  40c26c:	4632      	mov	r2, r6
  40c26e:	4631      	mov	r1, r6
  40c270:	4638      	mov	r0, r7
  40c272:	f7ff ff3f 	bl	40c0f4 <__multiply>
  40c276:	6030      	str	r0, [r6, #0]
  40c278:	f8c0 8000 	str.w	r8, [r0]
  40c27c:	4606      	mov	r6, r0
  40c27e:	e7e0      	b.n	40c242 <__pow5mult+0x2a>
  40c280:	4605      	mov	r5, r0
  40c282:	e7d9      	b.n	40c238 <__pow5mult+0x20>
  40c284:	1e5a      	subs	r2, r3, #1
  40c286:	4d0b      	ldr	r5, [pc, #44]	; (40c2b4 <__pow5mult+0x9c>)
  40c288:	2300      	movs	r3, #0
  40c28a:	f855 2022 	ldr.w	r2, [r5, r2, lsl #2]
  40c28e:	f7ff fe97 	bl	40bfc0 <__multadd>
  40c292:	4605      	mov	r5, r0
  40c294:	e7c8      	b.n	40c228 <__pow5mult+0x10>
  40c296:	2101      	movs	r1, #1
  40c298:	4638      	mov	r0, r7
  40c29a:	f7ff fe61 	bl	40bf60 <_Balloc>
  40c29e:	f240 2171 	movw	r1, #625	; 0x271
  40c2a2:	2201      	movs	r2, #1
  40c2a4:	2300      	movs	r3, #0
  40c2a6:	6141      	str	r1, [r0, #20]
  40c2a8:	6102      	str	r2, [r0, #16]
  40c2aa:	4606      	mov	r6, r0
  40c2ac:	64b8      	str	r0, [r7, #72]	; 0x48
  40c2ae:	6003      	str	r3, [r0, #0]
  40c2b0:	e7be      	b.n	40c230 <__pow5mult+0x18>
  40c2b2:	bf00      	nop
  40c2b4:	0040e438 	.word	0x0040e438

0040c2b8 <__lshift>:
  40c2b8:	e92d 43f8 	stmdb	sp!, {r3, r4, r5, r6, r7, r8, r9, lr}
  40c2bc:	4691      	mov	r9, r2
  40c2be:	690a      	ldr	r2, [r1, #16]
  40c2c0:	688b      	ldr	r3, [r1, #8]
  40c2c2:	ea4f 1469 	mov.w	r4, r9, asr #5
  40c2c6:	eb04 0802 	add.w	r8, r4, r2
  40c2ca:	f108 0501 	add.w	r5, r8, #1
  40c2ce:	429d      	cmp	r5, r3
  40c2d0:	460e      	mov	r6, r1
  40c2d2:	4607      	mov	r7, r0
  40c2d4:	6849      	ldr	r1, [r1, #4]
  40c2d6:	dd04      	ble.n	40c2e2 <__lshift+0x2a>
  40c2d8:	005b      	lsls	r3, r3, #1
  40c2da:	429d      	cmp	r5, r3
  40c2dc:	f101 0101 	add.w	r1, r1, #1
  40c2e0:	dcfa      	bgt.n	40c2d8 <__lshift+0x20>
  40c2e2:	4638      	mov	r0, r7
  40c2e4:	f7ff fe3c 	bl	40bf60 <_Balloc>
  40c2e8:	2c00      	cmp	r4, #0
  40c2ea:	f100 0314 	add.w	r3, r0, #20
  40c2ee:	dd06      	ble.n	40c2fe <__lshift+0x46>
  40c2f0:	eb03 0284 	add.w	r2, r3, r4, lsl #2
  40c2f4:	2100      	movs	r1, #0
  40c2f6:	f843 1b04 	str.w	r1, [r3], #4
  40c2fa:	429a      	cmp	r2, r3
  40c2fc:	d1fb      	bne.n	40c2f6 <__lshift+0x3e>
  40c2fe:	6934      	ldr	r4, [r6, #16]
  40c300:	f106 0114 	add.w	r1, r6, #20
  40c304:	f019 091f 	ands.w	r9, r9, #31
  40c308:	eb01 0e84 	add.w	lr, r1, r4, lsl #2
  40c30c:	d01d      	beq.n	40c34a <__lshift+0x92>
  40c30e:	f1c9 0c20 	rsb	ip, r9, #32
  40c312:	2200      	movs	r2, #0
  40c314:	680c      	ldr	r4, [r1, #0]
  40c316:	fa04 f409 	lsl.w	r4, r4, r9
  40c31a:	4314      	orrs	r4, r2
  40c31c:	f843 4b04 	str.w	r4, [r3], #4
  40c320:	f851 2b04 	ldr.w	r2, [r1], #4
  40c324:	458e      	cmp	lr, r1
  40c326:	fa22 f20c 	lsr.w	r2, r2, ip
  40c32a:	d8f3      	bhi.n	40c314 <__lshift+0x5c>
  40c32c:	601a      	str	r2, [r3, #0]
  40c32e:	b10a      	cbz	r2, 40c334 <__lshift+0x7c>
  40c330:	f108 0502 	add.w	r5, r8, #2
  40c334:	6cfb      	ldr	r3, [r7, #76]	; 0x4c
  40c336:	6872      	ldr	r2, [r6, #4]
  40c338:	3d01      	subs	r5, #1
  40c33a:	f853 1022 	ldr.w	r1, [r3, r2, lsl #2]
  40c33e:	6105      	str	r5, [r0, #16]
  40c340:	6031      	str	r1, [r6, #0]
  40c342:	f843 6022 	str.w	r6, [r3, r2, lsl #2]
  40c346:	e8bd 83f8 	ldmia.w	sp!, {r3, r4, r5, r6, r7, r8, r9, pc}
  40c34a:	3b04      	subs	r3, #4
  40c34c:	f851 2b04 	ldr.w	r2, [r1], #4
  40c350:	f843 2f04 	str.w	r2, [r3, #4]!
  40c354:	458e      	cmp	lr, r1
  40c356:	d8f9      	bhi.n	40c34c <__lshift+0x94>
  40c358:	e7ec      	b.n	40c334 <__lshift+0x7c>
  40c35a:	bf00      	nop

0040c35c <__mcmp>:
  40c35c:	b430      	push	{r4, r5}
  40c35e:	690b      	ldr	r3, [r1, #16]
  40c360:	4605      	mov	r5, r0
  40c362:	6900      	ldr	r0, [r0, #16]
  40c364:	1ac0      	subs	r0, r0, r3
  40c366:	d10f      	bne.n	40c388 <__mcmp+0x2c>
  40c368:	009b      	lsls	r3, r3, #2
  40c36a:	3514      	adds	r5, #20
  40c36c:	3114      	adds	r1, #20
  40c36e:	4419      	add	r1, r3
  40c370:	442b      	add	r3, r5
  40c372:	e001      	b.n	40c378 <__mcmp+0x1c>
  40c374:	429d      	cmp	r5, r3
  40c376:	d207      	bcs.n	40c388 <__mcmp+0x2c>
  40c378:	f853 4d04 	ldr.w	r4, [r3, #-4]!
  40c37c:	f851 2d04 	ldr.w	r2, [r1, #-4]!
  40c380:	4294      	cmp	r4, r2
  40c382:	d0f7      	beq.n	40c374 <__mcmp+0x18>
  40c384:	d302      	bcc.n	40c38c <__mcmp+0x30>
  40c386:	2001      	movs	r0, #1
  40c388:	bc30      	pop	{r4, r5}
  40c38a:	4770      	bx	lr
  40c38c:	f04f 30ff 	mov.w	r0, #4294967295
  40c390:	e7fa      	b.n	40c388 <__mcmp+0x2c>
  40c392:	bf00      	nop

0040c394 <__mdiff>:
  40c394:	e92d 41f0 	stmdb	sp!, {r4, r5, r6, r7, r8, lr}
  40c398:	690f      	ldr	r7, [r1, #16]
  40c39a:	460e      	mov	r6, r1
  40c39c:	6911      	ldr	r1, [r2, #16]
  40c39e:	1a7f      	subs	r7, r7, r1
  40c3a0:	2f00      	cmp	r7, #0
  40c3a2:	4690      	mov	r8, r2
  40c3a4:	d117      	bne.n	40c3d6 <__mdiff+0x42>
  40c3a6:	0089      	lsls	r1, r1, #2
  40c3a8:	f106 0514 	add.w	r5, r6, #20
  40c3ac:	f102 0e14 	add.w	lr, r2, #20
  40c3b0:	186b      	adds	r3, r5, r1
  40c3b2:	4471      	add	r1, lr
  40c3b4:	e001      	b.n	40c3ba <__mdiff+0x26>
  40c3b6:	429d      	cmp	r5, r3
  40c3b8:	d25c      	bcs.n	40c474 <__mdiff+0xe0>
  40c3ba:	f853 2d04 	ldr.w	r2, [r3, #-4]!
  40c3be:	f851 4d04 	ldr.w	r4, [r1, #-4]!
  40c3c2:	42a2      	cmp	r2, r4
  40c3c4:	d0f7      	beq.n	40c3b6 <__mdiff+0x22>
  40c3c6:	d25e      	bcs.n	40c486 <__mdiff+0xf2>
  40c3c8:	4633      	mov	r3, r6
  40c3ca:	462c      	mov	r4, r5
  40c3cc:	4646      	mov	r6, r8
  40c3ce:	4675      	mov	r5, lr
  40c3d0:	4698      	mov	r8, r3
  40c3d2:	2701      	movs	r7, #1
  40c3d4:	e005      	b.n	40c3e2 <__mdiff+0x4e>
  40c3d6:	db58      	blt.n	40c48a <__mdiff+0xf6>
  40c3d8:	f106 0514 	add.w	r5, r6, #20
  40c3dc:	f108 0414 	add.w	r4, r8, #20
  40c3e0:	2700      	movs	r7, #0
  40c3e2:	6871      	ldr	r1, [r6, #4]
  40c3e4:	f7ff fdbc 	bl	40bf60 <_Balloc>
  40c3e8:	f8d8 3010 	ldr.w	r3, [r8, #16]
  40c3ec:	6936      	ldr	r6, [r6, #16]
  40c3ee:	60c7      	str	r7, [r0, #12]
  40c3f0:	eb04 0c83 	add.w	ip, r4, r3, lsl #2
  40c3f4:	46a6      	mov	lr, r4
  40c3f6:	eb05 0786 	add.w	r7, r5, r6, lsl #2
  40c3fa:	f100 0414 	add.w	r4, r0, #20
  40c3fe:	2300      	movs	r3, #0
  40c400:	f85e 1b04 	ldr.w	r1, [lr], #4
  40c404:	f855 8b04 	ldr.w	r8, [r5], #4
  40c408:	b28a      	uxth	r2, r1
  40c40a:	fa13 f388 	uxtah	r3, r3, r8
  40c40e:	0c09      	lsrs	r1, r1, #16
  40c410:	1a9a      	subs	r2, r3, r2
  40c412:	ebc1 4318 	rsb	r3, r1, r8, lsr #16
  40c416:	eb03 4322 	add.w	r3, r3, r2, asr #16
  40c41a:	b292      	uxth	r2, r2
  40c41c:	ea42 4203 	orr.w	r2, r2, r3, lsl #16
  40c420:	45f4      	cmp	ip, lr
  40c422:	f844 2b04 	str.w	r2, [r4], #4
  40c426:	ea4f 4323 	mov.w	r3, r3, asr #16
  40c42a:	d8e9      	bhi.n	40c400 <__mdiff+0x6c>
  40c42c:	42af      	cmp	r7, r5
  40c42e:	d917      	bls.n	40c460 <__mdiff+0xcc>
  40c430:	46a4      	mov	ip, r4
  40c432:	46ae      	mov	lr, r5
  40c434:	f85e 2b04 	ldr.w	r2, [lr], #4
  40c438:	fa13 f382 	uxtah	r3, r3, r2
  40c43c:	1419      	asrs	r1, r3, #16
  40c43e:	eb01 4112 	add.w	r1, r1, r2, lsr #16
  40c442:	b29b      	uxth	r3, r3
  40c444:	ea43 4201 	orr.w	r2, r3, r1, lsl #16
  40c448:	4577      	cmp	r7, lr
  40c44a:	f84c 2b04 	str.w	r2, [ip], #4
  40c44e:	ea4f 4321 	mov.w	r3, r1, asr #16
  40c452:	d8ef      	bhi.n	40c434 <__mdiff+0xa0>
  40c454:	43ed      	mvns	r5, r5
  40c456:	442f      	add	r7, r5
  40c458:	f027 0703 	bic.w	r7, r7, #3
  40c45c:	3704      	adds	r7, #4
  40c45e:	443c      	add	r4, r7
  40c460:	3c04      	subs	r4, #4
  40c462:	b922      	cbnz	r2, 40c46e <__mdiff+0xda>
  40c464:	f854 3d04 	ldr.w	r3, [r4, #-4]!
  40c468:	3e01      	subs	r6, #1
  40c46a:	2b00      	cmp	r3, #0
  40c46c:	d0fa      	beq.n	40c464 <__mdiff+0xd0>
  40c46e:	6106      	str	r6, [r0, #16]
  40c470:	e8bd 81f0 	ldmia.w	sp!, {r4, r5, r6, r7, r8, pc}
  40c474:	2100      	movs	r1, #0
  40c476:	f7ff fd73 	bl	40bf60 <_Balloc>
  40c47a:	2201      	movs	r2, #1
  40c47c:	2300      	movs	r3, #0
  40c47e:	6102      	str	r2, [r0, #16]
  40c480:	6143      	str	r3, [r0, #20]
  40c482:	e8bd 81f0 	ldmia.w	sp!, {r4, r5, r6, r7, r8, pc}
  40c486:	4674      	mov	r4, lr
  40c488:	e7ab      	b.n	40c3e2 <__mdiff+0x4e>
  40c48a:	4633      	mov	r3, r6
  40c48c:	f106 0414 	add.w	r4, r6, #20
  40c490:	f102 0514 	add.w	r5, r2, #20
  40c494:	4616      	mov	r6, r2
  40c496:	2701      	movs	r7, #1
  40c498:	4698      	mov	r8, r3
  40c49a:	e7a2      	b.n	40c3e2 <__mdiff+0x4e>

0040c49c <__d2b>:
  40c49c:	e92d 41f0 	stmdb	sp!, {r4, r5, r6, r7, r8, lr}
  40c4a0:	b082      	sub	sp, #8
  40c4a2:	2101      	movs	r1, #1
  40c4a4:	461c      	mov	r4, r3
  40c4a6:	f3c3 570a 	ubfx	r7, r3, #20, #11
  40c4aa:	4615      	mov	r5, r2
  40c4ac:	9e08      	ldr	r6, [sp, #32]
  40c4ae:	f7ff fd57 	bl	40bf60 <_Balloc>
  40c4b2:	f3c4 0413 	ubfx	r4, r4, #0, #20
  40c4b6:	4680      	mov	r8, r0
  40c4b8:	b10f      	cbz	r7, 40c4be <__d2b+0x22>
  40c4ba:	f444 1480 	orr.w	r4, r4, #1048576	; 0x100000
  40c4be:	9401      	str	r4, [sp, #4]
  40c4c0:	b31d      	cbz	r5, 40c50a <__d2b+0x6e>
  40c4c2:	a802      	add	r0, sp, #8
  40c4c4:	f840 5d08 	str.w	r5, [r0, #-8]!
  40c4c8:	f7ff fdda 	bl	40c080 <__lo0bits>
  40c4cc:	2800      	cmp	r0, #0
  40c4ce:	d134      	bne.n	40c53a <__d2b+0x9e>
  40c4d0:	e89d 000c 	ldmia.w	sp, {r2, r3}
  40c4d4:	f8c8 2014 	str.w	r2, [r8, #20]
  40c4d8:	2b00      	cmp	r3, #0
  40c4da:	bf0c      	ite	eq
  40c4dc:	2101      	moveq	r1, #1
  40c4de:	2102      	movne	r1, #2
  40c4e0:	f8c8 3018 	str.w	r3, [r8, #24]
  40c4e4:	f8c8 1010 	str.w	r1, [r8, #16]
  40c4e8:	b9df      	cbnz	r7, 40c522 <__d2b+0x86>
  40c4ea:	eb08 0381 	add.w	r3, r8, r1, lsl #2
  40c4ee:	f2a0 4032 	subw	r0, r0, #1074	; 0x432
  40c4f2:	6030      	str	r0, [r6, #0]
  40c4f4:	6918      	ldr	r0, [r3, #16]
  40c4f6:	f7ff fda3 	bl	40c040 <__hi0bits>
  40c4fa:	9b09      	ldr	r3, [sp, #36]	; 0x24
  40c4fc:	ebc0 1041 	rsb	r0, r0, r1, lsl #5
  40c500:	6018      	str	r0, [r3, #0]
  40c502:	4640      	mov	r0, r8
  40c504:	b002      	add	sp, #8
  40c506:	e8bd 81f0 	ldmia.w	sp!, {r4, r5, r6, r7, r8, pc}
  40c50a:	a801      	add	r0, sp, #4
  40c50c:	f7ff fdb8 	bl	40c080 <__lo0bits>
  40c510:	9b01      	ldr	r3, [sp, #4]
  40c512:	f8c8 3014 	str.w	r3, [r8, #20]
  40c516:	2101      	movs	r1, #1
  40c518:	3020      	adds	r0, #32
  40c51a:	f8c8 1010 	str.w	r1, [r8, #16]
  40c51e:	2f00      	cmp	r7, #0
  40c520:	d0e3      	beq.n	40c4ea <__d2b+0x4e>
  40c522:	9b09      	ldr	r3, [sp, #36]	; 0x24
  40c524:	f2a7 4733 	subw	r7, r7, #1075	; 0x433
  40c528:	4407      	add	r7, r0
  40c52a:	f1c0 0035 	rsb	r0, r0, #53	; 0x35
  40c52e:	6037      	str	r7, [r6, #0]
  40c530:	6018      	str	r0, [r3, #0]
  40c532:	4640      	mov	r0, r8
  40c534:	b002      	add	sp, #8
  40c536:	e8bd 81f0 	ldmia.w	sp!, {r4, r5, r6, r7, r8, pc}
  40c53a:	e89d 000a 	ldmia.w	sp, {r1, r3}
  40c53e:	f1c0 0220 	rsb	r2, r0, #32
  40c542:	fa03 f202 	lsl.w	r2, r3, r2
  40c546:	430a      	orrs	r2, r1
  40c548:	40c3      	lsrs	r3, r0
  40c54a:	9301      	str	r3, [sp, #4]
  40c54c:	f8c8 2014 	str.w	r2, [r8, #20]
  40c550:	e7c2      	b.n	40c4d8 <__d2b+0x3c>
  40c552:	bf00      	nop

0040c554 <_realloc_r>:
  40c554:	2900      	cmp	r1, #0
  40c556:	f000 8095 	beq.w	40c684 <_realloc_r+0x130>
  40c55a:	e92d 4ff0 	stmdb	sp!, {r4, r5, r6, r7, r8, r9, sl, fp, lr}
  40c55e:	460d      	mov	r5, r1
  40c560:	4616      	mov	r6, r2
  40c562:	b083      	sub	sp, #12
  40c564:	4680      	mov	r8, r0
  40c566:	f106 070b 	add.w	r7, r6, #11
  40c56a:	f7ff fced 	bl	40bf48 <__malloc_lock>
  40c56e:	f855 ec04 	ldr.w	lr, [r5, #-4]
  40c572:	2f16      	cmp	r7, #22
  40c574:	f02e 0403 	bic.w	r4, lr, #3
  40c578:	f1a5 0908 	sub.w	r9, r5, #8
  40c57c:	d83c      	bhi.n	40c5f8 <_realloc_r+0xa4>
  40c57e:	2210      	movs	r2, #16
  40c580:	4617      	mov	r7, r2
  40c582:	42be      	cmp	r6, r7
  40c584:	d83d      	bhi.n	40c602 <_realloc_r+0xae>
  40c586:	4294      	cmp	r4, r2
  40c588:	da43      	bge.n	40c612 <_realloc_r+0xbe>
  40c58a:	4bc4      	ldr	r3, [pc, #784]	; (40c89c <_realloc_r+0x348>)
  40c58c:	6899      	ldr	r1, [r3, #8]
  40c58e:	eb09 0004 	add.w	r0, r9, r4
  40c592:	4288      	cmp	r0, r1
  40c594:	f000 80b4 	beq.w	40c700 <_realloc_r+0x1ac>
  40c598:	6843      	ldr	r3, [r0, #4]
  40c59a:	f023 0101 	bic.w	r1, r3, #1
  40c59e:	4401      	add	r1, r0
  40c5a0:	6849      	ldr	r1, [r1, #4]
  40c5a2:	07c9      	lsls	r1, r1, #31
  40c5a4:	d54c      	bpl.n	40c640 <_realloc_r+0xec>
  40c5a6:	f01e 0f01 	tst.w	lr, #1
  40c5aa:	f000 809b 	beq.w	40c6e4 <_realloc_r+0x190>
  40c5ae:	4631      	mov	r1, r6
  40c5b0:	4640      	mov	r0, r8
  40c5b2:	f7ff f949 	bl	40b848 <_malloc_r>
  40c5b6:	4606      	mov	r6, r0
  40c5b8:	2800      	cmp	r0, #0
  40c5ba:	d03a      	beq.n	40c632 <_realloc_r+0xde>
  40c5bc:	f855 3c04 	ldr.w	r3, [r5, #-4]
  40c5c0:	f023 0301 	bic.w	r3, r3, #1
  40c5c4:	444b      	add	r3, r9
  40c5c6:	f1a0 0208 	sub.w	r2, r0, #8
  40c5ca:	429a      	cmp	r2, r3
  40c5cc:	f000 8121 	beq.w	40c812 <_realloc_r+0x2be>
  40c5d0:	1f22      	subs	r2, r4, #4
  40c5d2:	2a24      	cmp	r2, #36	; 0x24
  40c5d4:	f200 8107 	bhi.w	40c7e6 <_realloc_r+0x292>
  40c5d8:	2a13      	cmp	r2, #19
  40c5da:	f200 80db 	bhi.w	40c794 <_realloc_r+0x240>
  40c5de:	4603      	mov	r3, r0
  40c5e0:	462a      	mov	r2, r5
  40c5e2:	6811      	ldr	r1, [r2, #0]
  40c5e4:	6019      	str	r1, [r3, #0]
  40c5e6:	6851      	ldr	r1, [r2, #4]
  40c5e8:	6059      	str	r1, [r3, #4]
  40c5ea:	6892      	ldr	r2, [r2, #8]
  40c5ec:	609a      	str	r2, [r3, #8]
  40c5ee:	4629      	mov	r1, r5
  40c5f0:	4640      	mov	r0, r8
  40c5f2:	f7fe fdfd 	bl	40b1f0 <_free_r>
  40c5f6:	e01c      	b.n	40c632 <_realloc_r+0xde>
  40c5f8:	f027 0707 	bic.w	r7, r7, #7
  40c5fc:	2f00      	cmp	r7, #0
  40c5fe:	463a      	mov	r2, r7
  40c600:	dabf      	bge.n	40c582 <_realloc_r+0x2e>
  40c602:	2600      	movs	r6, #0
  40c604:	230c      	movs	r3, #12
  40c606:	4630      	mov	r0, r6
  40c608:	f8c8 3000 	str.w	r3, [r8]
  40c60c:	b003      	add	sp, #12
  40c60e:	e8bd 8ff0 	ldmia.w	sp!, {r4, r5, r6, r7, r8, r9, sl, fp, pc}
  40c612:	462e      	mov	r6, r5
  40c614:	1be3      	subs	r3, r4, r7
  40c616:	2b0f      	cmp	r3, #15
  40c618:	d81e      	bhi.n	40c658 <_realloc_r+0x104>
  40c61a:	f8d9 3004 	ldr.w	r3, [r9, #4]
  40c61e:	f003 0301 	and.w	r3, r3, #1
  40c622:	4323      	orrs	r3, r4
  40c624:	444c      	add	r4, r9
  40c626:	f8c9 3004 	str.w	r3, [r9, #4]
  40c62a:	6863      	ldr	r3, [r4, #4]
  40c62c:	f043 0301 	orr.w	r3, r3, #1
  40c630:	6063      	str	r3, [r4, #4]
  40c632:	4640      	mov	r0, r8
  40c634:	f7ff fc8e 	bl	40bf54 <__malloc_unlock>
  40c638:	4630      	mov	r0, r6
  40c63a:	b003      	add	sp, #12
  40c63c:	e8bd 8ff0 	ldmia.w	sp!, {r4, r5, r6, r7, r8, r9, sl, fp, pc}
  40c640:	f023 0303 	bic.w	r3, r3, #3
  40c644:	18e1      	adds	r1, r4, r3
  40c646:	4291      	cmp	r1, r2
  40c648:	db1f      	blt.n	40c68a <_realloc_r+0x136>
  40c64a:	68c3      	ldr	r3, [r0, #12]
  40c64c:	6882      	ldr	r2, [r0, #8]
  40c64e:	462e      	mov	r6, r5
  40c650:	60d3      	str	r3, [r2, #12]
  40c652:	460c      	mov	r4, r1
  40c654:	609a      	str	r2, [r3, #8]
  40c656:	e7dd      	b.n	40c614 <_realloc_r+0xc0>
  40c658:	f8d9 2004 	ldr.w	r2, [r9, #4]
  40c65c:	eb09 0107 	add.w	r1, r9, r7
  40c660:	f002 0201 	and.w	r2, r2, #1
  40c664:	444c      	add	r4, r9
  40c666:	f043 0301 	orr.w	r3, r3, #1
  40c66a:	4317      	orrs	r7, r2
  40c66c:	f8c9 7004 	str.w	r7, [r9, #4]
  40c670:	604b      	str	r3, [r1, #4]
  40c672:	6863      	ldr	r3, [r4, #4]
  40c674:	f043 0301 	orr.w	r3, r3, #1
  40c678:	3108      	adds	r1, #8
  40c67a:	6063      	str	r3, [r4, #4]
  40c67c:	4640      	mov	r0, r8
  40c67e:	f7fe fdb7 	bl	40b1f0 <_free_r>
  40c682:	e7d6      	b.n	40c632 <_realloc_r+0xde>
  40c684:	4611      	mov	r1, r2
  40c686:	f7ff b8df 	b.w	40b848 <_malloc_r>
  40c68a:	f01e 0f01 	tst.w	lr, #1
  40c68e:	d18e      	bne.n	40c5ae <_realloc_r+0x5a>
  40c690:	f855 1c08 	ldr.w	r1, [r5, #-8]
  40c694:	eba9 0a01 	sub.w	sl, r9, r1
  40c698:	f8da 1004 	ldr.w	r1, [sl, #4]
  40c69c:	f021 0103 	bic.w	r1, r1, #3
  40c6a0:	440b      	add	r3, r1
  40c6a2:	4423      	add	r3, r4
  40c6a4:	4293      	cmp	r3, r2
  40c6a6:	db25      	blt.n	40c6f4 <_realloc_r+0x1a0>
  40c6a8:	68c2      	ldr	r2, [r0, #12]
  40c6aa:	6881      	ldr	r1, [r0, #8]
  40c6ac:	4656      	mov	r6, sl
  40c6ae:	60ca      	str	r2, [r1, #12]
  40c6b0:	6091      	str	r1, [r2, #8]
  40c6b2:	f8da 100c 	ldr.w	r1, [sl, #12]
  40c6b6:	f856 0f08 	ldr.w	r0, [r6, #8]!
  40c6ba:	1f22      	subs	r2, r4, #4
  40c6bc:	2a24      	cmp	r2, #36	; 0x24
  40c6be:	60c1      	str	r1, [r0, #12]
  40c6c0:	6088      	str	r0, [r1, #8]
  40c6c2:	f200 8094 	bhi.w	40c7ee <_realloc_r+0x29a>
  40c6c6:	2a13      	cmp	r2, #19
  40c6c8:	d96f      	bls.n	40c7aa <_realloc_r+0x256>
  40c6ca:	6829      	ldr	r1, [r5, #0]
  40c6cc:	f8ca 1008 	str.w	r1, [sl, #8]
  40c6d0:	6869      	ldr	r1, [r5, #4]
  40c6d2:	f8ca 100c 	str.w	r1, [sl, #12]
  40c6d6:	2a1b      	cmp	r2, #27
  40c6d8:	f200 80a2 	bhi.w	40c820 <_realloc_r+0x2cc>
  40c6dc:	3508      	adds	r5, #8
  40c6de:	f10a 0210 	add.w	r2, sl, #16
  40c6e2:	e063      	b.n	40c7ac <_realloc_r+0x258>
  40c6e4:	f855 3c08 	ldr.w	r3, [r5, #-8]
  40c6e8:	eba9 0a03 	sub.w	sl, r9, r3
  40c6ec:	f8da 1004 	ldr.w	r1, [sl, #4]
  40c6f0:	f021 0103 	bic.w	r1, r1, #3
  40c6f4:	1863      	adds	r3, r4, r1
  40c6f6:	4293      	cmp	r3, r2
  40c6f8:	f6ff af59 	blt.w	40c5ae <_realloc_r+0x5a>
  40c6fc:	4656      	mov	r6, sl
  40c6fe:	e7d8      	b.n	40c6b2 <_realloc_r+0x15e>
  40c700:	6841      	ldr	r1, [r0, #4]
  40c702:	f021 0b03 	bic.w	fp, r1, #3
  40c706:	44a3      	add	fp, r4
  40c708:	f107 0010 	add.w	r0, r7, #16
  40c70c:	4583      	cmp	fp, r0
  40c70e:	da56      	bge.n	40c7be <_realloc_r+0x26a>
  40c710:	f01e 0f01 	tst.w	lr, #1
  40c714:	f47f af4b 	bne.w	40c5ae <_realloc_r+0x5a>
  40c718:	f855 1c08 	ldr.w	r1, [r5, #-8]
  40c71c:	eba9 0a01 	sub.w	sl, r9, r1
  40c720:	f8da 1004 	ldr.w	r1, [sl, #4]
  40c724:	f021 0103 	bic.w	r1, r1, #3
  40c728:	448b      	add	fp, r1
  40c72a:	4558      	cmp	r0, fp
  40c72c:	dce2      	bgt.n	40c6f4 <_realloc_r+0x1a0>
  40c72e:	4656      	mov	r6, sl
  40c730:	f8da 100c 	ldr.w	r1, [sl, #12]
  40c734:	f856 0f08 	ldr.w	r0, [r6, #8]!
  40c738:	1f22      	subs	r2, r4, #4
  40c73a:	2a24      	cmp	r2, #36	; 0x24
  40c73c:	60c1      	str	r1, [r0, #12]
  40c73e:	6088      	str	r0, [r1, #8]
  40c740:	f200 808f 	bhi.w	40c862 <_realloc_r+0x30e>
  40c744:	2a13      	cmp	r2, #19
  40c746:	f240 808a 	bls.w	40c85e <_realloc_r+0x30a>
  40c74a:	6829      	ldr	r1, [r5, #0]
  40c74c:	f8ca 1008 	str.w	r1, [sl, #8]
  40c750:	6869      	ldr	r1, [r5, #4]
  40c752:	f8ca 100c 	str.w	r1, [sl, #12]
  40c756:	2a1b      	cmp	r2, #27
  40c758:	f200 808a 	bhi.w	40c870 <_realloc_r+0x31c>
  40c75c:	3508      	adds	r5, #8
  40c75e:	f10a 0210 	add.w	r2, sl, #16
  40c762:	6829      	ldr	r1, [r5, #0]
  40c764:	6011      	str	r1, [r2, #0]
  40c766:	6869      	ldr	r1, [r5, #4]
  40c768:	6051      	str	r1, [r2, #4]
  40c76a:	68a9      	ldr	r1, [r5, #8]
  40c76c:	6091      	str	r1, [r2, #8]
  40c76e:	eb0a 0107 	add.w	r1, sl, r7
  40c772:	ebab 0207 	sub.w	r2, fp, r7
  40c776:	f042 0201 	orr.w	r2, r2, #1
  40c77a:	6099      	str	r1, [r3, #8]
  40c77c:	604a      	str	r2, [r1, #4]
  40c77e:	f8da 3004 	ldr.w	r3, [sl, #4]
  40c782:	f003 0301 	and.w	r3, r3, #1
  40c786:	431f      	orrs	r7, r3
  40c788:	4640      	mov	r0, r8
  40c78a:	f8ca 7004 	str.w	r7, [sl, #4]
  40c78e:	f7ff fbe1 	bl	40bf54 <__malloc_unlock>
  40c792:	e751      	b.n	40c638 <_realloc_r+0xe4>
  40c794:	682b      	ldr	r3, [r5, #0]
  40c796:	6003      	str	r3, [r0, #0]
  40c798:	686b      	ldr	r3, [r5, #4]
  40c79a:	6043      	str	r3, [r0, #4]
  40c79c:	2a1b      	cmp	r2, #27
  40c79e:	d82d      	bhi.n	40c7fc <_realloc_r+0x2a8>
  40c7a0:	f100 0308 	add.w	r3, r0, #8
  40c7a4:	f105 0208 	add.w	r2, r5, #8
  40c7a8:	e71b      	b.n	40c5e2 <_realloc_r+0x8e>
  40c7aa:	4632      	mov	r2, r6
  40c7ac:	6829      	ldr	r1, [r5, #0]
  40c7ae:	6011      	str	r1, [r2, #0]
  40c7b0:	6869      	ldr	r1, [r5, #4]
  40c7b2:	6051      	str	r1, [r2, #4]
  40c7b4:	68a9      	ldr	r1, [r5, #8]
  40c7b6:	6091      	str	r1, [r2, #8]
  40c7b8:	461c      	mov	r4, r3
  40c7ba:	46d1      	mov	r9, sl
  40c7bc:	e72a      	b.n	40c614 <_realloc_r+0xc0>
  40c7be:	eb09 0107 	add.w	r1, r9, r7
  40c7c2:	ebab 0b07 	sub.w	fp, fp, r7
  40c7c6:	f04b 0201 	orr.w	r2, fp, #1
  40c7ca:	6099      	str	r1, [r3, #8]
  40c7cc:	604a      	str	r2, [r1, #4]
  40c7ce:	f855 3c04 	ldr.w	r3, [r5, #-4]
  40c7d2:	f003 0301 	and.w	r3, r3, #1
  40c7d6:	431f      	orrs	r7, r3
  40c7d8:	4640      	mov	r0, r8
  40c7da:	f845 7c04 	str.w	r7, [r5, #-4]
  40c7de:	f7ff fbb9 	bl	40bf54 <__malloc_unlock>
  40c7e2:	462e      	mov	r6, r5
  40c7e4:	e728      	b.n	40c638 <_realloc_r+0xe4>
  40c7e6:	4629      	mov	r1, r5
  40c7e8:	f7ff fb4a 	bl	40be80 <memmove>
  40c7ec:	e6ff      	b.n	40c5ee <_realloc_r+0x9a>
  40c7ee:	4629      	mov	r1, r5
  40c7f0:	4630      	mov	r0, r6
  40c7f2:	461c      	mov	r4, r3
  40c7f4:	46d1      	mov	r9, sl
  40c7f6:	f7ff fb43 	bl	40be80 <memmove>
  40c7fa:	e70b      	b.n	40c614 <_realloc_r+0xc0>
  40c7fc:	68ab      	ldr	r3, [r5, #8]
  40c7fe:	6083      	str	r3, [r0, #8]
  40c800:	68eb      	ldr	r3, [r5, #12]
  40c802:	60c3      	str	r3, [r0, #12]
  40c804:	2a24      	cmp	r2, #36	; 0x24
  40c806:	d017      	beq.n	40c838 <_realloc_r+0x2e4>
  40c808:	f100 0310 	add.w	r3, r0, #16
  40c80c:	f105 0210 	add.w	r2, r5, #16
  40c810:	e6e7      	b.n	40c5e2 <_realloc_r+0x8e>
  40c812:	f850 3c04 	ldr.w	r3, [r0, #-4]
  40c816:	f023 0303 	bic.w	r3, r3, #3
  40c81a:	441c      	add	r4, r3
  40c81c:	462e      	mov	r6, r5
  40c81e:	e6f9      	b.n	40c614 <_realloc_r+0xc0>
  40c820:	68a9      	ldr	r1, [r5, #8]
  40c822:	f8ca 1010 	str.w	r1, [sl, #16]
  40c826:	68e9      	ldr	r1, [r5, #12]
  40c828:	f8ca 1014 	str.w	r1, [sl, #20]
  40c82c:	2a24      	cmp	r2, #36	; 0x24
  40c82e:	d00c      	beq.n	40c84a <_realloc_r+0x2f6>
  40c830:	3510      	adds	r5, #16
  40c832:	f10a 0218 	add.w	r2, sl, #24
  40c836:	e7b9      	b.n	40c7ac <_realloc_r+0x258>
  40c838:	692b      	ldr	r3, [r5, #16]
  40c83a:	6103      	str	r3, [r0, #16]
  40c83c:	696b      	ldr	r3, [r5, #20]
  40c83e:	6143      	str	r3, [r0, #20]
  40c840:	f105 0218 	add.w	r2, r5, #24
  40c844:	f100 0318 	add.w	r3, r0, #24
  40c848:	e6cb      	b.n	40c5e2 <_realloc_r+0x8e>
  40c84a:	692a      	ldr	r2, [r5, #16]
  40c84c:	f8ca 2018 	str.w	r2, [sl, #24]
  40c850:	696a      	ldr	r2, [r5, #20]
  40c852:	f8ca 201c 	str.w	r2, [sl, #28]
  40c856:	3518      	adds	r5, #24
  40c858:	f10a 0220 	add.w	r2, sl, #32
  40c85c:	e7a6      	b.n	40c7ac <_realloc_r+0x258>
  40c85e:	4632      	mov	r2, r6
  40c860:	e77f      	b.n	40c762 <_realloc_r+0x20e>
  40c862:	4629      	mov	r1, r5
  40c864:	4630      	mov	r0, r6
  40c866:	9301      	str	r3, [sp, #4]
  40c868:	f7ff fb0a 	bl	40be80 <memmove>
  40c86c:	9b01      	ldr	r3, [sp, #4]
  40c86e:	e77e      	b.n	40c76e <_realloc_r+0x21a>
  40c870:	68a9      	ldr	r1, [r5, #8]
  40c872:	f8ca 1010 	str.w	r1, [sl, #16]
  40c876:	68e9      	ldr	r1, [r5, #12]
  40c878:	f8ca 1014 	str.w	r1, [sl, #20]
  40c87c:	2a24      	cmp	r2, #36	; 0x24
  40c87e:	d003      	beq.n	40c888 <_realloc_r+0x334>
  40c880:	3510      	adds	r5, #16
  40c882:	f10a 0218 	add.w	r2, sl, #24
  40c886:	e76c      	b.n	40c762 <_realloc_r+0x20e>
  40c888:	692a      	ldr	r2, [r5, #16]
  40c88a:	f8ca 2018 	str.w	r2, [sl, #24]
  40c88e:	696a      	ldr	r2, [r5, #20]
  40c890:	f8ca 201c 	str.w	r2, [sl, #28]
  40c894:	3518      	adds	r5, #24
  40c896:	f10a 0220 	add.w	r2, sl, #32
  40c89a:	e762      	b.n	40c762 <_realloc_r+0x20e>
  40c89c:	204005c8 	.word	0x204005c8

0040c8a0 <_sbrk_r>:
  40c8a0:	b538      	push	{r3, r4, r5, lr}
  40c8a2:	4c07      	ldr	r4, [pc, #28]	; (40c8c0 <_sbrk_r+0x20>)
  40c8a4:	2300      	movs	r3, #0
  40c8a6:	4605      	mov	r5, r0
  40c8a8:	4608      	mov	r0, r1
  40c8aa:	6023      	str	r3, [r4, #0]
  40c8ac:	f7f9 fa28 	bl	405d00 <_sbrk>
  40c8b0:	1c43      	adds	r3, r0, #1
  40c8b2:	d000      	beq.n	40c8b6 <_sbrk_r+0x16>
  40c8b4:	bd38      	pop	{r3, r4, r5, pc}
  40c8b6:	6823      	ldr	r3, [r4, #0]
  40c8b8:	2b00      	cmp	r3, #0
  40c8ba:	d0fb      	beq.n	40c8b4 <_sbrk_r+0x14>
  40c8bc:	602b      	str	r3, [r5, #0]
  40c8be:	bd38      	pop	{r3, r4, r5, pc}
  40c8c0:	2040cfd4 	.word	0x2040cfd4

0040c8c4 <__sread>:
  40c8c4:	b510      	push	{r4, lr}
  40c8c6:	460c      	mov	r4, r1
  40c8c8:	f9b1 100e 	ldrsh.w	r1, [r1, #14]
  40c8cc:	f000 faa4 	bl	40ce18 <_read_r>
  40c8d0:	2800      	cmp	r0, #0
  40c8d2:	db03      	blt.n	40c8dc <__sread+0x18>
  40c8d4:	6d23      	ldr	r3, [r4, #80]	; 0x50
  40c8d6:	4403      	add	r3, r0
  40c8d8:	6523      	str	r3, [r4, #80]	; 0x50
  40c8da:	bd10      	pop	{r4, pc}
  40c8dc:	89a3      	ldrh	r3, [r4, #12]
  40c8de:	f423 5380 	bic.w	r3, r3, #4096	; 0x1000
  40c8e2:	81a3      	strh	r3, [r4, #12]
  40c8e4:	bd10      	pop	{r4, pc}
  40c8e6:	bf00      	nop

0040c8e8 <__swrite>:
  40c8e8:	e92d 41f0 	stmdb	sp!, {r4, r5, r6, r7, r8, lr}
  40c8ec:	4616      	mov	r6, r2
  40c8ee:	f9b1 200c 	ldrsh.w	r2, [r1, #12]
  40c8f2:	461f      	mov	r7, r3
  40c8f4:	05d3      	lsls	r3, r2, #23
  40c8f6:	460c      	mov	r4, r1
  40c8f8:	4605      	mov	r5, r0
  40c8fa:	d507      	bpl.n	40c90c <__swrite+0x24>
  40c8fc:	2200      	movs	r2, #0
  40c8fe:	2302      	movs	r3, #2
  40c900:	f9b1 100e 	ldrsh.w	r1, [r1, #14]
  40c904:	f000 fa72 	bl	40cdec <_lseek_r>
  40c908:	f9b4 200c 	ldrsh.w	r2, [r4, #12]
  40c90c:	f9b4 100e 	ldrsh.w	r1, [r4, #14]
  40c910:	f422 5280 	bic.w	r2, r2, #4096	; 0x1000
  40c914:	81a2      	strh	r2, [r4, #12]
  40c916:	463b      	mov	r3, r7
  40c918:	4632      	mov	r2, r6
  40c91a:	4628      	mov	r0, r5
  40c91c:	e8bd 41f0 	ldmia.w	sp!, {r4, r5, r6, r7, r8, lr}
  40c920:	f000 b922 	b.w	40cb68 <_write_r>

0040c924 <__sseek>:
  40c924:	b510      	push	{r4, lr}
  40c926:	460c      	mov	r4, r1
  40c928:	f9b1 100e 	ldrsh.w	r1, [r1, #14]
  40c92c:	f000 fa5e 	bl	40cdec <_lseek_r>
  40c930:	89a3      	ldrh	r3, [r4, #12]
  40c932:	1c42      	adds	r2, r0, #1
  40c934:	bf0e      	itee	eq
  40c936:	f423 5380 	biceq.w	r3, r3, #4096	; 0x1000
  40c93a:	f443 5380 	orrne.w	r3, r3, #4096	; 0x1000
  40c93e:	6520      	strne	r0, [r4, #80]	; 0x50
  40c940:	81a3      	strh	r3, [r4, #12]
  40c942:	bd10      	pop	{r4, pc}

0040c944 <__sclose>:
  40c944:	f9b1 100e 	ldrsh.w	r1, [r1, #14]
  40c948:	f000 b9b6 	b.w	40ccb8 <_close_r>

0040c94c <__ssprint_r>:
  40c94c:	e92d 4ff0 	stmdb	sp!, {r4, r5, r6, r7, r8, r9, sl, fp, lr}
  40c950:	6893      	ldr	r3, [r2, #8]
  40c952:	b083      	sub	sp, #12
  40c954:	4690      	mov	r8, r2
  40c956:	2b00      	cmp	r3, #0
  40c958:	d070      	beq.n	40ca3c <__ssprint_r+0xf0>
  40c95a:	4682      	mov	sl, r0
  40c95c:	460c      	mov	r4, r1
  40c95e:	6817      	ldr	r7, [r2, #0]
  40c960:	688d      	ldr	r5, [r1, #8]
  40c962:	6808      	ldr	r0, [r1, #0]
  40c964:	e042      	b.n	40c9ec <__ssprint_r+0xa0>
  40c966:	89a3      	ldrh	r3, [r4, #12]
  40c968:	f413 6f90 	tst.w	r3, #1152	; 0x480
  40c96c:	d02e      	beq.n	40c9cc <__ssprint_r+0x80>
  40c96e:	6965      	ldr	r5, [r4, #20]
  40c970:	6921      	ldr	r1, [r4, #16]
  40c972:	eb05 0545 	add.w	r5, r5, r5, lsl #1
  40c976:	eba0 0b01 	sub.w	fp, r0, r1
  40c97a:	eb05 75d5 	add.w	r5, r5, r5, lsr #31
  40c97e:	f10b 0001 	add.w	r0, fp, #1
  40c982:	106d      	asrs	r5, r5, #1
  40c984:	4430      	add	r0, r6
  40c986:	42a8      	cmp	r0, r5
  40c988:	462a      	mov	r2, r5
  40c98a:	bf84      	itt	hi
  40c98c:	4605      	movhi	r5, r0
  40c98e:	462a      	movhi	r2, r5
  40c990:	055b      	lsls	r3, r3, #21
  40c992:	d538      	bpl.n	40ca06 <__ssprint_r+0xba>
  40c994:	4611      	mov	r1, r2
  40c996:	4650      	mov	r0, sl
  40c998:	f7fe ff56 	bl	40b848 <_malloc_r>
  40c99c:	2800      	cmp	r0, #0
  40c99e:	d03c      	beq.n	40ca1a <__ssprint_r+0xce>
  40c9a0:	465a      	mov	r2, fp
  40c9a2:	6921      	ldr	r1, [r4, #16]
  40c9a4:	9001      	str	r0, [sp, #4]
  40c9a6:	f7fa fe19 	bl	4075dc <memcpy>
  40c9aa:	89a2      	ldrh	r2, [r4, #12]
  40c9ac:	9b01      	ldr	r3, [sp, #4]
  40c9ae:	f422 6290 	bic.w	r2, r2, #1152	; 0x480
  40c9b2:	f042 0280 	orr.w	r2, r2, #128	; 0x80
  40c9b6:	81a2      	strh	r2, [r4, #12]
  40c9b8:	eba5 020b 	sub.w	r2, r5, fp
  40c9bc:	eb03 000b 	add.w	r0, r3, fp
  40c9c0:	6165      	str	r5, [r4, #20]
  40c9c2:	6123      	str	r3, [r4, #16]
  40c9c4:	6020      	str	r0, [r4, #0]
  40c9c6:	60a2      	str	r2, [r4, #8]
  40c9c8:	4635      	mov	r5, r6
  40c9ca:	46b3      	mov	fp, r6
  40c9cc:	465a      	mov	r2, fp
  40c9ce:	4649      	mov	r1, r9
  40c9d0:	f7ff fa56 	bl	40be80 <memmove>
  40c9d4:	f8d8 3008 	ldr.w	r3, [r8, #8]
  40c9d8:	68a2      	ldr	r2, [r4, #8]
  40c9da:	6820      	ldr	r0, [r4, #0]
  40c9dc:	1b55      	subs	r5, r2, r5
  40c9de:	4458      	add	r0, fp
  40c9e0:	1b9e      	subs	r6, r3, r6
  40c9e2:	60a5      	str	r5, [r4, #8]
  40c9e4:	6020      	str	r0, [r4, #0]
  40c9e6:	f8c8 6008 	str.w	r6, [r8, #8]
  40c9ea:	b33e      	cbz	r6, 40ca3c <__ssprint_r+0xf0>
  40c9ec:	687e      	ldr	r6, [r7, #4]
  40c9ee:	463b      	mov	r3, r7
  40c9f0:	3708      	adds	r7, #8
  40c9f2:	2e00      	cmp	r6, #0
  40c9f4:	d0fa      	beq.n	40c9ec <__ssprint_r+0xa0>
  40c9f6:	42ae      	cmp	r6, r5
  40c9f8:	f8d3 9000 	ldr.w	r9, [r3]
  40c9fc:	46ab      	mov	fp, r5
  40c9fe:	d2b2      	bcs.n	40c966 <__ssprint_r+0x1a>
  40ca00:	4635      	mov	r5, r6
  40ca02:	46b3      	mov	fp, r6
  40ca04:	e7e2      	b.n	40c9cc <__ssprint_r+0x80>
  40ca06:	4650      	mov	r0, sl
  40ca08:	f7ff fda4 	bl	40c554 <_realloc_r>
  40ca0c:	4603      	mov	r3, r0
  40ca0e:	2800      	cmp	r0, #0
  40ca10:	d1d2      	bne.n	40c9b8 <__ssprint_r+0x6c>
  40ca12:	6921      	ldr	r1, [r4, #16]
  40ca14:	4650      	mov	r0, sl
  40ca16:	f7fe fbeb 	bl	40b1f0 <_free_r>
  40ca1a:	230c      	movs	r3, #12
  40ca1c:	f8ca 3000 	str.w	r3, [sl]
  40ca20:	89a3      	ldrh	r3, [r4, #12]
  40ca22:	2200      	movs	r2, #0
  40ca24:	f043 0340 	orr.w	r3, r3, #64	; 0x40
  40ca28:	f04f 30ff 	mov.w	r0, #4294967295
  40ca2c:	81a3      	strh	r3, [r4, #12]
  40ca2e:	f8c8 2008 	str.w	r2, [r8, #8]
  40ca32:	f8c8 2004 	str.w	r2, [r8, #4]
  40ca36:	b003      	add	sp, #12
  40ca38:	e8bd 8ff0 	ldmia.w	sp!, {r4, r5, r6, r7, r8, r9, sl, fp, pc}
  40ca3c:	2000      	movs	r0, #0
  40ca3e:	f8c8 0004 	str.w	r0, [r8, #4]
  40ca42:	b003      	add	sp, #12
  40ca44:	e8bd 8ff0 	ldmia.w	sp!, {r4, r5, r6, r7, r8, r9, sl, fp, pc}

0040ca48 <__swbuf_r>:
  40ca48:	b5f8      	push	{r3, r4, r5, r6, r7, lr}
  40ca4a:	460d      	mov	r5, r1
  40ca4c:	4614      	mov	r4, r2
  40ca4e:	4606      	mov	r6, r0
  40ca50:	b110      	cbz	r0, 40ca58 <__swbuf_r+0x10>
  40ca52:	6b83      	ldr	r3, [r0, #56]	; 0x38
  40ca54:	2b00      	cmp	r3, #0
  40ca56:	d04b      	beq.n	40caf0 <__swbuf_r+0xa8>
  40ca58:	f9b4 200c 	ldrsh.w	r2, [r4, #12]
  40ca5c:	69a3      	ldr	r3, [r4, #24]
  40ca5e:	60a3      	str	r3, [r4, #8]
  40ca60:	b291      	uxth	r1, r2
  40ca62:	0708      	lsls	r0, r1, #28
  40ca64:	d539      	bpl.n	40cada <__swbuf_r+0x92>
  40ca66:	6923      	ldr	r3, [r4, #16]
  40ca68:	2b00      	cmp	r3, #0
  40ca6a:	d036      	beq.n	40cada <__swbuf_r+0x92>
  40ca6c:	b2ed      	uxtb	r5, r5
  40ca6e:	0489      	lsls	r1, r1, #18
  40ca70:	462f      	mov	r7, r5
  40ca72:	d515      	bpl.n	40caa0 <__swbuf_r+0x58>
  40ca74:	6822      	ldr	r2, [r4, #0]
  40ca76:	6961      	ldr	r1, [r4, #20]
  40ca78:	1ad3      	subs	r3, r2, r3
  40ca7a:	428b      	cmp	r3, r1
  40ca7c:	da1c      	bge.n	40cab8 <__swbuf_r+0x70>
  40ca7e:	3301      	adds	r3, #1
  40ca80:	68a1      	ldr	r1, [r4, #8]
  40ca82:	1c50      	adds	r0, r2, #1
  40ca84:	3901      	subs	r1, #1
  40ca86:	60a1      	str	r1, [r4, #8]
  40ca88:	6020      	str	r0, [r4, #0]
  40ca8a:	7015      	strb	r5, [r2, #0]
  40ca8c:	6962      	ldr	r2, [r4, #20]
  40ca8e:	429a      	cmp	r2, r3
  40ca90:	d01a      	beq.n	40cac8 <__swbuf_r+0x80>
  40ca92:	89a3      	ldrh	r3, [r4, #12]
  40ca94:	07db      	lsls	r3, r3, #31
  40ca96:	d501      	bpl.n	40ca9c <__swbuf_r+0x54>
  40ca98:	2d0a      	cmp	r5, #10
  40ca9a:	d015      	beq.n	40cac8 <__swbuf_r+0x80>
  40ca9c:	4638      	mov	r0, r7
  40ca9e:	bdf8      	pop	{r3, r4, r5, r6, r7, pc}
  40caa0:	6e61      	ldr	r1, [r4, #100]	; 0x64
  40caa2:	f442 5200 	orr.w	r2, r2, #8192	; 0x2000
  40caa6:	f421 5100 	bic.w	r1, r1, #8192	; 0x2000
  40caaa:	81a2      	strh	r2, [r4, #12]
  40caac:	6822      	ldr	r2, [r4, #0]
  40caae:	6661      	str	r1, [r4, #100]	; 0x64
  40cab0:	6961      	ldr	r1, [r4, #20]
  40cab2:	1ad3      	subs	r3, r2, r3
  40cab4:	428b      	cmp	r3, r1
  40cab6:	dbe2      	blt.n	40ca7e <__swbuf_r+0x36>
  40cab8:	4621      	mov	r1, r4
  40caba:	4630      	mov	r0, r6
  40cabc:	f7fe fa1a 	bl	40aef4 <_fflush_r>
  40cac0:	b940      	cbnz	r0, 40cad4 <__swbuf_r+0x8c>
  40cac2:	6822      	ldr	r2, [r4, #0]
  40cac4:	2301      	movs	r3, #1
  40cac6:	e7db      	b.n	40ca80 <__swbuf_r+0x38>
  40cac8:	4621      	mov	r1, r4
  40caca:	4630      	mov	r0, r6
  40cacc:	f7fe fa12 	bl	40aef4 <_fflush_r>
  40cad0:	2800      	cmp	r0, #0
  40cad2:	d0e3      	beq.n	40ca9c <__swbuf_r+0x54>
  40cad4:	f04f 37ff 	mov.w	r7, #4294967295
  40cad8:	e7e0      	b.n	40ca9c <__swbuf_r+0x54>
  40cada:	4621      	mov	r1, r4
  40cadc:	4630      	mov	r0, r6
  40cade:	f7fd f935 	bl	409d4c <__swsetup_r>
  40cae2:	2800      	cmp	r0, #0
  40cae4:	d1f6      	bne.n	40cad4 <__swbuf_r+0x8c>
  40cae6:	f9b4 200c 	ldrsh.w	r2, [r4, #12]
  40caea:	6923      	ldr	r3, [r4, #16]
  40caec:	b291      	uxth	r1, r2
  40caee:	e7bd      	b.n	40ca6c <__swbuf_r+0x24>
  40caf0:	f7fe fa58 	bl	40afa4 <__sinit>
  40caf4:	e7b0      	b.n	40ca58 <__swbuf_r+0x10>
  40caf6:	bf00      	nop

0040caf8 <_wcrtomb_r>:
  40caf8:	b5f0      	push	{r4, r5, r6, r7, lr}
  40cafa:	4606      	mov	r6, r0
  40cafc:	b085      	sub	sp, #20
  40cafe:	461f      	mov	r7, r3
  40cb00:	b189      	cbz	r1, 40cb26 <_wcrtomb_r+0x2e>
  40cb02:	4c10      	ldr	r4, [pc, #64]	; (40cb44 <_wcrtomb_r+0x4c>)
  40cb04:	4d10      	ldr	r5, [pc, #64]	; (40cb48 <_wcrtomb_r+0x50>)
  40cb06:	6824      	ldr	r4, [r4, #0]
  40cb08:	6b64      	ldr	r4, [r4, #52]	; 0x34
  40cb0a:	2c00      	cmp	r4, #0
  40cb0c:	bf08      	it	eq
  40cb0e:	462c      	moveq	r4, r5
  40cb10:	f8d4 40e0 	ldr.w	r4, [r4, #224]	; 0xe0
  40cb14:	47a0      	blx	r4
  40cb16:	1c43      	adds	r3, r0, #1
  40cb18:	d103      	bne.n	40cb22 <_wcrtomb_r+0x2a>
  40cb1a:	2200      	movs	r2, #0
  40cb1c:	238a      	movs	r3, #138	; 0x8a
  40cb1e:	603a      	str	r2, [r7, #0]
  40cb20:	6033      	str	r3, [r6, #0]
  40cb22:	b005      	add	sp, #20
  40cb24:	bdf0      	pop	{r4, r5, r6, r7, pc}
  40cb26:	460c      	mov	r4, r1
  40cb28:	4906      	ldr	r1, [pc, #24]	; (40cb44 <_wcrtomb_r+0x4c>)
  40cb2a:	4a07      	ldr	r2, [pc, #28]	; (40cb48 <_wcrtomb_r+0x50>)
  40cb2c:	6809      	ldr	r1, [r1, #0]
  40cb2e:	6b49      	ldr	r1, [r1, #52]	; 0x34
  40cb30:	2900      	cmp	r1, #0
  40cb32:	bf08      	it	eq
  40cb34:	4611      	moveq	r1, r2
  40cb36:	4622      	mov	r2, r4
  40cb38:	f8d1 40e0 	ldr.w	r4, [r1, #224]	; 0xe0
  40cb3c:	a901      	add	r1, sp, #4
  40cb3e:	47a0      	blx	r4
  40cb40:	e7e9      	b.n	40cb16 <_wcrtomb_r+0x1e>
  40cb42:	bf00      	nop
  40cb44:	20400028 	.word	0x20400028
  40cb48:	2040045c 	.word	0x2040045c

0040cb4c <__ascii_wctomb>:
  40cb4c:	b121      	cbz	r1, 40cb58 <__ascii_wctomb+0xc>
  40cb4e:	2aff      	cmp	r2, #255	; 0xff
  40cb50:	d804      	bhi.n	40cb5c <__ascii_wctomb+0x10>
  40cb52:	700a      	strb	r2, [r1, #0]
  40cb54:	2001      	movs	r0, #1
  40cb56:	4770      	bx	lr
  40cb58:	4608      	mov	r0, r1
  40cb5a:	4770      	bx	lr
  40cb5c:	238a      	movs	r3, #138	; 0x8a
  40cb5e:	6003      	str	r3, [r0, #0]
  40cb60:	f04f 30ff 	mov.w	r0, #4294967295
  40cb64:	4770      	bx	lr
  40cb66:	bf00      	nop

0040cb68 <_write_r>:
  40cb68:	b570      	push	{r4, r5, r6, lr}
  40cb6a:	460d      	mov	r5, r1
  40cb6c:	4c08      	ldr	r4, [pc, #32]	; (40cb90 <_write_r+0x28>)
  40cb6e:	4611      	mov	r1, r2
  40cb70:	4606      	mov	r6, r0
  40cb72:	461a      	mov	r2, r3
  40cb74:	4628      	mov	r0, r5
  40cb76:	2300      	movs	r3, #0
  40cb78:	6023      	str	r3, [r4, #0]
  40cb7a:	f7f8 fa25 	bl	404fc8 <_write>
  40cb7e:	1c43      	adds	r3, r0, #1
  40cb80:	d000      	beq.n	40cb84 <_write_r+0x1c>
  40cb82:	bd70      	pop	{r4, r5, r6, pc}
  40cb84:	6823      	ldr	r3, [r4, #0]
  40cb86:	2b00      	cmp	r3, #0
  40cb88:	d0fb      	beq.n	40cb82 <_write_r+0x1a>
  40cb8a:	6033      	str	r3, [r6, #0]
  40cb8c:	bd70      	pop	{r4, r5, r6, pc}
  40cb8e:	bf00      	nop
  40cb90:	2040cfd4 	.word	0x2040cfd4

0040cb94 <__register_exitproc>:
  40cb94:	e92d 43f8 	stmdb	sp!, {r3, r4, r5, r6, r7, r8, r9, lr}
  40cb98:	4d2c      	ldr	r5, [pc, #176]	; (40cc4c <__register_exitproc+0xb8>)
  40cb9a:	4606      	mov	r6, r0
  40cb9c:	6828      	ldr	r0, [r5, #0]
  40cb9e:	4698      	mov	r8, r3
  40cba0:	460f      	mov	r7, r1
  40cba2:	4691      	mov	r9, r2
  40cba4:	f7fe fdcc 	bl	40b740 <__retarget_lock_acquire_recursive>
  40cba8:	4b29      	ldr	r3, [pc, #164]	; (40cc50 <__register_exitproc+0xbc>)
  40cbaa:	681c      	ldr	r4, [r3, #0]
  40cbac:	f8d4 3148 	ldr.w	r3, [r4, #328]	; 0x148
  40cbb0:	2b00      	cmp	r3, #0
  40cbb2:	d03e      	beq.n	40cc32 <__register_exitproc+0x9e>
  40cbb4:	685a      	ldr	r2, [r3, #4]
  40cbb6:	2a1f      	cmp	r2, #31
  40cbb8:	dc1c      	bgt.n	40cbf4 <__register_exitproc+0x60>
  40cbba:	f102 0e01 	add.w	lr, r2, #1
  40cbbe:	b176      	cbz	r6, 40cbde <__register_exitproc+0x4a>
  40cbc0:	eb03 0182 	add.w	r1, r3, r2, lsl #2
  40cbc4:	2401      	movs	r4, #1
  40cbc6:	f8c1 9088 	str.w	r9, [r1, #136]	; 0x88
  40cbca:	f8d3 0188 	ldr.w	r0, [r3, #392]	; 0x188
  40cbce:	4094      	lsls	r4, r2
  40cbd0:	4320      	orrs	r0, r4
  40cbd2:	2e02      	cmp	r6, #2
  40cbd4:	f8c3 0188 	str.w	r0, [r3, #392]	; 0x188
  40cbd8:	f8c1 8108 	str.w	r8, [r1, #264]	; 0x108
  40cbdc:	d023      	beq.n	40cc26 <__register_exitproc+0x92>
  40cbde:	3202      	adds	r2, #2
  40cbe0:	f8c3 e004 	str.w	lr, [r3, #4]
  40cbe4:	6828      	ldr	r0, [r5, #0]
  40cbe6:	f843 7022 	str.w	r7, [r3, r2, lsl #2]
  40cbea:	f7fe fdab 	bl	40b744 <__retarget_lock_release_recursive>
  40cbee:	2000      	movs	r0, #0
  40cbf0:	e8bd 83f8 	ldmia.w	sp!, {r3, r4, r5, r6, r7, r8, r9, pc}
  40cbf4:	4b17      	ldr	r3, [pc, #92]	; (40cc54 <__register_exitproc+0xc0>)
  40cbf6:	b30b      	cbz	r3, 40cc3c <__register_exitproc+0xa8>
  40cbf8:	f44f 70c8 	mov.w	r0, #400	; 0x190
  40cbfc:	f7fe fe1c 	bl	40b838 <malloc>
  40cc00:	4603      	mov	r3, r0
  40cc02:	b1d8      	cbz	r0, 40cc3c <__register_exitproc+0xa8>
  40cc04:	f8d4 2148 	ldr.w	r2, [r4, #328]	; 0x148
  40cc08:	6002      	str	r2, [r0, #0]
  40cc0a:	2100      	movs	r1, #0
  40cc0c:	6041      	str	r1, [r0, #4]
  40cc0e:	460a      	mov	r2, r1
  40cc10:	f8c4 0148 	str.w	r0, [r4, #328]	; 0x148
  40cc14:	f04f 0e01 	mov.w	lr, #1
  40cc18:	f8c0 1188 	str.w	r1, [r0, #392]	; 0x188
  40cc1c:	f8c0 118c 	str.w	r1, [r0, #396]	; 0x18c
  40cc20:	2e00      	cmp	r6, #0
  40cc22:	d0dc      	beq.n	40cbde <__register_exitproc+0x4a>
  40cc24:	e7cc      	b.n	40cbc0 <__register_exitproc+0x2c>
  40cc26:	f8d3 118c 	ldr.w	r1, [r3, #396]	; 0x18c
  40cc2a:	430c      	orrs	r4, r1
  40cc2c:	f8c3 418c 	str.w	r4, [r3, #396]	; 0x18c
  40cc30:	e7d5      	b.n	40cbde <__register_exitproc+0x4a>
  40cc32:	f504 73a6 	add.w	r3, r4, #332	; 0x14c
  40cc36:	f8c4 3148 	str.w	r3, [r4, #328]	; 0x148
  40cc3a:	e7bb      	b.n	40cbb4 <__register_exitproc+0x20>
  40cc3c:	6828      	ldr	r0, [r5, #0]
  40cc3e:	f7fe fd81 	bl	40b744 <__retarget_lock_release_recursive>
  40cc42:	f04f 30ff 	mov.w	r0, #4294967295
  40cc46:	e8bd 83f8 	ldmia.w	sp!, {r3, r4, r5, r6, r7, r8, r9, pc}
  40cc4a:	bf00      	nop
  40cc4c:	20400458 	.word	0x20400458
  40cc50:	0040e2a0 	.word	0x0040e2a0
  40cc54:	0040b839 	.word	0x0040b839

0040cc58 <_calloc_r>:
  40cc58:	b510      	push	{r4, lr}
  40cc5a:	fb02 f101 	mul.w	r1, r2, r1
  40cc5e:	f7fe fdf3 	bl	40b848 <_malloc_r>
  40cc62:	4604      	mov	r4, r0
  40cc64:	b1d8      	cbz	r0, 40cc9e <_calloc_r+0x46>
  40cc66:	f850 2c04 	ldr.w	r2, [r0, #-4]
  40cc6a:	f022 0203 	bic.w	r2, r2, #3
  40cc6e:	3a04      	subs	r2, #4
  40cc70:	2a24      	cmp	r2, #36	; 0x24
  40cc72:	d818      	bhi.n	40cca6 <_calloc_r+0x4e>
  40cc74:	2a13      	cmp	r2, #19
  40cc76:	d914      	bls.n	40cca2 <_calloc_r+0x4a>
  40cc78:	2300      	movs	r3, #0
  40cc7a:	2a1b      	cmp	r2, #27
  40cc7c:	6003      	str	r3, [r0, #0]
  40cc7e:	6043      	str	r3, [r0, #4]
  40cc80:	d916      	bls.n	40ccb0 <_calloc_r+0x58>
  40cc82:	2a24      	cmp	r2, #36	; 0x24
  40cc84:	6083      	str	r3, [r0, #8]
  40cc86:	60c3      	str	r3, [r0, #12]
  40cc88:	bf11      	iteee	ne
  40cc8a:	f100 0210 	addne.w	r2, r0, #16
  40cc8e:	6103      	streq	r3, [r0, #16]
  40cc90:	6143      	streq	r3, [r0, #20]
  40cc92:	f100 0218 	addeq.w	r2, r0, #24
  40cc96:	2300      	movs	r3, #0
  40cc98:	6013      	str	r3, [r2, #0]
  40cc9a:	6053      	str	r3, [r2, #4]
  40cc9c:	6093      	str	r3, [r2, #8]
  40cc9e:	4620      	mov	r0, r4
  40cca0:	bd10      	pop	{r4, pc}
  40cca2:	4602      	mov	r2, r0
  40cca4:	e7f7      	b.n	40cc96 <_calloc_r+0x3e>
  40cca6:	2100      	movs	r1, #0
  40cca8:	f7fa fd32 	bl	407710 <memset>
  40ccac:	4620      	mov	r0, r4
  40ccae:	bd10      	pop	{r4, pc}
  40ccb0:	f100 0208 	add.w	r2, r0, #8
  40ccb4:	e7ef      	b.n	40cc96 <_calloc_r+0x3e>
  40ccb6:	bf00      	nop

0040ccb8 <_close_r>:
  40ccb8:	b538      	push	{r3, r4, r5, lr}
  40ccba:	4c07      	ldr	r4, [pc, #28]	; (40ccd8 <_close_r+0x20>)
  40ccbc:	2300      	movs	r3, #0
  40ccbe:	4605      	mov	r5, r0
  40ccc0:	4608      	mov	r0, r1
  40ccc2:	6023      	str	r3, [r4, #0]
  40ccc4:	f7f9 f838 	bl	405d38 <_close>
  40ccc8:	1c43      	adds	r3, r0, #1
  40ccca:	d000      	beq.n	40ccce <_close_r+0x16>
  40cccc:	bd38      	pop	{r3, r4, r5, pc}
  40ccce:	6823      	ldr	r3, [r4, #0]
  40ccd0:	2b00      	cmp	r3, #0
  40ccd2:	d0fb      	beq.n	40cccc <_close_r+0x14>
  40ccd4:	602b      	str	r3, [r5, #0]
  40ccd6:	bd38      	pop	{r3, r4, r5, pc}
  40ccd8:	2040cfd4 	.word	0x2040cfd4

0040ccdc <_fclose_r>:
  40ccdc:	b570      	push	{r4, r5, r6, lr}
  40ccde:	b159      	cbz	r1, 40ccf8 <_fclose_r+0x1c>
  40cce0:	4605      	mov	r5, r0
  40cce2:	460c      	mov	r4, r1
  40cce4:	b110      	cbz	r0, 40ccec <_fclose_r+0x10>
  40cce6:	6b83      	ldr	r3, [r0, #56]	; 0x38
  40cce8:	2b00      	cmp	r3, #0
  40ccea:	d03c      	beq.n	40cd66 <_fclose_r+0x8a>
  40ccec:	6e63      	ldr	r3, [r4, #100]	; 0x64
  40ccee:	07d8      	lsls	r0, r3, #31
  40ccf0:	d505      	bpl.n	40ccfe <_fclose_r+0x22>
  40ccf2:	f9b4 300c 	ldrsh.w	r3, [r4, #12]
  40ccf6:	b92b      	cbnz	r3, 40cd04 <_fclose_r+0x28>
  40ccf8:	2600      	movs	r6, #0
  40ccfa:	4630      	mov	r0, r6
  40ccfc:	bd70      	pop	{r4, r5, r6, pc}
  40ccfe:	89a3      	ldrh	r3, [r4, #12]
  40cd00:	0599      	lsls	r1, r3, #22
  40cd02:	d53c      	bpl.n	40cd7e <_fclose_r+0xa2>
  40cd04:	4621      	mov	r1, r4
  40cd06:	4628      	mov	r0, r5
  40cd08:	f7fe f854 	bl	40adb4 <__sflush_r>
  40cd0c:	6ae3      	ldr	r3, [r4, #44]	; 0x2c
  40cd0e:	4606      	mov	r6, r0
  40cd10:	b133      	cbz	r3, 40cd20 <_fclose_r+0x44>
  40cd12:	69e1      	ldr	r1, [r4, #28]
  40cd14:	4628      	mov	r0, r5
  40cd16:	4798      	blx	r3
  40cd18:	2800      	cmp	r0, #0
  40cd1a:	bfb8      	it	lt
  40cd1c:	f04f 36ff 	movlt.w	r6, #4294967295
  40cd20:	89a3      	ldrh	r3, [r4, #12]
  40cd22:	061a      	lsls	r2, r3, #24
  40cd24:	d422      	bmi.n	40cd6c <_fclose_r+0x90>
  40cd26:	6b21      	ldr	r1, [r4, #48]	; 0x30
  40cd28:	b141      	cbz	r1, 40cd3c <_fclose_r+0x60>
  40cd2a:	f104 0340 	add.w	r3, r4, #64	; 0x40
  40cd2e:	4299      	cmp	r1, r3
  40cd30:	d002      	beq.n	40cd38 <_fclose_r+0x5c>
  40cd32:	4628      	mov	r0, r5
  40cd34:	f7fe fa5c 	bl	40b1f0 <_free_r>
  40cd38:	2300      	movs	r3, #0
  40cd3a:	6323      	str	r3, [r4, #48]	; 0x30
  40cd3c:	6c61      	ldr	r1, [r4, #68]	; 0x44
  40cd3e:	b121      	cbz	r1, 40cd4a <_fclose_r+0x6e>
  40cd40:	4628      	mov	r0, r5
  40cd42:	f7fe fa55 	bl	40b1f0 <_free_r>
  40cd46:	2300      	movs	r3, #0
  40cd48:	6463      	str	r3, [r4, #68]	; 0x44
  40cd4a:	f7fe f957 	bl	40affc <__sfp_lock_acquire>
  40cd4e:	6e63      	ldr	r3, [r4, #100]	; 0x64
  40cd50:	2200      	movs	r2, #0
  40cd52:	07db      	lsls	r3, r3, #31
  40cd54:	81a2      	strh	r2, [r4, #12]
  40cd56:	d50e      	bpl.n	40cd76 <_fclose_r+0x9a>
  40cd58:	6da0      	ldr	r0, [r4, #88]	; 0x58
  40cd5a:	f7fe fcef 	bl	40b73c <__retarget_lock_close_recursive>
  40cd5e:	f7fe f953 	bl	40b008 <__sfp_lock_release>
  40cd62:	4630      	mov	r0, r6
  40cd64:	bd70      	pop	{r4, r5, r6, pc}
  40cd66:	f7fe f91d 	bl	40afa4 <__sinit>
  40cd6a:	e7bf      	b.n	40ccec <_fclose_r+0x10>
  40cd6c:	6921      	ldr	r1, [r4, #16]
  40cd6e:	4628      	mov	r0, r5
  40cd70:	f7fe fa3e 	bl	40b1f0 <_free_r>
  40cd74:	e7d7      	b.n	40cd26 <_fclose_r+0x4a>
  40cd76:	6da0      	ldr	r0, [r4, #88]	; 0x58
  40cd78:	f7fe fce4 	bl	40b744 <__retarget_lock_release_recursive>
  40cd7c:	e7ec      	b.n	40cd58 <_fclose_r+0x7c>
  40cd7e:	6da0      	ldr	r0, [r4, #88]	; 0x58
  40cd80:	f7fe fcde 	bl	40b740 <__retarget_lock_acquire_recursive>
  40cd84:	f9b4 300c 	ldrsh.w	r3, [r4, #12]
  40cd88:	2b00      	cmp	r3, #0
  40cd8a:	d1bb      	bne.n	40cd04 <_fclose_r+0x28>
  40cd8c:	6e66      	ldr	r6, [r4, #100]	; 0x64
  40cd8e:	f016 0601 	ands.w	r6, r6, #1
  40cd92:	d1b1      	bne.n	40ccf8 <_fclose_r+0x1c>
  40cd94:	6da0      	ldr	r0, [r4, #88]	; 0x58
  40cd96:	f7fe fcd5 	bl	40b744 <__retarget_lock_release_recursive>
  40cd9a:	4630      	mov	r0, r6
  40cd9c:	bd70      	pop	{r4, r5, r6, pc}
  40cd9e:	bf00      	nop

0040cda0 <_fstat_r>:
  40cda0:	b538      	push	{r3, r4, r5, lr}
  40cda2:	460b      	mov	r3, r1
  40cda4:	4c07      	ldr	r4, [pc, #28]	; (40cdc4 <_fstat_r+0x24>)
  40cda6:	4605      	mov	r5, r0
  40cda8:	4611      	mov	r1, r2
  40cdaa:	4618      	mov	r0, r3
  40cdac:	2300      	movs	r3, #0
  40cdae:	6023      	str	r3, [r4, #0]
  40cdb0:	f7f8 ffc5 	bl	405d3e <_fstat>
  40cdb4:	1c43      	adds	r3, r0, #1
  40cdb6:	d000      	beq.n	40cdba <_fstat_r+0x1a>
  40cdb8:	bd38      	pop	{r3, r4, r5, pc}
  40cdba:	6823      	ldr	r3, [r4, #0]
  40cdbc:	2b00      	cmp	r3, #0
  40cdbe:	d0fb      	beq.n	40cdb8 <_fstat_r+0x18>
  40cdc0:	602b      	str	r3, [r5, #0]
  40cdc2:	bd38      	pop	{r3, r4, r5, pc}
  40cdc4:	2040cfd4 	.word	0x2040cfd4

0040cdc8 <_isatty_r>:
  40cdc8:	b538      	push	{r3, r4, r5, lr}
  40cdca:	4c07      	ldr	r4, [pc, #28]	; (40cde8 <_isatty_r+0x20>)
  40cdcc:	2300      	movs	r3, #0
  40cdce:	4605      	mov	r5, r0
  40cdd0:	4608      	mov	r0, r1
  40cdd2:	6023      	str	r3, [r4, #0]
  40cdd4:	f7f8 ffb8 	bl	405d48 <_isatty>
  40cdd8:	1c43      	adds	r3, r0, #1
  40cdda:	d000      	beq.n	40cdde <_isatty_r+0x16>
  40cddc:	bd38      	pop	{r3, r4, r5, pc}
  40cdde:	6823      	ldr	r3, [r4, #0]
  40cde0:	2b00      	cmp	r3, #0
  40cde2:	d0fb      	beq.n	40cddc <_isatty_r+0x14>
  40cde4:	602b      	str	r3, [r5, #0]
  40cde6:	bd38      	pop	{r3, r4, r5, pc}
  40cde8:	2040cfd4 	.word	0x2040cfd4

0040cdec <_lseek_r>:
  40cdec:	b570      	push	{r4, r5, r6, lr}
  40cdee:	460d      	mov	r5, r1
  40cdf0:	4c08      	ldr	r4, [pc, #32]	; (40ce14 <_lseek_r+0x28>)
  40cdf2:	4611      	mov	r1, r2
  40cdf4:	4606      	mov	r6, r0
  40cdf6:	461a      	mov	r2, r3
  40cdf8:	4628      	mov	r0, r5
  40cdfa:	2300      	movs	r3, #0
  40cdfc:	6023      	str	r3, [r4, #0]
  40cdfe:	f7f8 ffa5 	bl	405d4c <_lseek>
  40ce02:	1c43      	adds	r3, r0, #1
  40ce04:	d000      	beq.n	40ce08 <_lseek_r+0x1c>
  40ce06:	bd70      	pop	{r4, r5, r6, pc}
  40ce08:	6823      	ldr	r3, [r4, #0]
  40ce0a:	2b00      	cmp	r3, #0
  40ce0c:	d0fb      	beq.n	40ce06 <_lseek_r+0x1a>
  40ce0e:	6033      	str	r3, [r6, #0]
  40ce10:	bd70      	pop	{r4, r5, r6, pc}
  40ce12:	bf00      	nop
  40ce14:	2040cfd4 	.word	0x2040cfd4

0040ce18 <_read_r>:
  40ce18:	b570      	push	{r4, r5, r6, lr}
  40ce1a:	460d      	mov	r5, r1
  40ce1c:	4c08      	ldr	r4, [pc, #32]	; (40ce40 <_read_r+0x28>)
  40ce1e:	4611      	mov	r1, r2
  40ce20:	4606      	mov	r6, r0
  40ce22:	461a      	mov	r2, r3
  40ce24:	4628      	mov	r0, r5
  40ce26:	2300      	movs	r3, #0
  40ce28:	6023      	str	r3, [r4, #0]
  40ce2a:	f7f8 f8af 	bl	404f8c <_read>
  40ce2e:	1c43      	adds	r3, r0, #1
  40ce30:	d000      	beq.n	40ce34 <_read_r+0x1c>
  40ce32:	bd70      	pop	{r4, r5, r6, pc}
  40ce34:	6823      	ldr	r3, [r4, #0]
  40ce36:	2b00      	cmp	r3, #0
  40ce38:	d0fb      	beq.n	40ce32 <_read_r+0x1a>
  40ce3a:	6033      	str	r3, [r6, #0]
  40ce3c:	bd70      	pop	{r4, r5, r6, pc}
  40ce3e:	bf00      	nop
  40ce40:	2040cfd4 	.word	0x2040cfd4

0040ce44 <__gedf2>:
  40ce44:	f04f 3cff 	mov.w	ip, #4294967295
  40ce48:	e006      	b.n	40ce58 <__cmpdf2+0x4>
  40ce4a:	bf00      	nop

0040ce4c <__ledf2>:
  40ce4c:	f04f 0c01 	mov.w	ip, #1
  40ce50:	e002      	b.n	40ce58 <__cmpdf2+0x4>
  40ce52:	bf00      	nop

0040ce54 <__cmpdf2>:
  40ce54:	f04f 0c01 	mov.w	ip, #1
  40ce58:	f84d cd04 	str.w	ip, [sp, #-4]!
  40ce5c:	ea4f 0c41 	mov.w	ip, r1, lsl #1
  40ce60:	ea7f 5c6c 	mvns.w	ip, ip, asr #21
  40ce64:	ea4f 0c43 	mov.w	ip, r3, lsl #1
  40ce68:	bf18      	it	ne
  40ce6a:	ea7f 5c6c 	mvnsne.w	ip, ip, asr #21
  40ce6e:	d01b      	beq.n	40cea8 <__cmpdf2+0x54>
  40ce70:	b001      	add	sp, #4
  40ce72:	ea50 0c41 	orrs.w	ip, r0, r1, lsl #1
  40ce76:	bf0c      	ite	eq
  40ce78:	ea52 0c43 	orrseq.w	ip, r2, r3, lsl #1
  40ce7c:	ea91 0f03 	teqne	r1, r3
  40ce80:	bf02      	ittt	eq
  40ce82:	ea90 0f02 	teqeq	r0, r2
  40ce86:	2000      	moveq	r0, #0
  40ce88:	4770      	bxeq	lr
  40ce8a:	f110 0f00 	cmn.w	r0, #0
  40ce8e:	ea91 0f03 	teq	r1, r3
  40ce92:	bf58      	it	pl
  40ce94:	4299      	cmppl	r1, r3
  40ce96:	bf08      	it	eq
  40ce98:	4290      	cmpeq	r0, r2
  40ce9a:	bf2c      	ite	cs
  40ce9c:	17d8      	asrcs	r0, r3, #31
  40ce9e:	ea6f 70e3 	mvncc.w	r0, r3, asr #31
  40cea2:	f040 0001 	orr.w	r0, r0, #1
  40cea6:	4770      	bx	lr
  40cea8:	ea4f 0c41 	mov.w	ip, r1, lsl #1
  40ceac:	ea7f 5c6c 	mvns.w	ip, ip, asr #21
  40ceb0:	d102      	bne.n	40ceb8 <__cmpdf2+0x64>
  40ceb2:	ea50 3c01 	orrs.w	ip, r0, r1, lsl #12
  40ceb6:	d107      	bne.n	40cec8 <__cmpdf2+0x74>
  40ceb8:	ea4f 0c43 	mov.w	ip, r3, lsl #1
  40cebc:	ea7f 5c6c 	mvns.w	ip, ip, asr #21
  40cec0:	d1d6      	bne.n	40ce70 <__cmpdf2+0x1c>
  40cec2:	ea52 3c03 	orrs.w	ip, r2, r3, lsl #12
  40cec6:	d0d3      	beq.n	40ce70 <__cmpdf2+0x1c>
  40cec8:	f85d 0b04 	ldr.w	r0, [sp], #4
  40cecc:	4770      	bx	lr
  40cece:	bf00      	nop

0040ced0 <__aeabi_cdrcmple>:
  40ced0:	4684      	mov	ip, r0
  40ced2:	4610      	mov	r0, r2
  40ced4:	4662      	mov	r2, ip
  40ced6:	468c      	mov	ip, r1
  40ced8:	4619      	mov	r1, r3
  40ceda:	4663      	mov	r3, ip
  40cedc:	e000      	b.n	40cee0 <__aeabi_cdcmpeq>
  40cede:	bf00      	nop

0040cee0 <__aeabi_cdcmpeq>:
  40cee0:	b501      	push	{r0, lr}
  40cee2:	f7ff ffb7 	bl	40ce54 <__cmpdf2>
  40cee6:	2800      	cmp	r0, #0
  40cee8:	bf48      	it	mi
  40ceea:	f110 0f00 	cmnmi.w	r0, #0
  40ceee:	bd01      	pop	{r0, pc}

0040cef0 <__aeabi_dcmpeq>:
  40cef0:	f84d ed08 	str.w	lr, [sp, #-8]!
  40cef4:	f7ff fff4 	bl	40cee0 <__aeabi_cdcmpeq>
  40cef8:	bf0c      	ite	eq
  40cefa:	2001      	moveq	r0, #1
  40cefc:	2000      	movne	r0, #0
  40cefe:	f85d fb08 	ldr.w	pc, [sp], #8
  40cf02:	bf00      	nop

0040cf04 <__aeabi_dcmplt>:
  40cf04:	f84d ed08 	str.w	lr, [sp, #-8]!
  40cf08:	f7ff ffea 	bl	40cee0 <__aeabi_cdcmpeq>
  40cf0c:	bf34      	ite	cc
  40cf0e:	2001      	movcc	r0, #1
  40cf10:	2000      	movcs	r0, #0
  40cf12:	f85d fb08 	ldr.w	pc, [sp], #8
  40cf16:	bf00      	nop

0040cf18 <__aeabi_dcmple>:
  40cf18:	f84d ed08 	str.w	lr, [sp, #-8]!
  40cf1c:	f7ff ffe0 	bl	40cee0 <__aeabi_cdcmpeq>
  40cf20:	bf94      	ite	ls
  40cf22:	2001      	movls	r0, #1
  40cf24:	2000      	movhi	r0, #0
  40cf26:	f85d fb08 	ldr.w	pc, [sp], #8
  40cf2a:	bf00      	nop

0040cf2c <__aeabi_dcmpge>:
  40cf2c:	f84d ed08 	str.w	lr, [sp, #-8]!
  40cf30:	f7ff ffce 	bl	40ced0 <__aeabi_cdrcmple>
  40cf34:	bf94      	ite	ls
  40cf36:	2001      	movls	r0, #1
  40cf38:	2000      	movhi	r0, #0
  40cf3a:	f85d fb08 	ldr.w	pc, [sp], #8
  40cf3e:	bf00      	nop

0040cf40 <__aeabi_dcmpgt>:
  40cf40:	f84d ed08 	str.w	lr, [sp, #-8]!
  40cf44:	f7ff ffc4 	bl	40ced0 <__aeabi_cdrcmple>
  40cf48:	bf34      	ite	cc
  40cf4a:	2001      	movcc	r0, #1
  40cf4c:	2000      	movcs	r0, #0
  40cf4e:	f85d fb08 	ldr.w	pc, [sp], #8
  40cf52:	bf00      	nop

0040cf54 <__aeabi_dcmpun>:
  40cf54:	ea4f 0c41 	mov.w	ip, r1, lsl #1
  40cf58:	ea7f 5c6c 	mvns.w	ip, ip, asr #21
  40cf5c:	d102      	bne.n	40cf64 <__aeabi_dcmpun+0x10>
  40cf5e:	ea50 3c01 	orrs.w	ip, r0, r1, lsl #12
  40cf62:	d10a      	bne.n	40cf7a <__aeabi_dcmpun+0x26>
  40cf64:	ea4f 0c43 	mov.w	ip, r3, lsl #1
  40cf68:	ea7f 5c6c 	mvns.w	ip, ip, asr #21
  40cf6c:	d102      	bne.n	40cf74 <__aeabi_dcmpun+0x20>
  40cf6e:	ea52 3c03 	orrs.w	ip, r2, r3, lsl #12
  40cf72:	d102      	bne.n	40cf7a <__aeabi_dcmpun+0x26>
  40cf74:	f04f 0000 	mov.w	r0, #0
  40cf78:	4770      	bx	lr
  40cf7a:	f04f 0001 	mov.w	r0, #1
  40cf7e:	4770      	bx	lr

0040cf80 <__aeabi_uldivmod>:
  40cf80:	b953      	cbnz	r3, 40cf98 <__aeabi_uldivmod+0x18>
  40cf82:	b94a      	cbnz	r2, 40cf98 <__aeabi_uldivmod+0x18>
  40cf84:	2900      	cmp	r1, #0
  40cf86:	bf08      	it	eq
  40cf88:	2800      	cmpeq	r0, #0
  40cf8a:	bf1c      	itt	ne
  40cf8c:	f04f 31ff 	movne.w	r1, #4294967295
  40cf90:	f04f 30ff 	movne.w	r0, #4294967295
  40cf94:	f000 b97a 	b.w	40d28c <__aeabi_idiv0>
  40cf98:	f1ad 0c08 	sub.w	ip, sp, #8
  40cf9c:	e96d ce04 	strd	ip, lr, [sp, #-16]!
  40cfa0:	f000 f806 	bl	40cfb0 <__udivmoddi4>
  40cfa4:	f8dd e004 	ldr.w	lr, [sp, #4]
  40cfa8:	e9dd 2302 	ldrd	r2, r3, [sp, #8]
  40cfac:	b004      	add	sp, #16
  40cfae:	4770      	bx	lr

0040cfb0 <__udivmoddi4>:
  40cfb0:	e92d 47f0 	stmdb	sp!, {r4, r5, r6, r7, r8, r9, sl, lr}
  40cfb4:	468c      	mov	ip, r1
  40cfb6:	460d      	mov	r5, r1
  40cfb8:	4604      	mov	r4, r0
  40cfba:	9e08      	ldr	r6, [sp, #32]
  40cfbc:	2b00      	cmp	r3, #0
  40cfbe:	d151      	bne.n	40d064 <__udivmoddi4+0xb4>
  40cfc0:	428a      	cmp	r2, r1
  40cfc2:	4617      	mov	r7, r2
  40cfc4:	d96d      	bls.n	40d0a2 <__udivmoddi4+0xf2>
  40cfc6:	fab2 fe82 	clz	lr, r2
  40cfca:	f1be 0f00 	cmp.w	lr, #0
  40cfce:	d00b      	beq.n	40cfe8 <__udivmoddi4+0x38>
  40cfd0:	f1ce 0c20 	rsb	ip, lr, #32
  40cfd4:	fa01 f50e 	lsl.w	r5, r1, lr
  40cfd8:	fa20 fc0c 	lsr.w	ip, r0, ip
  40cfdc:	fa02 f70e 	lsl.w	r7, r2, lr
  40cfe0:	ea4c 0c05 	orr.w	ip, ip, r5
  40cfe4:	fa00 f40e 	lsl.w	r4, r0, lr
  40cfe8:	ea4f 4a17 	mov.w	sl, r7, lsr #16
  40cfec:	0c25      	lsrs	r5, r4, #16
  40cfee:	fbbc f8fa 	udiv	r8, ip, sl
  40cff2:	fa1f f987 	uxth.w	r9, r7
  40cff6:	fb0a cc18 	mls	ip, sl, r8, ip
  40cffa:	ea45 450c 	orr.w	r5, r5, ip, lsl #16
  40cffe:	fb08 f309 	mul.w	r3, r8, r9
  40d002:	42ab      	cmp	r3, r5
  40d004:	d90a      	bls.n	40d01c <__udivmoddi4+0x6c>
  40d006:	19ed      	adds	r5, r5, r7
  40d008:	f108 32ff 	add.w	r2, r8, #4294967295
  40d00c:	f080 8123 	bcs.w	40d256 <__udivmoddi4+0x2a6>
  40d010:	42ab      	cmp	r3, r5
  40d012:	f240 8120 	bls.w	40d256 <__udivmoddi4+0x2a6>
  40d016:	f1a8 0802 	sub.w	r8, r8, #2
  40d01a:	443d      	add	r5, r7
  40d01c:	1aed      	subs	r5, r5, r3
  40d01e:	b2a4      	uxth	r4, r4
  40d020:	fbb5 f0fa 	udiv	r0, r5, sl
  40d024:	fb0a 5510 	mls	r5, sl, r0, r5
  40d028:	ea44 4405 	orr.w	r4, r4, r5, lsl #16
  40d02c:	fb00 f909 	mul.w	r9, r0, r9
  40d030:	45a1      	cmp	r9, r4
  40d032:	d909      	bls.n	40d048 <__udivmoddi4+0x98>
  40d034:	19e4      	adds	r4, r4, r7
  40d036:	f100 33ff 	add.w	r3, r0, #4294967295
  40d03a:	f080 810a 	bcs.w	40d252 <__udivmoddi4+0x2a2>
  40d03e:	45a1      	cmp	r9, r4
  40d040:	f240 8107 	bls.w	40d252 <__udivmoddi4+0x2a2>
  40d044:	3802      	subs	r0, #2
  40d046:	443c      	add	r4, r7
  40d048:	eba4 0409 	sub.w	r4, r4, r9
  40d04c:	ea40 4008 	orr.w	r0, r0, r8, lsl #16
  40d050:	2100      	movs	r1, #0
  40d052:	2e00      	cmp	r6, #0
  40d054:	d061      	beq.n	40d11a <__udivmoddi4+0x16a>
  40d056:	fa24 f40e 	lsr.w	r4, r4, lr
  40d05a:	2300      	movs	r3, #0
  40d05c:	6034      	str	r4, [r6, #0]
  40d05e:	6073      	str	r3, [r6, #4]
  40d060:	e8bd 87f0 	ldmia.w	sp!, {r4, r5, r6, r7, r8, r9, sl, pc}
  40d064:	428b      	cmp	r3, r1
  40d066:	d907      	bls.n	40d078 <__udivmoddi4+0xc8>
  40d068:	2e00      	cmp	r6, #0
  40d06a:	d054      	beq.n	40d116 <__udivmoddi4+0x166>
  40d06c:	2100      	movs	r1, #0
  40d06e:	e886 0021 	stmia.w	r6, {r0, r5}
  40d072:	4608      	mov	r0, r1
  40d074:	e8bd 87f0 	ldmia.w	sp!, {r4, r5, r6, r7, r8, r9, sl, pc}
  40d078:	fab3 f183 	clz	r1, r3
  40d07c:	2900      	cmp	r1, #0
  40d07e:	f040 808e 	bne.w	40d19e <__udivmoddi4+0x1ee>
  40d082:	42ab      	cmp	r3, r5
  40d084:	d302      	bcc.n	40d08c <__udivmoddi4+0xdc>
  40d086:	4282      	cmp	r2, r0
  40d088:	f200 80fa 	bhi.w	40d280 <__udivmoddi4+0x2d0>
  40d08c:	1a84      	subs	r4, r0, r2
  40d08e:	eb65 0503 	sbc.w	r5, r5, r3
  40d092:	2001      	movs	r0, #1
  40d094:	46ac      	mov	ip, r5
  40d096:	2e00      	cmp	r6, #0
  40d098:	d03f      	beq.n	40d11a <__udivmoddi4+0x16a>
  40d09a:	e886 1010 	stmia.w	r6, {r4, ip}
  40d09e:	e8bd 87f0 	ldmia.w	sp!, {r4, r5, r6, r7, r8, r9, sl, pc}
  40d0a2:	b912      	cbnz	r2, 40d0aa <__udivmoddi4+0xfa>
  40d0a4:	2701      	movs	r7, #1
  40d0a6:	fbb7 f7f2 	udiv	r7, r7, r2
  40d0aa:	fab7 fe87 	clz	lr, r7
  40d0ae:	f1be 0f00 	cmp.w	lr, #0
  40d0b2:	d134      	bne.n	40d11e <__udivmoddi4+0x16e>
  40d0b4:	1beb      	subs	r3, r5, r7
  40d0b6:	0c3a      	lsrs	r2, r7, #16
  40d0b8:	fa1f fc87 	uxth.w	ip, r7
  40d0bc:	2101      	movs	r1, #1
  40d0be:	fbb3 f8f2 	udiv	r8, r3, r2
  40d0c2:	0c25      	lsrs	r5, r4, #16
  40d0c4:	fb02 3318 	mls	r3, r2, r8, r3
  40d0c8:	ea45 4503 	orr.w	r5, r5, r3, lsl #16
  40d0cc:	fb0c f308 	mul.w	r3, ip, r8
  40d0d0:	42ab      	cmp	r3, r5
  40d0d2:	d907      	bls.n	40d0e4 <__udivmoddi4+0x134>
  40d0d4:	19ed      	adds	r5, r5, r7
  40d0d6:	f108 30ff 	add.w	r0, r8, #4294967295
  40d0da:	d202      	bcs.n	40d0e2 <__udivmoddi4+0x132>
  40d0dc:	42ab      	cmp	r3, r5
  40d0de:	f200 80d1 	bhi.w	40d284 <__udivmoddi4+0x2d4>
  40d0e2:	4680      	mov	r8, r0
  40d0e4:	1aed      	subs	r5, r5, r3
  40d0e6:	b2a3      	uxth	r3, r4
  40d0e8:	fbb5 f0f2 	udiv	r0, r5, r2
  40d0ec:	fb02 5510 	mls	r5, r2, r0, r5
  40d0f0:	ea43 4405 	orr.w	r4, r3, r5, lsl #16
  40d0f4:	fb0c fc00 	mul.w	ip, ip, r0
  40d0f8:	45a4      	cmp	ip, r4
  40d0fa:	d907      	bls.n	40d10c <__udivmoddi4+0x15c>
  40d0fc:	19e4      	adds	r4, r4, r7
  40d0fe:	f100 33ff 	add.w	r3, r0, #4294967295
  40d102:	d202      	bcs.n	40d10a <__udivmoddi4+0x15a>
  40d104:	45a4      	cmp	ip, r4
  40d106:	f200 80b8 	bhi.w	40d27a <__udivmoddi4+0x2ca>
  40d10a:	4618      	mov	r0, r3
  40d10c:	eba4 040c 	sub.w	r4, r4, ip
  40d110:	ea40 4008 	orr.w	r0, r0, r8, lsl #16
  40d114:	e79d      	b.n	40d052 <__udivmoddi4+0xa2>
  40d116:	4631      	mov	r1, r6
  40d118:	4630      	mov	r0, r6
  40d11a:	e8bd 87f0 	ldmia.w	sp!, {r4, r5, r6, r7, r8, r9, sl, pc}
  40d11e:	f1ce 0420 	rsb	r4, lr, #32
  40d122:	fa05 f30e 	lsl.w	r3, r5, lr
  40d126:	fa07 f70e 	lsl.w	r7, r7, lr
  40d12a:	fa20 f804 	lsr.w	r8, r0, r4
  40d12e:	0c3a      	lsrs	r2, r7, #16
  40d130:	fa25 f404 	lsr.w	r4, r5, r4
  40d134:	ea48 0803 	orr.w	r8, r8, r3
  40d138:	fbb4 f1f2 	udiv	r1, r4, r2
  40d13c:	ea4f 4518 	mov.w	r5, r8, lsr #16
  40d140:	fb02 4411 	mls	r4, r2, r1, r4
  40d144:	fa1f fc87 	uxth.w	ip, r7
  40d148:	ea45 4504 	orr.w	r5, r5, r4, lsl #16
  40d14c:	fb01 f30c 	mul.w	r3, r1, ip
  40d150:	42ab      	cmp	r3, r5
  40d152:	fa00 f40e 	lsl.w	r4, r0, lr
  40d156:	d909      	bls.n	40d16c <__udivmoddi4+0x1bc>
  40d158:	19ed      	adds	r5, r5, r7
  40d15a:	f101 30ff 	add.w	r0, r1, #4294967295
  40d15e:	f080 808a 	bcs.w	40d276 <__udivmoddi4+0x2c6>
  40d162:	42ab      	cmp	r3, r5
  40d164:	f240 8087 	bls.w	40d276 <__udivmoddi4+0x2c6>
  40d168:	3902      	subs	r1, #2
  40d16a:	443d      	add	r5, r7
  40d16c:	1aeb      	subs	r3, r5, r3
  40d16e:	fa1f f588 	uxth.w	r5, r8
  40d172:	fbb3 f0f2 	udiv	r0, r3, r2
  40d176:	fb02 3310 	mls	r3, r2, r0, r3
  40d17a:	ea45 4503 	orr.w	r5, r5, r3, lsl #16
  40d17e:	fb00 f30c 	mul.w	r3, r0, ip
  40d182:	42ab      	cmp	r3, r5
  40d184:	d907      	bls.n	40d196 <__udivmoddi4+0x1e6>
  40d186:	19ed      	adds	r5, r5, r7
  40d188:	f100 38ff 	add.w	r8, r0, #4294967295
  40d18c:	d26f      	bcs.n	40d26e <__udivmoddi4+0x2be>
  40d18e:	42ab      	cmp	r3, r5
  40d190:	d96d      	bls.n	40d26e <__udivmoddi4+0x2be>
  40d192:	3802      	subs	r0, #2
  40d194:	443d      	add	r5, r7
  40d196:	1aeb      	subs	r3, r5, r3
  40d198:	ea40 4101 	orr.w	r1, r0, r1, lsl #16
  40d19c:	e78f      	b.n	40d0be <__udivmoddi4+0x10e>
  40d19e:	f1c1 0720 	rsb	r7, r1, #32
  40d1a2:	fa22 f807 	lsr.w	r8, r2, r7
  40d1a6:	408b      	lsls	r3, r1
  40d1a8:	fa05 f401 	lsl.w	r4, r5, r1
  40d1ac:	ea48 0303 	orr.w	r3, r8, r3
  40d1b0:	fa20 fe07 	lsr.w	lr, r0, r7
  40d1b4:	ea4f 4c13 	mov.w	ip, r3, lsr #16
  40d1b8:	40fd      	lsrs	r5, r7
  40d1ba:	ea4e 0e04 	orr.w	lr, lr, r4
  40d1be:	fbb5 f9fc 	udiv	r9, r5, ip
  40d1c2:	ea4f 441e 	mov.w	r4, lr, lsr #16
  40d1c6:	fb0c 5519 	mls	r5, ip, r9, r5
  40d1ca:	fa1f f883 	uxth.w	r8, r3
  40d1ce:	ea44 4505 	orr.w	r5, r4, r5, lsl #16
  40d1d2:	fb09 f408 	mul.w	r4, r9, r8
  40d1d6:	42ac      	cmp	r4, r5
  40d1d8:	fa02 f201 	lsl.w	r2, r2, r1
  40d1dc:	fa00 fa01 	lsl.w	sl, r0, r1
  40d1e0:	d908      	bls.n	40d1f4 <__udivmoddi4+0x244>
  40d1e2:	18ed      	adds	r5, r5, r3
  40d1e4:	f109 30ff 	add.w	r0, r9, #4294967295
  40d1e8:	d243      	bcs.n	40d272 <__udivmoddi4+0x2c2>
  40d1ea:	42ac      	cmp	r4, r5
  40d1ec:	d941      	bls.n	40d272 <__udivmoddi4+0x2c2>
  40d1ee:	f1a9 0902 	sub.w	r9, r9, #2
  40d1f2:	441d      	add	r5, r3
  40d1f4:	1b2d      	subs	r5, r5, r4
  40d1f6:	fa1f fe8e 	uxth.w	lr, lr
  40d1fa:	fbb5 f0fc 	udiv	r0, r5, ip
  40d1fe:	fb0c 5510 	mls	r5, ip, r0, r5
  40d202:	ea4e 4405 	orr.w	r4, lr, r5, lsl #16
  40d206:	fb00 f808 	mul.w	r8, r0, r8
  40d20a:	45a0      	cmp	r8, r4
  40d20c:	d907      	bls.n	40d21e <__udivmoddi4+0x26e>
  40d20e:	18e4      	adds	r4, r4, r3
  40d210:	f100 35ff 	add.w	r5, r0, #4294967295
  40d214:	d229      	bcs.n	40d26a <__udivmoddi4+0x2ba>
  40d216:	45a0      	cmp	r8, r4
  40d218:	d927      	bls.n	40d26a <__udivmoddi4+0x2ba>
  40d21a:	3802      	subs	r0, #2
  40d21c:	441c      	add	r4, r3
  40d21e:	ea40 4009 	orr.w	r0, r0, r9, lsl #16
  40d222:	eba4 0408 	sub.w	r4, r4, r8
  40d226:	fba0 8902 	umull	r8, r9, r0, r2
  40d22a:	454c      	cmp	r4, r9
  40d22c:	46c6      	mov	lr, r8
  40d22e:	464d      	mov	r5, r9
  40d230:	d315      	bcc.n	40d25e <__udivmoddi4+0x2ae>
  40d232:	d012      	beq.n	40d25a <__udivmoddi4+0x2aa>
  40d234:	b156      	cbz	r6, 40d24c <__udivmoddi4+0x29c>
  40d236:	ebba 030e 	subs.w	r3, sl, lr
  40d23a:	eb64 0405 	sbc.w	r4, r4, r5
  40d23e:	fa04 f707 	lsl.w	r7, r4, r7
  40d242:	40cb      	lsrs	r3, r1
  40d244:	431f      	orrs	r7, r3
  40d246:	40cc      	lsrs	r4, r1
  40d248:	6037      	str	r7, [r6, #0]
  40d24a:	6074      	str	r4, [r6, #4]
  40d24c:	2100      	movs	r1, #0
  40d24e:	e8bd 87f0 	ldmia.w	sp!, {r4, r5, r6, r7, r8, r9, sl, pc}
  40d252:	4618      	mov	r0, r3
  40d254:	e6f8      	b.n	40d048 <__udivmoddi4+0x98>
  40d256:	4690      	mov	r8, r2
  40d258:	e6e0      	b.n	40d01c <__udivmoddi4+0x6c>
  40d25a:	45c2      	cmp	sl, r8
  40d25c:	d2ea      	bcs.n	40d234 <__udivmoddi4+0x284>
  40d25e:	ebb8 0e02 	subs.w	lr, r8, r2
  40d262:	eb69 0503 	sbc.w	r5, r9, r3
  40d266:	3801      	subs	r0, #1
  40d268:	e7e4      	b.n	40d234 <__udivmoddi4+0x284>
  40d26a:	4628      	mov	r0, r5
  40d26c:	e7d7      	b.n	40d21e <__udivmoddi4+0x26e>
  40d26e:	4640      	mov	r0, r8
  40d270:	e791      	b.n	40d196 <__udivmoddi4+0x1e6>
  40d272:	4681      	mov	r9, r0
  40d274:	e7be      	b.n	40d1f4 <__udivmoddi4+0x244>
  40d276:	4601      	mov	r1, r0
  40d278:	e778      	b.n	40d16c <__udivmoddi4+0x1bc>
  40d27a:	3802      	subs	r0, #2
  40d27c:	443c      	add	r4, r7
  40d27e:	e745      	b.n	40d10c <__udivmoddi4+0x15c>
  40d280:	4608      	mov	r0, r1
  40d282:	e708      	b.n	40d096 <__udivmoddi4+0xe6>
  40d284:	f1a8 0802 	sub.w	r8, r8, #2
  40d288:	443d      	add	r5, r7
  40d28a:	e72b      	b.n	40d0e4 <__udivmoddi4+0x134>

0040d28c <__aeabi_idiv0>:
  40d28c:	4770      	bx	lr
  40d28e:	bf00      	nop
  40d290:	454c4449 	.word	0x454c4449
  40d294:	00000000 	.word	0x00000000
  40d298:	51726d54 	.word	0x51726d54
  40d29c:	00000000 	.word	0x00000000
  40d2a0:	20726d54 	.word	0x20726d54
  40d2a4:	00637653 	.word	0x00637653

0040d2a8 <__FUNCTION__.11637>:
  40d2a8:	625f6d6e 695f7375 6c74636f 00000000     nm_bus_ioctl....
  40d2b8:	50504128 52452829 255b2952 255b5d73     (APP)(ERR)[%s][%
  40d2c8:	00005d64 61766e49 2064696c 54434f49     d]..Invalid IOCT
  40d2d8:	6f63204c 6e616d6d 000a2164 0000000d     L command!......

0040d2e8 <__FUNCTION__.9901>:
  40d2e8:	5f666968 646e6573 00000000              hif_send....

0040d2f4 <__FUNCTION__.9911>:
  40d2f4:	5f666968 00727369                       hif_isr.

0040d2fc <__FUNCTION__.9917>:
  40d2fc:	5f666968 646e6168 695f656c 00007273     hif_handle_isr..

0040d30c <__FUNCTION__.9932>:
  40d30c:	5f666968 65636572 00657669              hif_receive.

0040d318 <__FUNCTION__.9947>:
  40d318:	5f666968 69676572 72657473 0062635f     hif_register_cb.
  40d328:	66696828 49572029 485f4946 5f54534f     (hif) WIFI_HOST_
  40d338:	5f564352 4c525443 6220315f 66207375     RCV_CTRL_1 bus f
  40d348:	0a6c6961 00000000 66696828 64612029     ail.....(hif) ad
  40d358:	73657264 75622073 61662073 000a6c69     dress bus fail..
  40d368:	66696828 6f432029 70757272 20646574     (hif) Corrupted 
  40d378:	6b636170 53207465 20657a69 7525203d     packet Size = %u
  40d388:	204c3c20 7525203d 2047202c 7525203d      <L = %u, G = %u
  40d398:	504f202c 25203d20 3e583230 0000000a     , OP = %02X>....
  40d3a8:	66696828 6e692029 696c6176 72672064     (hif) invalid gr
  40d3b8:	2070756f 000a4449 66696828 6f682029     oup ID..(hif) ho
  40d3c8:	61207473 64207070 276e6469 65732074     st app didn't se
  40d3d8:	58522074 6e6f4420 00000a65 66696828     t RX Done...(hif
  40d3e8:	72572029 20676e6f 657a6953 0000000a     ) Wrong Size....
  40d3f8:	66696828 61462029 2065736c 65746e69     (hif) False inte
  40d408:	70757272 6c252074 00000078 66696828     rrupt %lx...(hif
  40d418:	61462029 74206c69 6552206f 69206461     ) Fail to Read i
  40d428:	7265746e 74707572 67657220 0000000a     nterrupt reg....
  40d438:	66696828 41462029 74204c49 6177206f     (hif) FAIL to wa
  40d448:	7075656b 65687420 69686320 00000a70     keup the chip...
  40d458:	46494828 61462029 74206c69 6168206f     (HIF) Fail to ha
  40d468:	656c646e 746e6920 75727265 25207470     ndle interrupt %
  40d478:	72742064 67412079 2e6e6961 00000a2e     d try Again.....
  40d488:	66696820 6365725f 65766965 6e49203a      hif_receive: In
  40d498:	696c6176 72612064 656d7567 000a746e     valid argument..
  40d4a8:	20505041 75716552 65747365 69532064     APP Requested Si
  40d4b8:	6920657a 616c2073 72656772 61687420     ze is larger tha
  40d4c8:	6874206e 65722065 65766963 75622064     n the recived bu
  40d4d8:	72656666 7a697320 253c2065 253c3e64     ffer size <%d><%
  40d4e8:	000a3e64 20505041 75716552 65747365     d>..APP Requeste
  40d4f8:	64412064 73657264 65622073 646e6f79     d Address beyond
  40d508:	65687420 63657220 64657669 66756220      the recived buf
  40d518:	20726566 72646461 20737365 20646e61     fer address and 
  40d528:	676e656c 000a6874 20705247 6425203f     length..GRp ? %d
  40d538:	0000000a 46494828 69614629 6f74206c     ....(HIF)Fail to
  40d548:	6b617720 74207075 63206568 0a706968      wakup the chip.
  40d558:	00000000                                ....

0040d55c <__FUNCTION__.9874>:
  40d55c:	5f6d326d 69666977 0062635f              m2m_wifi_cb.

0040d568 <__FUNCTION__.9898>:
  40d568:	5f6d326d 69666977 696e695f 00000074     m2m_wifi_init...

0040d578 <__FUNCTION__.9926>:
  40d578:	5f6d326d 69666977 6e6f635f 7463656e     m2m_wifi_connect
  40d588:	0063735f 50504128 4e492829 00294f46     _sc.(APP)(INFO).
  40d598:	666e6f43 7463696c 49206465 20222050     Conflicted IP " 
  40d5a8:	252e7525 75252e75 2075252e 000a2022     %u.%u.%u.%u " ..
  40d5b8:	20514552 20746f4e 69666564 2064656e     REQ Not defined 
  40d5c8:	000a6425 2079654b 6e207369 7620746f     %d..Key is not v
  40d5d8:	64696c61 0000000a 61766e49 2064696c     alid....Invalid 
  40d5e8:	0a79654b 00000000 44495353 4e454c20     Key.....SSID LEN
  40d5f8:	564e4920 44494c41 0000000a 49204843      INVALID....CH I
  40d608:	4c41564e 000a4449 61766e49 2064696c     NVALID..Invalid 
  40d618:	20706557 2079656b 65646e69 64252078     Wep key index %d
  40d628:	0000000a 61766e49 2064696c 20706557     ....Invalid Wep 
  40d638:	2079656b 676e656c 25206874 00000a64     key length %d...
  40d648:	6f636e49 63657272 53502074 656b204b     Incorrect PSK ke
  40d658:	656c2079 6874676e 0000000a 65646e75     y length....unde
  40d668:	656e6966 65732064 79742063 000a6570     fined sec type..
  40d678:	6d726946 65726177 72657620 3a202020     Firmware ver   :
  40d688:	2e752520 252e7525 00000a75 206e694d      %u.%u.%u...Min 
  40d698:	76697264 76207265 3a207265 2e752520     driver ver : %u.
  40d6a8:	252e7525 00000a75 72727543 69726420     %u.%u...Curr dri
  40d6b8:	20726576 3a726576 2e752520 252e7525     ver ver: %u.%u.%
  40d6c8:	00000a75 6d73694d 68637461 72694620     u...Mismatch Fir
  40d6d8:	7277616d 65562065 6f697372 00000a6e     mawre Version...

0040d6e8 <__FUNCTION__.9711>:
  40d6e8:	635f6d6e 656c6b6c 775f7373 00656b61     nm_clkless_wake.

0040d6f8 <__FUNCTION__.9805>:
  40d6f8:	70696863 6965645f 0074696e 6c696166     chip_deinit.fail
  40d708:	74206465 6564206f 696e692d 6c616974     ed to de-initial
  40d718:	0a657a69 00000000 6f727245 68772072     ize.....Error wh
  40d728:	20656c69 74697277 20676e69 0a676572     ile writing reg.
  40d738:	00000000 6f727245 68772072 20656c69     ....Error while 
  40d748:	64616572 20676e69 0a676572 00000000     reading reg.....
  40d758:	20737542 6f727265 31282072 57202e29     Bus error (1). W
  40d768:	20656b61 66207075 656c6961 00000a64     ake up failed...
  40d778:	20737542 6f727265 32282072 57202e29     Bus error (2). W
  40d788:	20656b61 66207075 656c6961 00000a64     ake up failed...
  40d798:	636f6c63 7320736b 6c6c6974 46464f20     clocks still OFF
  40d7a8:	6157202e 7520656b 61662070 64656c69     . Wake up failed
  40d7b8:	0000000a 3a676572 2f207825 20782520     ....reg:%x / %x 
  40d7c8:	0000000a                                ....

0040d7cc <__FUNCTION__.9792>:
  40d7cc:	645f6d6e 695f7672 0074696e              nm_drv_init.

0040d7d8 <__FUNCTION__.9799>:
  40d7d8:	645f6d6e 645f7672 696e6965 00000074     nm_drv_deinit...
  40d7e8:	696d6e5b 6f747320 203a5d70 70696863     [nmi stop]: chip
  40d7f8:	6965645f 2074696e 6c696166 0000000a     _deinit fail....
  40d808:	696d6e5b 6f747320 203a5d70 20495053     [nmi stop]: SPI 
  40d818:	73616c66 69642068 6c626173 61662065     flash disable fa
  40d828:	000a6c69 696d6e5b 6f747320 203a5d70     il..[nmi stop]: 
  40d838:	6c696166 696e6920 75622074 00000a73     fail init bus...
  40d848:	6c696166 74206465 6e65206f 656c6261     failed to enable
  40d858:	746e6920 75727265 2e737470 00000a2e      interrupts.....
  40d868:	696d6e5b 61747320 3a5d7472 69616620     [nmi start]: fai
  40d878:	6e69206c 62207469 000a7375 70696843     l init bus..Chip
  40d888:	20444920 0a786c25 00000000               ID %lx.....

0040d894 <__FUNCTION__.9176>:
  40d894:	5f697073 00646d63                       spi_cmd.

0040d89c <__FUNCTION__.9184>:
  40d89c:	5f697073 5f646d63 00707372              spi_cmd_rsp.

0040d8a8 <__FUNCTION__.9200>:
  40d8a8:	5f697073 61746164 6165725f 00000064     spi_data_read...

0040d8b8 <__FUNCTION__.9215>:
  40d8b8:	5f697073 61746164 6972775f 00006574     spi_data_write..

0040d8c8 <__FUNCTION__.9225>:
  40d8c8:	5f697073 74697277 65725f65 00000067     spi_write_reg...

0040d8d8 <__FUNCTION__.9233>:
  40d8d8:	735f6d6e 775f6970 65746972 00000000     nm_spi_write....

0040d8e8 <__FUNCTION__.9242>:
  40d8e8:	5f697073 64616572 6765725f 00000000     spi_read_reg....

0040d8f8 <__FUNCTION__.9250>:
  40d8f8:	735f6d6e 725f6970 00646165              nm_spi_read.

0040d904 <__FUNCTION__.9267>:
  40d904:	735f6d6e 695f6970 0074696e              nm_spi_init.

0040d910 <crc7_syndrome_table>:
  40d910:	1b120900 3f362d24 535a4148 777e656c     ....$-6?HAZSle~w
  40d920:	020b1019 262f343d 4a435851 6e677c75     ....=4/&QXCJu|gn
  40d930:	29203b32 0d041f16 6168737a 454c575e     2; )....zsha^WLE
  40d940:	3039222b 141d060f 78716a63 5c554e47     +"90....cjqxGNU\
  40d950:	7f766d64 5b524940 373e252c 131a0108     dmv.@IR[,%>7....
  40d960:	666f747d 424b5059 2e273c35 0a031811     }tofYPKB5<'.....
  40d970:	4d445f56 69607b72 050c171e 2128333a     V_DMr{`i....:3(!
  40d980:	545d464f 7079626b 1c150e07 38312a23     OF]Tkbyp....#*18
  40d990:	5a534841 7e776c65 121b0009 363f242d     AHSZelw~....-$?6
  40d9a0:	434a5158 676e757c 0b021910 2f263d34     XQJC|ung....4=&/
  40d9b0:	68617a73 4c455e57 2029323b 040d161f     szahW^EL;2) ....
  40d9c0:	7178636a 555c474e 39302b22 1d140f06     jcxqNG\U"+09....
  40d9d0:	3e372c25 1a130801 767f646d 525b4049     %,7>....md.vI@[R
  40d9e0:	272e353c 030a1118 6f667d74 4b425950     <5.'....t}foPYBK
  40d9f0:	0c051e17 28213a33 444d565f 6069727b     ....3:!(_VMD{ri`
  40da00:	151c070e 3138232a 5d544f46 79706b62     ....*#81FOT]bkpy
  40da10:	696d6e5b 69707320 46203a5d 656c6961     [nmi spi]: Faile
  40da20:	6e692064 6e726574 72206c61 20646165     d internal read 
  40da30:	746f7270 6c6f636f 74697720 52432068     protocol with CR
  40da40:	6e6f2043 6572202c 69727974 7720676e     C on, retyring w
  40da50:	20687469 20435243 2e66666f 000a2e2e     ith CRC off.....
  40da60:	696d6e5b 69707320 46203a5d 656c6961     [nmi spi]: Faile
  40da70:	6e692064 6e726574 72206c61 20646165     d internal read 
  40da80:	746f7270 6c6f636f 0a2e2e2e 00000000     protocol........
  40da90:	696d6e5b 69707320 46203a5d 656c6961     [nmi spi]: Faile
  40daa0:	6e692064 6e726574 77206c61 65746972     d internal write
  40dab0:	6f727020 6f636f74 6572206c 2e2e2e67      protocol reg...
  40dac0:	0000000a 696d6e5b 69707320 46203a5d     ....[nmi spi]: F
  40dad0:	206c6961 20646d63 64616572 69686320     ail cmd read chi
  40dae0:	64692070 0a2e2e2e 00000000 696d6e5b     p id........[nmi
  40daf0:	69707320 46203a5d 656c6961 6d632064      spi]: Failed cm
  40db00:	72202c64 20646165 636f6c62 2528206b     d, read block (%
  40db10:	29783830 0a2e2e2e 00000000 696d6e5b     08x)........[nmi
  40db20:	69707320 46203a5d 656c6961 6d632064      spi]: Failed cm
  40db30:	65722064 6e6f7073 202c6573 64616572     d response, read
  40db40:	6f6c6220 28206b63 78383025 2e2e2e29      block (%08x)...
  40db50:	0000000a 696d6e5b 69707320 46203a5d     ....[nmi spi]: F
  40db60:	656c6961 6c622064 206b636f 61746164     ailed block data
  40db70:	61657220 2e2e2e64 0000000a 696d6e5b      read.......[nmi
  40db80:	69707320 46203a5d 656c6961 6d632064      spi]: Failed cm
  40db90:	77202c64 65746972 6f6c6220 28206b63     d, write block (
  40dba0:	78383025 2e2e2e29 0000000a 696d6e5b     %08x).......[nmi
  40dbb0:	69707320 203a5d20 6c696146 63206465      spi ]: Failed c
  40dbc0:	7220646d 6f707365 2c65736e 69727720     md response, wri
  40dbd0:	62206574 6b636f6c 30252820 2e297838     te block (%08x).
  40dbe0:	000a2e2e 696d6e5b 69707320 46203a5d     ....[nmi spi]: F
  40dbf0:	656c6961 61642064 62206174 6b636f6c     ailed data block
  40dc00:	646d6320 69727720 202c6574 20737562      cmd write, bus 
  40dc10:	6f727265 2e2e2e72 0000000a 696d6e5b     error.......[nmi
  40dc20:	69707320 46203a5d 656c6961 61642064      spi]: Failed da
  40dc30:	62206174 6b636f6c 69727720 202c6574     ta block write, 
  40dc40:	20737562 6f727265 2e2e2e72 0000000a     bus error.......
  40dc50:	696d6e5b 69707320 46203a5d 656c6961     [nmi spi]: Faile
  40dc60:	61642064 62206174 6b636f6c 63726320     d data block crc
  40dc70:	69727720 202c6574 20737562 6f727265      write, bus erro
  40dc80:	2e2e2e72 0000000a 696d6e5b 69707320     r.......[nmi spi
  40dc90:	46203a5d 656c6961 6c622064 206b636f     ]: Failed block 
  40dca0:	61746164 69727720 2e2e6574 00000a2e     data write......
  40dcb0:	696d6e5b 69707320 46203a5d 656c6961     [nmi spi]: Faile
  40dcc0:	6d632064 72772064 2c657469 73756220     d cmd write, bus
  40dcd0:	72726520 2e2e726f 00000a2e 696d6e5b      error......[nmi
  40dce0:	69707320 46203a5d 656c6961 6d632064      spi]: Failed cm
  40dcf0:	65722064 6e6f7073 72206573 2c646165     d response read,
  40dd00:	73756220 72726520 2e2e726f 00000a2e      bus error......
  40dd10:	696d6e5b 69707320 46203a5d 656c6961     [nmi spi]: Faile
  40dd20:	61642064 72206174 6f707365 2065736e     d data response 
  40dd30:	64616572 7562202c 72652073 2e726f72     read, bus error.
  40dd40:	000a2e2e 696d6e5b 69707320 46203a5d     ....[nmi spi]: F
  40dd50:	656c6961 61642064 72206174 6f707365     ailed data respo
  40dd60:	2065736e 64616572 282e2e2e 78323025     nse read...(%02x
  40dd70:	00000a29 696d6e5b 69707320 46203a5d     )...[nmi spi]: F
  40dd80:	656c6961 61642064 62206174 6b636f6c     ailed data block
  40dd90:	61657220 62202c64 65207375 726f7272      read, bus error
  40dda0:	0a2e2e2e 00000000 696d6e5b 69707320     ........[nmi spi
  40ddb0:	46203a5d 656c6961 61642064 62206174     ]: Failed data b
  40ddc0:	6b636f6c 63726320 61657220 62202c64     lock crc read, b
  40ddd0:	65207375 726f7272 0a2e2e2e 00000000     us error........
  40dde0:	696d6e5b 69707320 46203a5d 656c6961     [nmi spi]: Faile
  40ddf0:	6d632064 72202c64 20646165 20676572     d cmd, read reg 
  40de00:	38302528 2e2e2978 00000a2e 696d6e5b     (%08x)......[nmi
  40de10:	69707320 46203a5d 656c6961 6d632064      spi]: Failed cm
  40de20:	65722064 6e6f7073 202c6573 64616572     d response, read
  40de30:	67657220 30252820 2e297838 000a2e2e      reg (%08x).....
  40de40:	696d6e5b 69707320 46203a5d 656c6961     [nmi spi]: Faile
  40de50:	61642064 72206174 2e646165 000a2e2e     d data read.....
  40de60:	696d6e5b 69707320 46203a5d 656c6961     [nmi spi]: Faile
  40de70:	6d632064 77202c64 65746972 67657220     d cmd, write reg
  40de80:	30252820 2e297838 000a2e2e 696d6e5b      (%08x).....[nmi
  40de90:	69707320 46203a5d 656c6961 6d632064      spi]: Failed cm
  40dea0:	65722064 6e6f7073 202c6573 74697277     d response, writ
  40deb0:	65722065 25282067 29783830 0a2e2e2e     e reg (%08x)....
  40dec0:	00000000 52524528 75432952 6e657272     ....(ERRR)Curren
  40ded0:	253c2074 000a3e64 42424c41 42424242     t <%d>..ALBBBBBB
  40dee0:	42424242 42424242 00454d52 252f6425     BBBBBBBBRME.%d/%
  40def0:	64252f64 25202d20 3a643230 64323025     d/%d - %02d:%02d
  40df00:	3230253a 00000064 57202d2d 31434e49     :%02d...-- WINC1
  40df10:	20303035 74616577 20726568 65696c63     500 weather clie
  40df20:	6520746e 706d6178 2d20656c 2d0a0d2d     nt example --..-
  40df30:	4153202d 3037454d 4c50582d 2d2d2044     - SAME70-XPLD --
  40df40:	2d2d0a0d 6d6f4320 656c6970 4a203a64     ..-- Compiled: J
  40df50:	31206e75 30322034 31203931 37353a31     un 14 2019 11:57
  40df60:	2036353a 0a0d2d2d 00000000 34306368     :56 --......hc04
  40df70:	0000415f 6c696146 74206465 7263206f     _A..Failed to cr
  40df80:	65746165 72615520 20785474 6b736174     eate UartTx task
  40df90:	00000a0d 6c636963 00007365 656d6974     ....cicles..time
  40dfa0:	00000072 656d6974 00003272 63656661     r...timer2..afec
  40dfb0:	00000000 61746164 00000000 69666957     ....data....Wifi
  40dfc0:	00000000 6c696146 74206465 7263206f     ....Failed to cr
  40dfd0:	65746165 66695720 61742069 0a0d6b73     eate Wifi task..
  40dfe0:	00000000 6f736572 5f65766c 203a6263     ....resolve_cb: 
  40dff0:	49207325 64612050 73657264 73692073     %s IP address is
  40e000:	2e642520 252e6425 64252e64 0a0d0a0d      %d.%d.%d.%d....
  40e010:	00000000 70736964 7469736f 006f7669     ....dispositivo.
  40e020:	7325227b 64253a22 7325222c 64253a22     {"%s":%d,"%s":%d
  40e030:	7325222c 64253a22 25222c20 223a2273     ,"%s":%d ,"%s":"
  40e040:	7d227325 00000000 656d6974 6d617473     %s"}....timestam
  40e050:	00000070 756c6176 00000065 00006469     p...value...id..
  40e060:	20545550 4820312f 2f505454 0a302e31     PUT /1 HTTP/1.0.
  40e070:	00000000 6f437325 6e65746e 654c2d74     ....%sContent-Le
  40e080:	6874676e 6425203a 2573250a 00000073     ngth: %d.%s%s...
  40e090:	746e6f43 2d746e65 65707954 7061203a     Content-Type: ap
  40e0a0:	63696c70 6f697461 736a2f6e 0a0a6e6f     plication/json..
  40e0b0:	00000000 00000a0a 2d2d2d0a 2d2d2d2d     .........-------
  40e0c0:	2d2d2d2d 2d2d2d2d 2d2d2d2d 2d2d2d2d     ----------------
  40e0d0:	2d2d2d2d 2d2d2d2d 2d2d2d2d 2d2d2d2d     ----------------
  40e0e0:	2d2d2d2d 0a2d2d2d 00000000 0073250a     -------......%s.
  40e0f0:	636f730a 5f74656b 203a6263 6e6e6f63     .socket_cb: conn
  40e100:	20746365 6f727265 0a0d2172 00000000     ect error!......
  40e110:	6e69616d 326d203a 69775f6d 695f6966     main: m2m_wifi_i
  40e120:	2074696e 6c6c6163 72726520 2821726f     nit call error!(
  40e130:	0d296425 0000000a 00696c45 6e69616d     %d).....Eli.main
  40e140:	6f63203a 63656e6e 676e6974 206f7420     : connecting to 
  40e150:	69466957 20504120 2e2e7325 000a0d2e     WiFi AP %s......
  40e160:	34333231 38373635 00000039 2e323931     123456789...192.
  40e170:	2e383631 322e3334 00000038 74656e49     168.43.28...Inet
  40e180:	6f746120 203a206e 00006425 6e69616d      aton : %d..main
  40e190:	6166203a 64656c69 206f7420 61657263     : failed to crea
  40e1a0:	54206574 63205043 6e65696c 6f732074     te TCP client so
  40e1b0:	74656b63 72726520 0d21726f 0000000a     cket error!.....
  40e1c0:	636f730a 2074656b 6e6e6f63 69746365     .socket connecti
  40e1d0:	000a676e 6f727265 00000a72 63617473     ng..error...stac
  40e1e0:	766f206b 6c667265 2520776f 73252078     k overflow %x %s
  40e1f0:	00000a0d 69666977 3a62635f 4d324d20     ....wifi_cb: M2M
  40e200:	4649575f 4f435f49 43454e4e 0d444554     _WIFI_CONNECTED.
  40e210:	0000000a 69666977 3a62635f 4d324d20     ....wifi_cb: M2M
  40e220:	4649575f 49445f49 4e4f4353 5443454e     _WIFI_DISCONNECT
  40e230:	0a0d4445 00000000 69666977 3a62635f     ED......wifi_cb:
  40e240:	20504920 72646461 20737365 25207369      IP address is %
  40e250:	75252e75 2e75252e 0a0d7525 00000000     u.%u.%u.%u......
  40e260:	6b636f73 635f7465 59203a62 3a726165     socket_cb: Year:
  40e270:	2c642520 6e6f4d20 203a6874 202c6425      %d, Month: %d, 
  40e280:	20656854 20544d47 656d6974 20736920     The GMT time is 
  40e290:	253a7525 3a753230 75323025 00000a0d     %u:%02u:%02u....

0040e2a0 <_global_impure_ptr>:
  40e2a0:	20400030 00464e49 00666e69 004e414e     0.@ INF.inf.NAN.
  40e2b0:	006e616e 33323130 37363534 42413938     nan.0123456789AB
  40e2c0:	46454443 00000000 33323130 37363534     CDEF....01234567
  40e2d0:	62613938 66656463 00000000 6c756e28     89abcdef....(nul
  40e2e0:	0000296c 00000030                       l)..0...

0040e2e8 <blanks.7223>:
  40e2e8:	20202020 20202020 20202020 20202020                     

0040e2f8 <zeroes.7224>:
  40e2f8:	30303030 30303030 30303030 30303030     0000000000000000

0040e308 <blanks.7217>:
  40e308:	20202020 20202020 20202020 20202020                     

0040e318 <zeroes.7218>:
  40e318:	30303030 30303030 30303030 30303030     0000000000000000
  40e328:	69666e49 7974696e 00000000 004e614e     Infinity....NaN.
  40e338:	00000043 49534f50 00000058 0000002e     C...POSIX.......

0040e348 <__mprec_bigtens>:
  40e348:	37e08000 4341c379 b5056e17 4693b8b5     ...7y.AC.n.....F
  40e358:	e93ff9f5 4d384f03 f9301d32 5a827748     ..?..O8M2.0.Hw.Z
  40e368:	7f73bf3c 75154fdd                       <.s..O.u

0040e370 <__mprec_tens>:
  40e370:	00000000 3ff00000 00000000 40240000     .......?......$@
  40e380:	00000000 40590000 00000000 408f4000     ......Y@.....@.@
  40e390:	00000000 40c38800 00000000 40f86a00     .......@.....j.@
  40e3a0:	00000000 412e8480 00000000 416312d0     .......A......cA
  40e3b0:	00000000 4197d784 00000000 41cdcd65     .......A....e..A
  40e3c0:	20000000 4202a05f e8000000 42374876     ... _..B....vH7B
  40e3d0:	a2000000 426d1a94 e5400000 42a2309c     ......mB..@..0.B
  40e3e0:	1e900000 42d6bcc4 26340000 430c6bf5     .......B..4&.k.C
  40e3f0:	37e08000 4341c379 85d8a000 43763457     ...7y.AC....W4vC
  40e400:	674ec800 43abc16d 60913d00 43e158e4     ..Ngm..C.=.`.X.C
  40e410:	78b58c40 4415af1d d6e2ef50 444b1ae4     @..x...DP.....KD
  40e420:	064dd592 4480f0cf c7e14af6 44b52d02     ..M....D.J...-.D
  40e430:	79d99db4 44ea7843                       ...yCx.D

0040e438 <p05.6055>:
  40e438:	00000005 00000019 0000007d              ........}...

0040e444 <_ctype_>:
  40e444:	20202000 20202020 28282020 20282828     .         ((((( 
  40e454:	20202020 20202020 20202020 20202020                     
  40e464:	10108820 10101010 10101010 10101010      ...............
  40e474:	04040410 04040404 10040404 10101010     ................
  40e484:	41411010 41414141 01010101 01010101     ..AAAAAA........
  40e494:	01010101 01010101 01010101 10101010     ................
  40e4a4:	42421010 42424242 02020202 02020202     ..BBBBBB........
  40e4b4:	02020202 02020202 02020202 10101010     ................
  40e4c4:	00000020 00000000 00000000 00000000      ...............
	...

0040e548 <_init>:
  40e548:	b5f8      	push	{r3, r4, r5, r6, r7, lr}
  40e54a:	bf00      	nop
  40e54c:	bcf8      	pop	{r3, r4, r5, r6, r7}
  40e54e:	bc08      	pop	{r3}
  40e550:	469e      	mov	lr, r3
  40e552:	4770      	bx	lr

0040e554 <__init_array_start>:
  40e554:	00409e15 	.word	0x00409e15

0040e558 <__frame_dummy_init_array_entry>:
  40e558:	00400165                                e.@.

0040e55c <_fini>:
  40e55c:	b5f8      	push	{r3, r4, r5, r6, r7, lr}
  40e55e:	bf00      	nop
  40e560:	bcf8      	pop	{r3, r4, r5, r6, r7}
  40e562:	bc08      	pop	{r3}
  40e564:	469e      	mov	lr, r3
  40e566:	4770      	bx	lr

0040e568 <__fini_array_start>:
  40e568:	00400141 	.word	0x00400141

Disassembly of section .relocate:

20400000 <portable_delay_cycles>:
20400000:	f3bf 8f5f 	dmb	sy
20400004:	3801      	subs	r0, #1
20400006:	d1fb      	bne.n	20400000 <portable_delay_cycles>
20400008:	4770      	bx	lr
	...

2040000c <uxCriticalNesting>:
2040000c:	aaaa aaaa                                   ....

20400010 <egstrNmBusCapabilities>:
20400010:	1000 0000                                   ....

20400014 <clk_status_reg_adr>:
20400014:	000f 0000                                   ....

20400018 <g_interrupt_enabled>:
20400018:	0001 0000                                   ....

2040001c <SystemCoreClock>:
2040001c:	0900 003d                                   ..=.

20400020 <dispositivo>:
20400020:	0001 0000                                   ....

20400024 <tcp_client_socket>:
20400024:	00ff 0000                                   ....

20400028 <_impure_ptr>:
20400028:	0030 2040 0000 0000                         0.@ ....

20400030 <impure_data>:
20400030:	0000 0000 031c 2040 0384 2040 03ec 2040     ......@ ..@ ..@ 
	...
204000d8:	0001 0000 0000 0000 330e abcd 1234 e66d     .........3..4.m.
204000e8:	deec 0005 000b 0000 0000 0000 0000 0000     ................
	...

20400458 <__atexit_recursive_mutex>:
20400458:	cfb0 2040                                   ..@ 

2040045c <__global_locale>:
2040045c:	0043 0000 0000 0000 0000 0000 0000 0000     C...............
	...
2040047c:	0043 0000 0000 0000 0000 0000 0000 0000     C...............
	...
2040049c:	0043 0000 0000 0000 0000 0000 0000 0000     C...............
	...
204004bc:	0043 0000 0000 0000 0000 0000 0000 0000     C...............
	...
204004dc:	0043 0000 0000 0000 0000 0000 0000 0000     C...............
	...
204004fc:	0043 0000 0000 0000 0000 0000 0000 0000     C...............
	...
2040051c:	0043 0000 0000 0000 0000 0000 0000 0000     C...............
	...
2040053c:	cb4d 0040 bda9 0040 0000 0000 e444 0040     M.@...@.....D.@.
2040054c:	e344 0040 e0b0 0040 e0b0 0040 e0b0 0040     D.@...@...@...@.
2040055c:	e0b0 0040 e0b0 0040 e0b0 0040 e0b0 0040     ..@...@...@...@.
2040056c:	e0b0 0040 e0b0 0040 ffff ffff ffff ffff     ..@...@.........
2040057c:	ffff ffff ffff 0000 0001 5341 4943 0049     ..........ASCII.
	...
204005a4:	0000 5341 4943 0049 0000 0000 0000 0000     ..ASCII.........
	...

204005c8 <__malloc_av_>:
	...
204005d0:	05c8 2040 05c8 2040 05d0 2040 05d0 2040     ..@ ..@ ..@ ..@ 
204005e0:	05d8 2040 05d8 2040 05e0 2040 05e0 2040     ..@ ..@ ..@ ..@ 
204005f0:	05e8 2040 05e8 2040 05f0 2040 05f0 2040     ..@ ..@ ..@ ..@ 
20400600:	05f8 2040 05f8 2040 0600 2040 0600 2040     ..@ ..@ ..@ ..@ 
20400610:	0608 2040 0608 2040 0610 2040 0610 2040     ..@ ..@ ..@ ..@ 
20400620:	0618 2040 0618 2040 0620 2040 0620 2040     ..@ ..@  .@  .@ 
20400630:	0628 2040 0628 2040 0630 2040 0630 2040     (.@ (.@ 0.@ 0.@ 
20400640:	0638 2040 0638 2040 0640 2040 0640 2040     8.@ 8.@ @.@ @.@ 
20400650:	0648 2040 0648 2040 0650 2040 0650 2040     H.@ H.@ P.@ P.@ 
20400660:	0658 2040 0658 2040 0660 2040 0660 2040     X.@ X.@ `.@ `.@ 
20400670:	0668 2040 0668 2040 0670 2040 0670 2040     h.@ h.@ p.@ p.@ 
20400680:	0678 2040 0678 2040 0680 2040 0680 2040     x.@ x.@ ..@ ..@ 
20400690:	0688 2040 0688 2040 0690 2040 0690 2040     ..@ ..@ ..@ ..@ 
204006a0:	0698 2040 0698 2040 06a0 2040 06a0 2040     ..@ ..@ ..@ ..@ 
204006b0:	06a8 2040 06a8 2040 06b0 2040 06b0 2040     ..@ ..@ ..@ ..@ 
204006c0:	06b8 2040 06b8 2040 06c0 2040 06c0 2040     ..@ ..@ ..@ ..@ 
204006d0:	06c8 2040 06c8 2040 06d0 2040 06d0 2040     ..@ ..@ ..@ ..@ 
204006e0:	06d8 2040 06d8 2040 06e0 2040 06e0 2040     ..@ ..@ ..@ ..@ 
204006f0:	06e8 2040 06e8 2040 06f0 2040 06f0 2040     ..@ ..@ ..@ ..@ 
20400700:	06f8 2040 06f8 2040 0700 2040 0700 2040     ..@ ..@ ..@ ..@ 
20400710:	0708 2040 0708 2040 0710 2040 0710 2040     ..@ ..@ ..@ ..@ 
20400720:	0718 2040 0718 2040 0720 2040 0720 2040     ..@ ..@  .@  .@ 
20400730:	0728 2040 0728 2040 0730 2040 0730 2040     (.@ (.@ 0.@ 0.@ 
20400740:	0738 2040 0738 2040 0740 2040 0740 2040     8.@ 8.@ @.@ @.@ 
20400750:	0748 2040 0748 2040 0750 2040 0750 2040     H.@ H.@ P.@ P.@ 
20400760:	0758 2040 0758 2040 0760 2040 0760 2040     X.@ X.@ `.@ `.@ 
20400770:	0768 2040 0768 2040 0770 2040 0770 2040     h.@ h.@ p.@ p.@ 
20400780:	0778 2040 0778 2040 0780 2040 0780 2040     x.@ x.@ ..@ ..@ 
20400790:	0788 2040 0788 2040 0790 2040 0790 2040     ..@ ..@ ..@ ..@ 
204007a0:	0798 2040 0798 2040 07a0 2040 07a0 2040     ..@ ..@ ..@ ..@ 
204007b0:	07a8 2040 07a8 2040 07b0 2040 07b0 2040     ..@ ..@ ..@ ..@ 
204007c0:	07b8 2040 07b8 2040 07c0 2040 07c0 2040     ..@ ..@ ..@ ..@ 
204007d0:	07c8 2040 07c8 2040 07d0 2040 07d0 2040     ..@ ..@ ..@ ..@ 
204007e0:	07d8 2040 07d8 2040 07e0 2040 07e0 2040     ..@ ..@ ..@ ..@ 
204007f0:	07e8 2040 07e8 2040 07f0 2040 07f0 2040     ..@ ..@ ..@ ..@ 
20400800:	07f8 2040 07f8 2040 0800 2040 0800 2040     ..@ ..@ ..@ ..@ 
20400810:	0808 2040 0808 2040 0810 2040 0810 2040     ..@ ..@ ..@ ..@ 
20400820:	0818 2040 0818 2040 0820 2040 0820 2040     ..@ ..@  .@  .@ 
20400830:	0828 2040 0828 2040 0830 2040 0830 2040     (.@ (.@ 0.@ 0.@ 
20400840:	0838 2040 0838 2040 0840 2040 0840 2040     8.@ 8.@ @.@ @.@ 
20400850:	0848 2040 0848 2040 0850 2040 0850 2040     H.@ H.@ P.@ P.@ 
20400860:	0858 2040 0858 2040 0860 2040 0860 2040     X.@ X.@ `.@ `.@ 
20400870:	0868 2040 0868 2040 0870 2040 0870 2040     h.@ h.@ p.@ p.@ 
20400880:	0878 2040 0878 2040 0880 2040 0880 2040     x.@ x.@ ..@ ..@ 
20400890:	0888 2040 0888 2040 0890 2040 0890 2040     ..@ ..@ ..@ ..@ 
204008a0:	0898 2040 0898 2040 08a0 2040 08a0 2040     ..@ ..@ ..@ ..@ 
204008b0:	08a8 2040 08a8 2040 08b0 2040 08b0 2040     ..@ ..@ ..@ ..@ 
204008c0:	08b8 2040 08b8 2040 08c0 2040 08c0 2040     ..@ ..@ ..@ ..@ 
204008d0:	08c8 2040 08c8 2040 08d0 2040 08d0 2040     ..@ ..@ ..@ ..@ 
204008e0:	08d8 2040 08d8 2040 08e0 2040 08e0 2040     ..@ ..@ ..@ ..@ 
204008f0:	08e8 2040 08e8 2040 08f0 2040 08f0 2040     ..@ ..@ ..@ ..@ 
20400900:	08f8 2040 08f8 2040 0900 2040 0900 2040     ..@ ..@ ..@ ..@ 
20400910:	0908 2040 0908 2040 0910 2040 0910 2040     ..@ ..@ ..@ ..@ 
20400920:	0918 2040 0918 2040 0920 2040 0920 2040     ..@ ..@  .@  .@ 
20400930:	0928 2040 0928 2040 0930 2040 0930 2040     (.@ (.@ 0.@ 0.@ 
20400940:	0938 2040 0938 2040 0940 2040 0940 2040     8.@ 8.@ @.@ @.@ 
20400950:	0948 2040 0948 2040 0950 2040 0950 2040     H.@ H.@ P.@ P.@ 
20400960:	0958 2040 0958 2040 0960 2040 0960 2040     X.@ X.@ `.@ `.@ 
20400970:	0968 2040 0968 2040 0970 2040 0970 2040     h.@ h.@ p.@ p.@ 
20400980:	0978 2040 0978 2040 0980 2040 0980 2040     x.@ x.@ ..@ ..@ 
20400990:	0988 2040 0988 2040 0990 2040 0990 2040     ..@ ..@ ..@ ..@ 
204009a0:	0998 2040 0998 2040 09a0 2040 09a0 2040     ..@ ..@ ..@ ..@ 
204009b0:	09a8 2040 09a8 2040 09b0 2040 09b0 2040     ..@ ..@ ..@ ..@ 
204009c0:	09b8 2040 09b8 2040 09c0 2040 09c0 2040     ..@ ..@ ..@ ..@ 

204009d0 <__malloc_sbrk_base>:
204009d0:	ffff ffff                                   ....

204009d4 <__malloc_trim_threshold>:
204009d4:	0000 0002                                   ....
